 client

 Timestamp is 661e5c57 (Tue Apr 16 14:09:11 2024)

 Preferred load address is 24000000

 Start         Length     Name                   Class
 0001:00000000 0020d23cH .text                   CODE
 0001:0020d240 0000e0b9H .text$yc                CODE
 0001:0021b300 0000409aH .text$yd                CODE
 0002:00000000 000001f8H .idata$5                DATA
 0002:00000200 000512bcH .rdata                  DATA
 0002:000514bc 00000055H .rdata$debug            DATA
 0002:00051514 000101a8H .rdata$r                DATA
 0002:000616bc 00000004H .rtc$IAA                DATA
 0002:000616c0 00000004H .rtc$IZZ                DATA
 0002:000616c4 00000004H .rtc$TAA                DATA
 0002:000616c8 00000004H .rtc$TZZ                DATA
 0002:000616cc 000000c8H .xdata$x                DATA
 0002:00061794 00000064H .idata$2                DATA
 0002:000617f8 00000014H .idata$3                DATA
 0002:0006180c 000001f8H .idata$4                DATA
 0002:00061a04 00000992H .idata$6                DATA
 0002:000623a0 0000004dH .edata                  DATA
 0003:00000000 00000004H .CRT$XCA                DATA
 0003:00000004 00000004H .CRT$XCAA               DATA
 0003:00000008 00001730H .CRT$XCU                DATA
 0003:00001738 00000004H .CRT$XCZ                DATA
 0003:0000173c 00000004H .CRT$XIA                DATA
 0003:00001740 00000010H .CRT$XIC                DATA
 0003:00001750 00000004H .CRT$XIY                DATA
 0003:00001754 00000004H .CRT$XIZ                DATA
 0003:00001758 00000004H .CRT$XPA                DATA
 0003:0000175c 00000004H .CRT$XPX                DATA
 0003:00001760 00000004H .CRT$XPZ                DATA
 0003:00001764 00000004H .CRT$XTA                DATA
 0003:00001768 00000004H .CRT$XTB                DATA
 0003:0000176c 00000004H .CRT$XTZ                DATA
 0003:00001770 0002fa94H .data                   DATA
 0003:00031220 000684e0H .bss                    DATA

  Address         Publics by Value              Rva+Base     Lib:Object

 0000:00000000       ___safe_se_handler_table   00000000     <absolute>
 0000:00000000       __except_list              00000000     <absolute>
 0000:00000000       ___safe_se_handler_count   00000000     <absolute>
 0001:00000000       ?ActivityList_Init@@YAXXZ  24001000 f   activitylist.obj
 0001:00000010       ??2@YAPAXIPAX@Z            24001010 f i activitylist.obj
 0001:00000020       ?Q_memmove@@YAXPAXPBXH@Z   24001020 f i activitylist.obj
 0001:00000030       ??0ISaveRestoreOps@@QAE@XZ 24001030 f i activitylist.obj
 0001:00000040       ?ActivityDataOps@@YAPAVISaveRestoreOps@@XZ 24001040 f   activitylist.obj
 0001:00000050       ??_H@YGXPAXIHP6EPAX0@Z@Z   24001050 f i activitylist.obj
 0001:00000090       ?Size@?$CUtlVector@Uactivitylist_t@@V?$CUtlMemory@Uactivitylist_t@@@@@@QBEHXZ 24001090 f i activitylist.obj
 0001:000000a0       ??0?$CUtlMemory@Uactivitylist_t@@@@QAE@HH@Z 240010a0 f i activitylist.obj
 0001:000000e0       ?Base@?$CUtlMemory@Uactivitylist_t@@@@QAEPAUactivitylist_t@@XZ 240010e0 f i activitylist.obj
 0001:000000f0       ??$Construct@Uactivitylist_t@@@@YAXPAUactivitylist_t@@@Z 240010f0 f i activitylist.obj
 0001:00000100       ??$Destruct@Uactivitylist_t@@@@YAXPAUactivitylist_t@@@Z 24001100 f i activitylist.obj
 0001:00000110       ?IsExternallyAllocated@?$CUtlMemory@Uactivitylist_t@@@@QBE_NXZ 24001110 f i activitylist.obj
 0001:00000120       ?NumAllocated@?$CUtlMemory@Uactivitylist_t@@@@QBEHXZ 24001120 f i activitylist.obj
 0001:00000130       ?Grow@?$CUtlMemory@Uactivitylist_t@@@@QAEXH@Z 24001130 f i activitylist.obj
 0001:000001b0       ??0CDefSaveRestoreOps@@QAE@XZ 240011b0 f i activitylist.obj
 0001:000001c0       ?Save@CDefSaveRestoreOps@@UAEXABUSaveRestoreFieldInfo_t@@PAVISave@@@Z 240011c0 f i activitylist.obj
 0001:000001d0       ?Restore@CDefSaveRestoreOps@@UAEXABUSaveRestoreFieldInfo_t@@PAVIRestore@@@Z 240011d0 f i activitylist.obj
 0001:000001e0       ?IsEmpty@CDefSaveRestoreOps@@UAE_NABUSaveRestoreFieldInfo_t@@@Z 240011e0 f i activitylist.obj
 0001:000001f0       ?MakeEmpty@CDefSaveRestoreOps@@UAEXABUSaveRestoreFieldInfo_t@@@Z 240011f0 f i activitylist.obj
 0001:00000200       ?Parse@CDefSaveRestoreOps@@UAE_NABUSaveRestoreFieldInfo_t@@PBD@Z 24001200 f i activitylist.obj
 0001:00000210       ?Base@?$CUtlVector@Uactivitylist_t@@V?$CUtlMemory@Uactivitylist_t@@@@@@QAEPAUactivitylist_t@@XZ 24001210 f i activitylist.obj
 0001:00000220       ?ResetDbgInfo@?$CUtlVector@Uactivitylist_t@@V?$CUtlMemory@Uactivitylist_t@@@@@@IAEXXZ 24001220 f i activitylist.obj
 0001:00000230       ?Purge@?$CUtlMemory@Uactivitylist_t@@@@QAEXXZ 24001230 f i activitylist.obj
 0001:00000260       ?Element@?$CUtlVector@Uactivitylist_t@@V?$CUtlMemory@Uactivitylist_t@@@@@@QAEAAUactivitylist_t@@H@Z 24001260 f i activitylist.obj
 0001:00000270       ?GrowVector@?$CUtlVector@Uactivitylist_t@@V?$CUtlMemory@Uactivitylist_t@@@@@@IAEXH@Z 24001270 f i activitylist.obj
 0001:000002a0       ?ShiftElementsRight@?$CUtlVector@Uactivitylist_t@@V?$CUtlMemory@Uactivitylist_t@@@@@@IAEXHH@Z 240012a0 f i activitylist.obj
 0001:000002e0       ??0CActivityDataOps@@QAE@XZ 240012e0 f i activitylist.obj
 0001:000002f0       ?IsEmpty@CActivityDataOps@@UAE_NABUSaveRestoreFieldInfo_t@@@Z 240012f0 f i activitylist.obj
 0001:00000300       ?MakeEmpty@CActivityDataOps@@UAEXABUSaveRestoreFieldInfo_t@@@Z 24001300 f i activitylist.obj
 0001:00000310       ??A?$CUtlVector@Uactivitylist_t@@V?$CUtlMemory@Uactivitylist_t@@@@@@QAEAAUactivitylist_t@@H@Z 24001310 f i activitylist.obj
 0001:00000320       ?InsertBefore@?$CUtlVector@Uactivitylist_t@@V?$CUtlMemory@Uactivitylist_t@@@@@@QAEHH@Z 24001320 f i activitylist.obj
 0001:00000380       ?RemoveAll@?$CUtlVector@Uactivitylist_t@@V?$CUtlMemory@Uactivitylist_t@@@@@@QAEXXZ 24001380 f i activitylist.obj
 0001:00000390       ??1?$CUtlMemory@Uactivitylist_t@@@@QAE@XZ 24001390 f i activitylist.obj
 0001:00000410       ?ActivityList_IndexForName@@YAHPBD@Z 24001410 f   activitylist.obj
 0001:00000440       ?ActivityList_NameForIndex@@YAPBDH@Z 24001440 f   activitylist.obj
 0001:00000480       ?Save@CActivityDataOps@@UAEXABUSaveRestoreFieldInfo_t@@PAVISave@@@Z 24001480 f i activitylist.obj
 0001:000004f0       ?Restore@CActivityDataOps@@UAEXABUSaveRestoreFieldInfo_t@@PAVIRestore@@@Z 240014f0 f i activitylist.obj
 0001:00000580       ??0?$CUtlVector@Uactivitylist_t@@V?$CUtlMemory@Uactivitylist_t@@@@@@QAE@HH@Z 24001580 f i activitylist.obj
 0001:000005c0       ?AddToTail@?$CUtlVector@Uactivitylist_t@@V?$CUtlMemory@Uactivitylist_t@@@@@@QAEHXZ 240015c0 f i activitylist.obj
 0001:000005d0       ?Purge@?$CUtlVector@Uactivitylist_t@@V?$CUtlMemory@Uactivitylist_t@@@@@@QAEXXZ 240015d0 f i activitylist.obj
 0001:00000610       ?ActivityList_Free@@YAXXZ  24001610 f   activitylist.obj
 0001:00000660       ?ActivityList_AddActivityEntry@@YAPAUactivitylist_t@@PBDH_N@Z 24001660 f   activitylist.obj
 0001:000006c0       ?ActivityList_RegisterSharedActivity@@YA_NPBDH@Z 240016c0 f   activitylist.obj
 0001:00000740       ?ActivityList_RegisterPrivateActivity@@YA?AW4Activity@@PBD@Z 24001740 f   activitylist.obj
 0001:000007a0       ?ActivityList_RegisterSharedActivities@@YAXXZ 240017a0 f   activitylist.obj
 0001:00002850       ??1?$CUtlVector@Uactivitylist_t@@V?$CUtlMemory@Uactivitylist_t@@@@@@QAE@XZ 24003850 f i activitylist.obj
 0001:000028b0       ??1IMaterialProxy@@MAE@XZ  240038b0 f i alphamaterialproxy.obj
 0001:000028c0       ??_EIMaterialProxy@@MAEPAXI@Z 240038c0 f i alphamaterialproxy.obj
 0001:000028c0       ??_GIMaterialProxy@@MAEPAXI@Z 240038c0 f i alphamaterialproxy.obj
 0001:000028e0       ??1CEntityMaterialProxy@@UAE@XZ 240038e0 f i alphamaterialproxy.obj
 0001:000028f0       ??0IMaterialProxy@@QAE@XZ  240038f0 f i alphamaterialproxy.obj
 0001:00002900       ??1CAlphaMaterialProxy@@UAE@XZ 24003900 f   alphamaterialproxy.obj
 0001:00002910       ?Init@CAlphaMaterialProxy@@UAE_NPAVIMaterial@@PAVKeyValues@@@Z 24003910 f   alphamaterialproxy.obj
 0001:00002940       ??C?$CNetworkVarBase@Ucolor32_s@@VNetworkVar_m_clrRender@C_BaseEntity@@@@QBEPBUcolor32_s@@XZ 24003940 f i alphamaterialproxy.obj
 0001:00002950       ??0CEntityMaterialProxy@@QAE@XZ 24003950 f i alphamaterialproxy.obj
 0001:00002960       ??_ECEntityMaterialProxy@@UAEPAXI@Z 24003960 f i alphamaterialproxy.obj
 0001:00002960       ??_GCEntityMaterialProxy@@UAEPAXI@Z 24003960 f i alphamaterialproxy.obj
 0001:00002980       ?OnBind@CAlphaMaterialProxy@@UAEXPAVC_BaseEntity@@@Z 24003980 f   alphamaterialproxy.obj
 0001:000029b0       ??0CAlphaMaterialProxy@@QAE@XZ 240039b0 f   alphamaterialproxy.obj
 0001:000029c0       ??_GCAlphaMaterialProxy@@UAEPAXI@Z 240039c0 f i alphamaterialproxy.obj
 0001:000029c0       ??_ECAlphaMaterialProxy@@UAEPAXI@Z 240039c0 f i alphamaterialproxy.obj
 0001:00002a00       ?GetAmmoOfIndex@CAmmoDef@@QAEPAUAmmo_t@@H@Z 24003a00 f   ammodef.obj
 0001:00002a30       ?Index@CAmmoDef@@QAEHPBD@Z 24003a30 f   ammodef.obj
 0001:00002a80       ?DamageType@CAmmoDef@@QAEHH@Z 24003a80 f   ammodef.obj
 0001:00002ab0       ?Flags@CAmmoDef@@QAEHH@Z   24003ab0 f   ammodef.obj
 0001:00002ae0       ?MinSplashSize@CAmmoDef@@QAEHH@Z 24003ae0 f   ammodef.obj
 0001:00002b10       ?MaxSplashSize@CAmmoDef@@QAEHH@Z 24003b10 f   ammodef.obj
 0001:00002b40       ?TracerType@CAmmoDef@@QAEHH@Z 24003b40 f   ammodef.obj
 0001:00002b70       ?DamageForce@CAmmoDef@@QAEMH@Z 24003b70 f   ammodef.obj
 0001:00002ba0       ?AddAmmoType@CAmmoDef@@AAE_NPBDHHHHH@Z 24003ba0 f   ammodef.obj
 0001:00002c90       ?AddAmmoType@CAmmoDef@@QAEXPBDHH000MHHH@Z 24003c90 f   ammodef.obj
 0001:00002e10       ?AddAmmoType@CAmmoDef@@QAEXPBDHHHHHMHHH@Z 24003e10 f   ammodef.obj
 0001:00002ea0       ??0CAmmoDef@@QAE@XZ        24003ea0 f   ammodef.obj
 0001:00002ec0       ??1CAmmoDef@@QAE@XZ        24003ec0 f   ammodef.obj
 0001:00002ef0       ?GetFloat@ConVar@@QBEMXZ   24003ef0 f i ammodef.obj
 0001:00002f00       ?PlrDamage@CAmmoDef@@QAEHH@Z 24003f00 f   ammodef.obj
 0001:00002f60       ?NPCDamage@CAmmoDef@@QAEHH@Z 24003f60 f   ammodef.obj
 0001:00002fc0       ?MaxCarry@CAmmoDef@@QAEHH@Z 24003fc0 f   ammodef.obj
 0001:00003020       ??0CAnimatedEntityTextureProxy@@QAE@XZ 24004020 f i animatedentitytextureproxy.obj
 0001:00003040       ?Release@CBaseAnimatedTextureProxy@@UAEXXZ 24004040 f i animatedentitytextureproxy.obj
 0001:00003050       ??_ECAnimatedEntityTextureProxy@@UAEPAXI@Z 24004050 f i animatedentitytextureproxy.obj
 0001:00003050       ??_GCAnimatedEntityTextureProxy@@UAEPAXI@Z 24004050 f i animatedentitytextureproxy.obj
 0001:000030b0       ?GetAnimationStartTime@CAnimatedEntityTextureProxy@@UAEMPAX@Z 240040b0 f   animatedentitytextureproxy.obj
 0001:000030e0       ?AnimationWrapped@CAnimatedEntityTextureProxy@@UAEXPAX@Z 240040e0 f   animatedentitytextureproxy.obj
 0001:00003110       ??0CAnimatedOffsetTextureProxy@@QAE@XZ 24004110 f i animatedoffsettextureproxy.obj
 0001:00003130       ?AnimationWrapped@CBaseAnimatedTextureProxy@@MAEXPAX@Z 24004130 f i animatedoffsettextureproxy.obj
 0001:00003140       ??_ECAnimatedOffsetTextureProxy@@UAEPAXI@Z 24004140 f i animatedoffsettextureproxy.obj
 0001:00003140       ??_GCAnimatedOffsetTextureProxy@@UAEPAXI@Z 24004140 f i animatedoffsettextureproxy.obj
 0001:000031a0       ?GetAnimationStartTime@CAnimatedOffsetTextureProxy@@UAEMPAX@Z 240041a0 f   animatedoffsettextureproxy.obj
 0001:000031b0       ?OnBind@CAnimatedOffsetTextureProxy@@UAEXPAX@Z 240041b0 f   animatedoffsettextureproxy.obj
 0001:000031e0       ??0CAnimatedTextureProxy@@QAE@XZ 240041e0 f i animatedtextureproxy.obj
 0001:00003200       ??_GCAnimatedTextureProxy@@UAEPAXI@Z 24004200 f i animatedtextureproxy.obj
 0001:00003200       ??_ECAnimatedTextureProxy@@UAEPAXI@Z 24004200 f i animatedtextureproxy.obj
 0001:00003260       ?GetAnimationStartTime@CAnimatedTextureProxy@@UAEMPAX@Z 24004260 f   animatedtextureproxy.obj
 0001:00003270       ?ResetEventIndexes@@YAXPAUstudiohdr_t@@@Z 24004270 f   animation.obj
 0001:00003290       ?ResetActivityIndexes@@YAXPAUstudiohdr_t@@@Z 24004290 f   animation.obj
 0001:000032b0       ?GetSequenceFlags@@YAHPAUstudiohdr_t@@H@Z 240042b0 f   animation.obj
 0001:000032e0       ?FindTransitionSequence@@YAHPAUstudiohdr_t@@HHPAH@Z 240042e0 f   animation.obj
 0001:00003470       ?GetNumBodyGroups@@YAHPAUstudiohdr_t@@@Z 24004470 f   animation.obj
 0001:00003480       ?GetAttachmentLocalSpace@@YAXPAUstudiohdr_t@@HAAUmatrix3x4_t@@@Z 24004480 f   animation.obj
 0001:000034b0       ?GetHitboxSetCount@@YAHPAUstudiohdr_t@@@Z 240044b0 f   animation.obj
 0001:000034c0       ?Init@Vector@@QAEXMMM@Z    240044c0 f i animation.obj
 0001:000034e0       ??4Vector@@QAEAAV0@ABV0@@Z 240044e0 f i animation.obj
 0001:00003500       ??AVector@@QAEAAMH@Z       24004500 f i animation.obj
 0001:00003510       ??0QAngle@@QAE@XZ          24004510 f i animation.obj
 0001:00003520       ?pszEventName@mstudioevent_t@@QBEQADXZ 24004520 f i animation.obj
 0001:00003530       ?pszLabel@mstudioseqdesc_t@@QBEQADXZ 24004530 f i animation.obj
 0001:00003540       ?pszActivityName@mstudioseqdesc_t@@QBEQADXZ 24004540 f i animation.obj
 0001:00003550       ?pEvent@mstudioseqdesc_t@@QBEPAUmstudioevent_t@@H@Z 24004550 f i animation.obj
 0001:00003570       ?pszName@mstudiobodyparts_t@@QBEQADXZ 24004570 f i animation.obj
 0001:00003580       ?pszName@mstudiohitboxset_t@@QBEQADXZ 24004580 f i animation.obj
 0001:00003590       ?pHitboxSet@studiohdr_t@@QBEPAUmstudiohitboxset_t@@H@Z 24004590 f i animation.obj
 0001:000035b0       ?pBodypart@studiohdr_t@@QBEPAUmstudiobodyparts_t@@H@Z 240045b0 f i animation.obj
 0001:000035d0       ?GetPredictionPlayer@C_BaseEntity@@SAPAVC_BasePlayer@@XZ 240045d0 f i animation.obj
 0001:000035e0       ?ExtractBbox@@YAHPAUstudiohdr_t@@HAAVVector@@1@Z 240045e0 f   animation.obj
 0001:00003630       ?SetEventIndexForSequence@@YAXAAUmstudioseqdesc_t@@@Z 24004630 f   animation.obj
 0001:000036b0       ?GetEventIndexForSequence@@YAPAUmstudioevent_t@@AAUmstudioseqdesc_t@@@Z 240046b0 f   animation.obj
 0001:000036d0       ?BuildAllAnimationEventIndexes@@YAXPAUstudiohdr_t@@@Z 240046d0 f   animation.obj
 0001:00003730       ?IsInPrediction@@YA_NXZ    24004730 f   animation.obj
 0001:00003740       ?GetEyePosition@@YAXPAUstudiohdr_t@@AAVVector@@@Z 24004740 f   animation.obj
 0001:00003770       ?LookupActivity@@YAHPAUstudiohdr_t@@PBD@Z 24004770 f   animation.obj
 0001:000037d0       ?GetSequenceLinearMotion@@YAXPAUstudiohdr_t@@HQBMPAVVector@@@Z 240047d0 f   animation.obj
 0001:00003890       ?GetSequenceName@@YAPBDPAUstudiohdr_t@@H@Z 24004890 f   animation.obj
 0001:000038e0       ?GetSequenceActivityName@@YAPBDPAUstudiohdr_t@@H@Z 240048e0 f   animation.obj
 0001:00003930       ?HasAnimationEventOfType@@YA_NPAUstudiohdr_t@@HH@Z 24004930 f   animation.obj
 0001:000039a0       ?GetAnimationEvent@@YAHPAUstudiohdr_t@@HPAUanimevent_t@@MMH@Z 240049a0 f   animation.obj
 0001:00003ad0       ?SetBodygroup@@YAXPAUstudiohdr_t@@AAHHH@Z 24004ad0 f   animation.obj
 0001:00003b30       ?GetBodygroup@@YAHPAUstudiohdr_t@@HH@Z 24004b30 f   animation.obj
 0001:00003b70       ?GetBodygroupName@@YAPBDPAUstudiohdr_t@@H@Z 24004b70 f   animation.obj
 0001:00003ba0       ?FindBodygroupByName@@YAHPAUstudiohdr_t@@PBD@Z 24004ba0 f   animation.obj
 0001:00003c00       ?GetBodygroupCount@@YAHPAUstudiohdr_t@@H@Z 24004c00 f   animation.obj
 0001:00003c30       ?FindHitboxSetByName@@YAHPAUstudiohdr_t@@PBD@Z 24004c30 f   animation.obj
 0001:00003c90       ?GetHitboxSetName@@YAPBDPAUstudiohdr_t@@H@Z 24004c90 f   animation.obj
 0001:00003cc0       ?SetActivityForSequence@@YAXPAUstudiohdr_t@@H@Z 24004cc0 f   animation.obj
 0001:00003d40       ?IndexModelSequences@@YAXPAUstudiohdr_t@@@Z 24004d40 f   animation.obj
 0001:00003d90       ?VerifySequenceIndex@@YAXPAUstudiohdr_t@@@Z 24004d90 f   animation.obj
 0001:00003dc0       ?GetSequenceActivity@@YAHPAUstudiohdr_t@@HPAH@Z 24004dc0 f   animation.obj
 0001:00003e10       ?SelectWeightedSequence@@YAHPAUstudiohdr_t@@HH@Z 24004e10 f   animation.obj
 0001:00003f10       ?SelectHeaviestSequence@@YAHPAUstudiohdr_t@@H@Z 24004f10 f   animation.obj
 0001:00003fb0       ?LookupSequence@@YAHPAUstudiohdr_t@@PBD@Z 24004fb0 f   animation.obj
 0001:00004030       ?GetCurrentMainSequenceActivity@CBasePlayerAnimState@@IBE?AW4Activity@@XZ 24005030 f i base_playeranimstate.obj
 0001:00004040       ??0CVProfScope@@QAE@PBDH0_NH@Z 24005040 f i base_playeranimstate.obj
 0001:00004070       ??1CVProfScope@@QAE@XZ     24005070 f i base_playeranimstate.obj
 0001:00004080       ??0IPlayerAnimState@@QAE@XZ 24005080 f i base_playeranimstate.obj
 0001:00004090       ?Init@CBasePlayerAnimState@@QAEXPAVC_BaseAnimatingOverlay@@ABVCModAnimConfig@@@Z 24005090 f   base_playeranimstate.obj
 0001:000040d0       ?Release@CBasePlayerAnimState@@UAEXXZ 240050d0 f   base_playeranimstate.obj
 0001:000040e0       ?ClearAnimationState@CBasePlayerAnimState@@UAEXXZ 240050e0 f   base_playeranimstate.obj
 0001:00004110       ?TimeSinceLastAnimationStateClear@CBasePlayerAnimState@@IBEMXZ 24005110 f   base_playeranimstate.obj
 0001:00004120       _atan2f                    24005120 f i base_playeranimstate.obj
 0001:00004130       _cosf                      24005130 f i base_playeranimstate.obj
 0001:00004140       _fabsf                     24005140 f i base_playeranimstate.obj
 0001:00004150       _fmodf                     24005150 f i base_playeranimstate.obj
 0001:00004160       _sinf                      24005160 f i base_playeranimstate.obj
 0001:00004170       ?atan2@@YAMMM@Z            24005170 f i base_playeranimstate.obj
 0001:00004180       ?ShouldBlendAimSequenceToIdle@CBasePlayerAnimState@@UAE_NXZ 24005180 f   base_playeranimstate.obj
 0001:000041b0       ?cos@@YAMM@Z               240051b0 f i base_playeranimstate.obj
 0001:000041c0       ?fabs@@YAMM@Z              240051c0 f i base_playeranimstate.obj
 0001:000041d0       ?fmod@@YAMMM@Z             240051d0 f i base_playeranimstate.obj
 0001:000041e0       ?sin@@YAMM@Z               240051e0 f i base_playeranimstate.obj
 0001:000041f0       ?GetInterpolatedGroundSpeed@CBasePlayerAnimState@@AAEMXZ 240051f0 f   base_playeranimstate.obj
 0001:00004200       ?CanThePlayerMove@CBasePlayerAnimState@@UAE_NXZ 24005200 f   base_playeranimstate.obj
 0001:00004210       ?GetOuter@CBasePlayerAnimState@@QBEPAVC_BaseAnimatingOverlay@@XZ 24005210 f   base_playeranimstate.obj
 0001:00004220       ?ConvergeAngles@CBasePlayerAnimState@@AAEHMMMMAAM@Z 24005220 f   base_playeranimstate.obj
 0001:00004320       ??0Vector2D@@QAE@XZ        24005320 f i base_playeranimstate.obj
 0001:00004330       ??0Vector2D@@QAE@MM@Z      24005330 f i base_playeranimstate.obj
 0001:00004350       ?Init@Vector2D@@QAEXMM@Z   24005350 f i base_playeranimstate.obj
 0001:00004360       ??4Vector2D@@QAEAAV0@ABV0@@Z 24005360 f i base_playeranimstate.obj
 0001:00004380       ?GetRenderAngles@CBasePlayerAnimState@@UAEABVQAngle@@XZ 24005380 f   base_playeranimstate.obj
 0001:00004390       ?GetOuterAbsVelocity@CBasePlayerAnimState@@IBEXAAVVector@@@Z 24005390 f   base_playeranimstate.obj
 0001:000043a0       ??B?$CRangeCheckedVar@H$0?0$0DOI@$0A@@@QBEABHXZ 240053a0 f i base_playeranimstate.obj
 0001:000043b0       ??B?$CRangeCheckedVar@M$0?4$04$0A@@@QBEABMXZ 240053b0 f i base_playeranimstate.obj
 0001:000043c0       ?InvalidIndex@?$CUtlFixedLinkedList@UCInterpolatedVarEntry@?$CInterpolatedVarArray@M$00@@@@SAHXZ 240053c0 f i base_playeranimstate.obj
 0001:000043d0       ??0Vector@@QAE@XZ          240053d0 f i base_playeranimstate.obj
 0001:000043e0       ??0Vector@@QAE@MMM@Z       240053e0 f i base_playeranimstate.obj
 0001:00004400       ?VectorAdd@@YAXABVVector@@0AAV1@@Z 24005400 f i base_playeranimstate.obj
 0001:00004430       ?VectorSubtract@@YAXABVVector@@0AAV1@@Z 24005430 f i base_playeranimstate.obj
 0001:00004460       ?VectorMultiply@@YAXABVVector@@MAAV1@@Z 24005460 f i base_playeranimstate.obj
 0001:00004490       ?VectorDivide@@YAXABVVector@@MAAV1@@Z 24005490 f i base_playeranimstate.obj
 0001:000044c0       ?DotProduct@@YAMABVVector@@0@Z 240054c0 f i base_playeranimstate.obj
 0001:000044e0       ?Dot@Vector@@QBEMABV1@@Z   240054e0 f i base_playeranimstate.obj
 0001:00004500       ??HVector@@QBE?AV0@ABV0@@Z 24005500 f i base_playeranimstate.obj
 0001:00004550       ??GVector@@QBE?AV0@ABV0@@Z 24005550 f i base_playeranimstate.obj
 0001:000045a0       ??DVector@@QBE?AV0@M@Z     240055a0 f i base_playeranimstate.obj
 0001:000045f0       ??KVector@@QBE?AV0@M@Z     240055f0 f i base_playeranimstate.obj
 0001:00004640       ?Length2D@Vector@@QBEMXZ   24005640 f i base_playeranimstate.obj
 0001:00004660       ??0QAngle@@QAE@MMM@Z       24005660 f i base_playeranimstate.obj
 0001:00004680       ?Init@QAngle@@QAEXMMM@Z    24005680 f i base_playeranimstate.obj
 0001:000046a0       ??AQAngle@@QAEAAMH@Z       240056a0 f i base_playeranimstate.obj
 0001:000046b0       ?Count@?$CUtlVector@VC_AnimationLayer@@V?$CUtlMemory@VC_AnimationLayer@@@@@@QBEHXZ 240056b0 f i base_playeranimstate.obj
 0001:000046c0       ??0IInterpolatedVar@@QAE@XZ 240056c0 f i base_playeranimstate.obj
 0001:000046d0       ?GetInt@ConVar@@QBEHXZ     240056d0 f i base_playeranimstate.obj
 0001:000046e0       ?ConstructList@?$CUtlFixedLinkedList@UCInterpolatedVarEntry@?$CInterpolatedVarArray@M$00@@@@IAEXXZ 240056e0 f i base_playeranimstate.obj
 0001:00004700       ??A?$CUtlFixedMemory@UListElem_t@?$CUtlFixedLinkedList@UCInterpolatedVarEntry@?$CInterpolatedVarArray@M$00@@@@@@QBEABUListElem_t@?$CUtlFixedLinkedList@UCInterpolatedVarEntry@?$CInterpolatedVarArray@M$00@@@@H@Z 24005700 f i base_playeranimstate.obj
 0001:00004710       ??A?$CUtlFixedMemory@UListElem_t@?$CUtlFixedLinkedList@UCInterpolatedVarEntry@?$CInterpolatedVarArray@M$00@@@@@@QAEAAUListElem_t@?$CUtlFixedLinkedList@UCInterpolatedVarEntry@?$CInterpolatedVarArray@M$00@@@@H@Z 24005710 f i base_playeranimstate.obj
 0001:00004720       ??$Destruct@UCInterpolatedVarEntry@?$CInterpolatedVarArray@M$00@@@@YAXPAUCInterpolatedVarEntry@?$CInterpolatedVarArray@M$00@@@Z 24005720 f i base_playeranimstate.obj
 0001:00004730       ??0?$CUtlMemory@VC_AnimationLayer@@@@QAE@HH@Z 24005730 f i base_playeranimstate.obj
 0001:00004760       ?Base@?$CUtlMemory@VC_AnimationLayer@@@@QAEPAVC_AnimationLayer@@XZ 24005760 f i base_playeranimstate.obj
 0001:00004770       ??$LoopingLerp@M@@YAMMMM@Z 24005770 f i base_playeranimstate.obj
 0001:00004800       ?Lerp_Clamp@@YAXM@Z        24005800 f i base_playeranimstate.obj
 0001:00004810       ?SetOrder@C_AnimationLayer@@QAEXH@Z 24005810 f i base_playeranimstate.obj
 0001:00004820       ?IsExtrapolationAllowed@CInterpolationContext@@SA_NXZ 24005820 f i base_playeranimstate.obj
 0001:00004830       ?GetLastTimeStamp@CInterpolationContext@@SAMXZ 24005830 f i base_playeranimstate.obj
 0001:00004840       ?Element@?$CUtlFixedLinkedList@UCInterpolatedVarEntry@?$CInterpolatedVarArray@M$00@@@@QAEAAUCInterpolatedVarEntry@?$CInterpolatedVarArray@M$00@@H@Z 24005840 f i base_playeranimstate.obj
 0001:00004850       ?IsValidIndex@?$CUtlFixedLinkedList@UCInterpolatedVarEntry@?$CInterpolatedVarArray@M$00@@@@QBE_NH@Z 24005850 f i base_playeranimstate.obj
 0001:00004870       ?Purge@?$CUtlFixedMemory@UListElem_t@?$CUtlFixedLinkedList@UCInterpolatedVarEntry@?$CInterpolatedVarArray@M$00@@@@@@QAEXXZ 24005870 f i base_playeranimstate.obj
 0001:000048b0       ?FirstElement@?$CUtlFixedMemory@UListElem_t@?$CUtlFixedLinkedList@UCInterpolatedVarEntry@?$CInterpolatedVarArray@M$00@@@@@@QAEHXZ 240058b0 f i base_playeranimstate.obj
 0001:000048c0       ?NextElement@?$CUtlFixedMemory@UListElem_t@?$CUtlFixedLinkedList@UCInterpolatedVarEntry@?$CInterpolatedVarArray@M$00@@@@@@QAEHH@Z 240058c0 f i base_playeranimstate.obj
 0001:00004910       ?SetupFreeList@?$CUtlFixedMemory@UListElem_t@?$CUtlFixedLinkedList@UCInterpolatedVarEntry@?$CInterpolatedVarArray@M$00@@@@@@AAEXPAUBlockHeader_t@1@@Z 24005910 f i base_playeranimstate.obj
 0001:00004940       ??$Construct@UCInterpolatedVarEntry@?$CInterpolatedVarArray@M$00@@@@YAXPAUCInterpolatedVarEntry@?$CInterpolatedVarArray@M$00@@@Z 24005940 f i base_playeranimstate.obj
 0001:00004950       ?InvalidIndex@?$CUtlRBTree@UDictElement_t@?$CUtlDict@HH@@H@@SAHXZ 24005950 f i base_playeranimstate.obj
 0001:00004960       ??0?$CUtlMemory@UNode_t@?$CUtlRBTree@UDictElement_t@?$CUtlDict@HH@@H@@@@QAE@HH@Z 24005960 f i base_playeranimstate.obj
 0001:000049a0       ?Base@?$CUtlMemory@UNode_t@?$CUtlRBTree@UDictElement_t@?$CUtlDict@HH@@H@@@@QAEPAUNode_t@?$CUtlRBTree@UDictElement_t@?$CUtlDict@HH@@H@@XZ 240059a0 f i base_playeranimstate.obj
 0001:000049b0       ??$Destruct@VC_AnimationLayer@@@@YAXPAVC_AnimationLayer@@@Z 240059b0 f i base_playeranimstate.obj
 0001:000049c0       ?IsExternallyAllocated@?$CUtlMemory@VC_AnimationLayer@@@@QBE_NXZ 240059c0 f i base_playeranimstate.obj
 0001:000049d0       ??A?$CUtlMemory@UNode_t@?$CUtlRBTree@UDictElement_t@?$CUtlDict@HH@@H@@@@QBEABUNode_t@?$CUtlRBTree@UDictElement_t@?$CUtlDict@HH@@H@@H@Z 240059d0 f i base_playeranimstate.obj
 0001:000049e0       ??A?$CUtlMemory@UNode_t@?$CUtlRBTree@UDictElement_t@?$CUtlDict@HH@@H@@@@QAEAAUNode_t@?$CUtlRBTree@UDictElement_t@?$CUtlDict@HH@@H@@H@Z 240059e0 f i base_playeranimstate.obj
 0001:000049f0       ?Grow@?$CUtlFixedMemory@UListElem_t@?$CUtlFixedLinkedList@UCInterpolatedVarEntry@?$CInterpolatedVarArray@M$00@@@@@@AAEXH@Z 240059f0 f i base_playeranimstate.obj
 0001:00004a80       ?Links@?$CUtlRBTree@UDictElement_t@?$CUtlDict@HH@@H@@IAEAAULinks_t@1@H@Z 24005a80 f i base_playeranimstate.obj
 0001:00004a90       ?NumAllocated@?$CUtlMemory@UNode_t@?$CUtlRBTree@UDictElement_t@?$CUtlDict@HH@@H@@@@QBEHXZ 24005a90 f i base_playeranimstate.obj
 0001:00004aa0       ?IsExternallyAllocated@?$CUtlMemory@UNode_t@?$CUtlRBTree@UDictElement_t@?$CUtlDict@HH@@H@@@@QBE_NXZ 24005aa0 f i base_playeranimstate.obj
 0001:00004ab0       ?IsRoot@?$CUtlRBTree@UDictElement_t@?$CUtlDict@HH@@H@@QBE_NH@Z 24005ab0 f i base_playeranimstate.obj
 0001:00004ac0       ?SetColor@?$CUtlRBTree@UDictElement_t@?$CUtlDict@HH@@H@@IAEXHW4NodeColor_t@1@@Z 24005ac0 f i base_playeranimstate.obj
 0001:00004ae0       ?SetParent@?$CUtlRBTree@UDictElement_t@?$CUtlDict@HH@@H@@IAEXHH@Z 24005ae0 f i base_playeranimstate.obj
 0001:00004b00       ?SetLeftChild@?$CUtlRBTree@UDictElement_t@?$CUtlDict@HH@@H@@IAEXHH@Z 24005b00 f i base_playeranimstate.obj
 0001:00004b20       ?SetRightChild@?$CUtlRBTree@UDictElement_t@?$CUtlDict@HH@@H@@IAEXHH@Z 24005b20 f i base_playeranimstate.obj
 0001:00004b40       ?ResetSequence@C_BaseAnimating@@QAEXH@Z 24005b40 f i base_playeranimstate.obj
 0001:00004b60       ?GetPlaybackRate@C_BaseAnimating@@QAEMXZ 24005b60 f i base_playeranimstate.obj
 0001:00004b70       ?SetPlaybackRate@C_BaseAnimating@@QAEXM@Z 24005b70 f i base_playeranimstate.obj
 0001:00004b80       ?GetCycle@C_BaseAnimating@@QBEMXZ 24005b80 f i base_playeranimstate.obj
 0001:00004b90       ?GetSequence@C_BaseAnimating@@QAEHXZ 24005b90 f i base_playeranimstate.obj
 0001:00004ba0       ??0CUtlSymbol@@QAE@XZ      24005ba0 f i base_playeranimstate.obj
 0001:00004bb0       ??0CUtlSymbol@@QAE@ABV0@@Z 24005bb0 f i base_playeranimstate.obj
 0001:00004bc0       ??4CUtlSymbol@@QAEAAV0@ABV0@@Z 24005bc0 f i base_playeranimstate.obj
 0001:00004bd0       ??BCUtlSymbol@@QBE?BGXZ    24005bd0 f i base_playeranimstate.obj
 0001:00004be0       ??B?$CRangeCheckedVar@M$0?1$01$0A@@@QBEABMXZ 24005be0 f i base_playeranimstate.obj
 0001:00004bf0       ??$Lerp_Hermite@M@@YAMMABM00@Z 24005bf0 f i base_playeranimstate.obj
 0001:00004c50       ??$Lerp@M@@YAMMABM0@Z      24005c50 f i base_playeranimstate.obj
 0001:00004c70       ??$RangeCheck@H@@YAXABHHH@Z 24005c70 f i base_playeranimstate.obj
 0001:00004c80       ??$RangeCheck@M@@YAXABMHH@Z 24005c80 f i base_playeranimstate.obj
 0001:00004c90       ?ShouldUpdateAnimState@CBasePlayerAnimState@@UAE_NXZ 24005c90 f   base_playeranimstate.obj
 0001:00004ca0       ?SetOuterPoseParameter@CBasePlayerAnimState@@AAEXHM@Z 24005ca0 f   base_playeranimstate.obj
 0001:00004cc0       ?ClearAnimationLayers@CBasePlayerAnimState@@UAEXXZ 24005cc0 f   base_playeranimstate.obj
 0001:00004d10       ?RestartMainSequence@CBasePlayerAnimState@@QAEXXZ 24005d10 f   base_playeranimstate.obj
 0001:00004d30       ?OptimizeLayerWeights@CBasePlayerAnimState@@AAEXHH@Z 24005d30 f   base_playeranimstate.obj
 0001:00004da0       ?CalcMovementPlaybackRate@CBasePlayerAnimState@@UAEMPA_N@Z 24005da0 f   base_playeranimstate.obj
 0001:00004e80       ?ComputePlaybackRate@CBasePlayerAnimState@@AAEXXZ 24005e80 f   base_playeranimstate.obj
 0001:00004ed0       ?EstimateYaw@CBasePlayerAnimState@@AAEXXZ 24005ed0 f   base_playeranimstate.obj
 0001:00004f40       ?ComputePoseParam_BodyPitch@CBasePlayerAnimState@@AAEXXZ 24005f40 f   base_playeranimstate.obj
 0001:00004fd0       ?ComputePoseParam_BodyYaw@CBasePlayerAnimState@@AAEXXZ 24005fd0 f   base_playeranimstate.obj
 0001:000051d0       ?SetOuterBodyYaw@CBasePlayerAnimState@@UAEMM@Z 240061d0 f   base_playeranimstate.obj
 0001:00005210       ?GetOuterXYSpeed@CBasePlayerAnimState@@IBEMXZ 24006210 f   base_playeranimstate.obj
 0001:00005240       ?AnimStateLog@@YAXPBDZZ    24006240 f   base_playeranimstate.obj
 0001:00005300       ?AnimStatePrintf@@YAXHPBDZZ 24006300 f   base_playeranimstate.obj
 0001:00005360       ?DebugShowAnimState@CBasePlayerAnimState@@UAEXH@Z 24006360 f   base_playeranimstate.obj
 0001:00005820       ??A?$CUtlFixedLinkedList@UCInterpolatedVarEntry@?$CInterpolatedVarArray@M$00@@@@QAEAAUCInterpolatedVarEntry@?$CInterpolatedVarArray@M$00@@H@Z 24006820 f i base_playeranimstate.obj
 0001:00005830       ??0DictElement_t@?$CUtlDict@HH@@QAE@XZ 24006830 f i base_playeranimstate.obj
 0001:00005840       ?Base@?$CUtlVector@VC_AnimationLayer@@V?$CUtlMemory@VC_AnimationLayer@@@@@@QAEPAVC_AnimationLayer@@XZ 24006840 f i base_playeranimstate.obj
 0001:00005850       ?InternalElement@?$CUtlFixedLinkedList@UCInterpolatedVarEntry@?$CInterpolatedVarArray@M$00@@@@IAEAAUListElem_t@1@H@Z 24006850 f i base_playeranimstate.obj
 0001:00005860       ?InternalElement@?$CUtlFixedLinkedList@UCInterpolatedVarEntry@?$CInterpolatedVarArray@M$00@@@@IBEABUListElem_t@1@H@Z 24006860 f i base_playeranimstate.obj
 0001:00005870       ?GetBool@ConVar@@QBE_NXZ   24006870 f i base_playeranimstate.obj
 0001:00005880       ?_Interpolate@?$CInterpolatedVarArray@M$00@@IAEXPAMMPAUCInterpolatedVarEntry@1@1@Z 24006880 f i base_playeranimstate.obj
 0001:00005910       ??0?$CUtlFixedMemory@UListElem_t@?$CUtlFixedLinkedList@UCInterpolatedVarEntry@?$CInterpolatedVarArray@M$00@@@@@@QAE@HH@Z 24006910 f i base_playeranimstate.obj
 0001:00005990       ??1?$CUtlFixedMemory@UListElem_t@?$CUtlFixedLinkedList@UCInterpolatedVarEntry@?$CInterpolatedVarArray@M$00@@@@@@QAE@XZ 24006990 f i base_playeranimstate.obj
 0001:000059a0       ?ResetDbgInfo@?$CUtlVector@VC_AnimationLayer@@V?$CUtlMemory@VC_AnimationLayer@@@@@@IAEXXZ 240069a0 f i base_playeranimstate.obj
 0001:000059b0       ?DictLessFunc@?$CUtlDict@HH@@KA_NABUDictElement_t@1@0@Z 240069b0 f i base_playeranimstate.obj
 0001:000059d0       ?ResetDbgInfo@?$CUtlRBTree@UDictElement_t@?$CUtlDict@HH@@H@@IAEXXZ 240069d0 f i base_playeranimstate.obj
 0001:000059e0       ??$LoopingLerp_Hermite@M@@YAMMMMM@Z 240069e0 f i base_playeranimstate.obj
 0001:00005b00       ?ExtrapolateInterpolatedVarType@@YAMABM0MM@Z 24006b00 f i base_playeranimstate.obj
 0001:00005b20       ?RemoveAll@?$CUtlFixedMemory@UListElem_t@?$CUtlFixedLinkedList@UCInterpolatedVarEntry@?$CInterpolatedVarArray@M$00@@@@@@QAEXXZ 24006b20 f i base_playeranimstate.obj
 0001:00005b60       ?Purge@?$CUtlMemory@VC_AnimationLayer@@@@QAEXXZ 24006b60 f i base_playeranimstate.obj
 0001:00005b90       ?Element@?$CUtlRBTree@UDictElement_t@?$CUtlDict@HH@@H@@QBEABUDictElement_t@?$CUtlDict@HH@@H@Z 24006b90 f i base_playeranimstate.obj
 0001:00005bb0       ?Element@?$CUtlRBTree@UDictElement_t@?$CUtlDict@HH@@H@@QAEAAUDictElement_t@?$CUtlDict@HH@@H@Z 24006bb0 f i base_playeranimstate.obj
 0001:00005bd0       ??0DictElement_t@?$CUtlDict@HH@@QAE@ABU01@@Z 24006bd0 f i base_playeranimstate.obj
 0001:00005bf0       ?TimeFixup2_Hermite@?$CInterpolatedVarArray@M$00@@IAEXAAUCInterpolatedVarEntry@1@AAPAU21@1M@Z 24006bf0 f i base_playeranimstate.obj
 0001:00005c90       ?Previous@?$CUtlFixedLinkedList@UCInterpolatedVarEntry@?$CInterpolatedVarArray@M$00@@@@QBEHH@Z 24006c90 f i base_playeranimstate.obj
 0001:00005ca0       ?Alloc@?$CUtlFixedMemory@UListElem_t@?$CUtlFixedLinkedList@UCInterpolatedVarEntry@?$CInterpolatedVarArray@M$00@@@@@@QAEHXZ 24006ca0 f i base_playeranimstate.obj
 0001:00005cc0       ?Element@?$CUtlVector@VC_AnimationLayer@@V?$CUtlMemory@VC_AnimationLayer@@@@@@QAEAAVC_AnimationLayer@@H@Z 24006cc0 f i base_playeranimstate.obj
 0001:00005cd0       ?Links@?$CUtlRBTree@UDictElement_t@?$CUtlDict@HH@@H@@IBEABULinks_t@1@H@Z 24006cd0 f i base_playeranimstate.obj
 0001:00005d20       ?Purge@?$CUtlMemory@UNode_t@?$CUtlRBTree@UDictElement_t@?$CUtlDict@HH@@H@@@@QAEXXZ 24006d20 f i base_playeranimstate.obj
 0001:00005d50       ?Grow@?$CUtlMemory@UNode_t@?$CUtlRBTree@UDictElement_t@?$CUtlDict@HH@@H@@@@QAEXH@Z 24006d50 f i base_playeranimstate.obj
 0001:00005dd0       ??$Construct@UDictElement_t@?$CUtlDict@HH@@@@YAXPAUDictElement_t@?$CUtlDict@HH@@@Z 24006dd0 f i base_playeranimstate.obj
 0001:00005de0       ?Parent@?$CUtlRBTree@UDictElement_t@?$CUtlDict@HH@@H@@QBEHH@Z 24006de0 f i base_playeranimstate.obj
 0001:00005e30       ?IsRed@?$CUtlRBTree@UDictElement_t@?$CUtlDict@HH@@H@@IBE_NH@Z 24006e30 f i base_playeranimstate.obj
 0001:00005e90       ?Color@?$CUtlRBTree@UDictElement_t@?$CUtlDict@HH@@H@@IBE?AW4NodeColor_t@1@H@Z 24006e90 f i base_playeranimstate.obj
 0001:00005ee0       ??4?$CRangeCheckedVar@H$0?0$0DOI@$0A@@@QAEAAV0@ABH@Z 24006ee0 f i base_playeranimstate.obj
 0001:00005ef0       ??4?$CRangeCheckedVar@M$0?1$01$0A@@@QAEAAV0@ABM@Z 24006ef0 f i base_playeranimstate.obj
 0001:00005f00       ??4?$CRangeCheckedVar@M$0?4$04$0A@@@QAEAAV0@ABM@Z 24006f00 f i base_playeranimstate.obj
 0001:00005f10       ??4?$CRangeCheckedVar@M$0?DC@$0DC@$00@@QAEAAV0@ABM@Z 24006f10 f i base_playeranimstate.obj
 0001:00005f20       ?BodyYawTranslateActivity@CBasePlayerAnimState@@AAE?AW4Activity@@W42@@Z 24006f20 f   base_playeranimstate.obj
 0001:00005f60       ??Y?$CRangeCheckedVar@M$0?1$01$0A@@@QAEAAV0@ABM@Z 24006f60 f i base_playeranimstate.obj
 0001:00005f70       ??X?$CRangeCheckedVar@M$0?4$04$0A@@@QAEAAV0@ABM@Z 24006f70 f i base_playeranimstate.obj
 0001:00005f80       ??0?$CUtlFixedLinkedList@UCInterpolatedVarEntry@?$CInterpolatedVarArray@M$00@@@@QAE@HH@Z 24006f80 f i base_playeranimstate.obj
 0001:00005fb0       ?Next@?$CUtlFixedLinkedList@UCInterpolatedVarEntry@?$CInterpolatedVarArray@M$00@@@@QBEHH@Z 24006fb0 f i base_playeranimstate.obj
 0001:00005fc0       ??A?$CUtlVector@VC_AnimationLayer@@V?$CUtlMemory@VC_AnimationLayer@@@@@@QAEAAVC_AnimationLayer@@H@Z 24006fc0 f i base_playeranimstate.obj
 0001:00005fd0       ?_Extrapolate@?$CInterpolatedVarArray@M$00@@IAEXPAMPAUCInterpolatedVarEntry@1@1MM@Z 24006fd0 f i base_playeranimstate.obj
 0001:00006080       ?RemoveAll@?$CUtlFixedLinkedList@UCInterpolatedVarEntry@?$CInterpolatedVarArray@M$00@@@@QAEXXZ 24007080 f i base_playeranimstate.obj
 0001:000060b0       ??1?$CUtlMemory@VC_AnimationLayer@@@@QAE@XZ 240070b0 f i base_playeranimstate.obj
 0001:000060e0       ??A?$CUtlRBTree@UDictElement_t@?$CUtlDict@HH@@H@@QAEAAUDictElement_t@?$CUtlDict@HH@@H@Z 240070e0 f i base_playeranimstate.obj
 0001:00006100       ?TimeFixup_Hermite@?$CInterpolatedVarArray@M$00@@IAEXAAUCInterpolatedVarEntry@1@AAPAU21@11@Z 24007100 f i base_playeranimstate.obj
 0001:00006130       ?IsInList@?$CUtlFixedLinkedList@UCInterpolatedVarEntry@?$CInterpolatedVarArray@M$00@@@@QBE_NH@Z 24007130 f i base_playeranimstate.obj
 0001:00006150       ?AllocInternal@?$CUtlFixedLinkedList@UCInterpolatedVarEntry@?$CInterpolatedVarArray@M$00@@@@IAEH_N@Z 24007150 f i base_playeranimstate.obj
 0001:000061c0       ?RemoveAll@?$CUtlVector@VC_AnimationLayer@@V?$CUtlMemory@VC_AnimationLayer@@@@@@QAEXXZ 240071c0 f i base_playeranimstate.obj
 0001:000061d0       ?LeftChild@?$CUtlRBTree@UDictElement_t@?$CUtlDict@HH@@H@@QBEHH@Z 240071d0 f i base_playeranimstate.obj
 0001:00006220       ?RightChild@?$CUtlRBTree@UDictElement_t@?$CUtlDict@HH@@H@@QBEHH@Z 24007220 f i base_playeranimstate.obj
 0001:00006270       ?FindInsertionPosition@?$CUtlRBTree@UDictElement_t@?$CUtlDict@HH@@H@@IAEXABUDictElement_t@?$CUtlDict@HH@@AAHAA_N@Z 24007270 f i base_playeranimstate.obj
 0001:00006360       ??1?$CUtlMemory@UNode_t@?$CUtlRBTree@UDictElement_t@?$CUtlDict@HH@@H@@@@QAE@XZ 24007360 f i base_playeranimstate.obj
 0001:00006390       ??$CopyConstruct@UDictElement_t@?$CUtlDict@HH@@@@YAXPAUDictElement_t@?$CUtlDict@HH@@ABU01@@Z 24007390 f i base_playeranimstate.obj
 0001:000063b0       ?NewNode@?$CUtlRBTree@UDictElement_t@?$CUtlDict@HH@@H@@QAEHXZ 240073b0 f i base_playeranimstate.obj
 0001:00006410       ?IsLeftChild@?$CUtlRBTree@UDictElement_t@?$CUtlDict@HH@@H@@QBE_NH@Z 24007410 f i base_playeranimstate.obj
 0001:00006480       ?IsRightChild@?$CUtlRBTree@UDictElement_t@?$CUtlDict@HH@@H@@QBE_NH@Z 24007480 f i base_playeranimstate.obj
 0001:000064b0       ?RotateLeft@?$CUtlRBTree@UDictElement_t@?$CUtlDict@HH@@H@@IAEXH@Z 240074b0 f i base_playeranimstate.obj
 0001:000065e0       ?RotateRight@?$CUtlRBTree@UDictElement_t@?$CUtlDict@HH@@H@@IAEXH@Z 240075e0 f i base_playeranimstate.obj
 0001:000066e0       ?UpdateAimSequenceLayers@CBasePlayerAnimState@@AAEXMH_NPAVCSequenceTransitioner@@M@Z 240076e0 f   base_playeranimstate.obj
 0001:000067f0       ?ComputeAimSequence@CBasePlayerAnimState@@AAEXXZ 240077f0 f   base_playeranimstate.obj
 0001:00006870       ?ComputePoseParam_MoveYaw@CBasePlayerAnimState@@AAEXXZ 24007870 f   base_playeranimstate.obj
 0001:00006ae0       ??1?$CUtlFixedLinkedList@UCInterpolatedVarEntry@?$CInterpolatedVarArray@M$00@@@@QAE@XZ 24007ae0 f i base_playeranimstate.obj
 0001:00006b10       ??0?$CUtlVector@VC_AnimationLayer@@V?$CUtlMemory@VC_AnimationLayer@@@@@@QAE@HH@Z 24007b10 f i base_playeranimstate.obj
 0001:00006b50       ?_Interpolate_Hermite@?$CInterpolatedVarArray@M$00@@IAEXPAMMPAUCInterpolatedVarEntry@1@11_N@Z 24007b50 f i base_playeranimstate.obj
 0001:00006c60       ?Alloc@?$CUtlFixedLinkedList@UCInterpolatedVarEntry@?$CInterpolatedVarArray@M$00@@@@QAEH_N@Z 24007c60 f i base_playeranimstate.obj
 0001:00006c70       ?Unlink@?$CUtlFixedLinkedList@UCInterpolatedVarEntry@?$CInterpolatedVarArray@M$00@@@@QAEXH@Z 24007c70 f i base_playeranimstate.obj
 0001:00006cd0       ?Purge@?$CUtlVector@VC_AnimationLayer@@V?$CUtlMemory@VC_AnimationLayer@@@@@@QAEXXZ 24007cd0 f i base_playeranimstate.obj
 0001:00006d10       ??0?$CUtlRBTree@UDictElement_t@?$CUtlDict@HH@@H@@QAE@HHP6A_NABUDictElement_t@?$CUtlDict@HH@@0@Z@Z 24007d10 f i base_playeranimstate.obj
 0001:00006d70       ??1?$CUtlRBTree@UDictElement_t@?$CUtlDict@HH@@H@@QAE@XZ 24007d70 f i base_playeranimstate.obj
 0001:00006da0       ?Find@?$CUtlRBTree@UDictElement_t@?$CUtlDict@HH@@H@@QBEHABUDictElement_t@?$CUtlDict@HH@@@Z 24007da0 f i base_playeranimstate.obj
 0001:00006e90       ?InsertRebalance@?$CUtlRBTree@UDictElement_t@?$CUtlDict@HH@@H@@IAEXH@Z 24007e90 f i base_playeranimstate.obj
 0001:000073c0       ?Update@CBasePlayerAnimState@@UAEXMM@Z 240083c0 f   base_playeranimstate.obj
 0001:000074e0       ?Free@?$CUtlFixedLinkedList@UCInterpolatedVarEntry@?$CInterpolatedVarArray@M$00@@@@QAEXH@Z 240084e0 f i base_playeranimstate.obj
 0001:00007500       ??1?$CUtlVector@VC_AnimationLayer@@V?$CUtlMemory@VC_AnimationLayer@@@@@@QAE@XZ 24008500 f i base_playeranimstate.obj
 0001:00007560       ??0?$CUtlDict@HH@@QAE@_NHH@Z 24008560 f i base_playeranimstate.obj
 0001:00007590       ??1?$CUtlDict@HH@@QAE@XZ   24008590 f i base_playeranimstate.obj
 0001:000075d0       ?Find@?$CUtlDict@HH@@QBEHPBD@Z 240085d0 f i base_playeranimstate.obj
 0001:00007610       ?LinkBefore@?$CUtlFixedLinkedList@UCInterpolatedVarEntry@?$CInterpolatedVarArray@M$00@@@@QAEXHH@Z 24008610 f i base_playeranimstate.obj
 0001:00007660       ?LinkAfter@?$CUtlFixedLinkedList@UCInterpolatedVarEntry@?$CInterpolatedVarArray@M$00@@@@QAEXHH@Z 24008660 f i base_playeranimstate.obj
 0001:000076c0       ?LinkToParent@?$CUtlRBTree@UDictElement_t@?$CUtlDict@HH@@H@@IAEXHH_N@Z 240086c0 f i base_playeranimstate.obj
 0001:00007730       ??0CSequenceTransitioner@@QAE@XZ 24008730 f i base_playeranimstate.obj
 0001:00007750       ??1CSequenceTransitioner@@QAE@XZ 24008750 f i base_playeranimstate.obj
 0001:00007760       ?VarHistory@?$CInterpolatedVarArray@M$00@@KAAAV?$CUtlFixedLinkedList@UCInterpolatedVarEntry@?$CInterpolatedVarArray@M$00@@@@XZ 24008760 f i base_playeranimstate.obj
 0001:000077c0       ?ClearHistory@?$CInterpolatedVarArray@M$00@@QAEXXZ 240087c0 f i base_playeranimstate.obj
 0001:00007940       ?AddToHead@?$CInterpolatedVarArray@M$00@@QAEXMPBM_N@Z 24008940 f i base_playeranimstate.obj
 0001:00007d80       ??0?$CInterpolatedVarArray@M$00@@QAE@PBD@Z 24008d80 f i base_playeranimstate.obj
 0001:00007dc0       ?Setup@?$CInterpolatedVarArray@M$00@@UAEXPAXH@Z 24008dc0 f i base_playeranimstate.obj
 0001:00007de0       ?SetInterpolationAmount@?$CInterpolatedVarArray@M$00@@UAEXM@Z 24008de0 f i base_playeranimstate.obj
 0001:00007df0       ?GetType@?$CInterpolatedVarArray@M$00@@UBEHXZ 24008df0 f i base_playeranimstate.obj
 0001:00007e00       ?RestoreToLastNetworked@?$CInterpolatedVarArray@M$00@@UAEXXZ 24008e00 f i base_playeranimstate.obj
 0001:00007e10       ?IsValidIndex@?$CInterpolatedVarArray@M$00@@QAE_NH@Z 24008e10 f i base_playeranimstate.obj
 0001:00007e40       ?GetInterpolationInfo@?$CInterpolatedVarArray@M$00@@IAE_NPAVCInterpolationInfo@1@MM@Z 24008e40 f i base_playeranimstate.obj
 0001:000080a0       ?RemoveOldEntries@?$CInterpolatedVarArray@M$00@@IAEXM@Z 240090a0 f i base_playeranimstate.obj
 0001:00008230       ?GetNext@?$CInterpolatedVarArray@M$00@@QAEHH@Z 24009230 f i base_playeranimstate.obj
 0001:00008240       ?InsertAt@?$CUtlRBTree@UDictElement_t@?$CUtlDict@HH@@H@@IAEHH_N@Z 24009240 f i base_playeranimstate.obj
 0001:00008270       ??1?$CInterpolatedVarArray@M$00@@UAE@XZ 24009270 f i base_playeranimstate.obj
 0001:00008280       ?Reset@?$CInterpolatedVarArray@M$00@@UAEXXZ 24009280 f i base_playeranimstate.obj
 0001:000082e0       ??_G?$CInterpolatedVarArray@M$00@@UAEPAXI@Z 240092e0 f i base_playeranimstate.obj
 0001:000082e0       ??_E?$CInterpolatedVarArray@M$00@@UAEPAXI@Z 240092e0 f i base_playeranimstate.obj
 0001:00008310       ??1?$CInterpolatedVar@M@@UAE@XZ 24009310 f i base_playeranimstate.obj
 0001:00008320       ??1CBasePlayerAnimState@@UAE@XZ 24009320 f   base_playeranimstate.obj
 0001:00008370       ?Release@CBasePlayerAnimState@@$4PPPPPPPM@A@AEXXZ 24009370 f i base_playeranimstate.obj
 0001:00008380       ?ClearAnimationState@CBasePlayerAnimState@@$4PPPPPPPM@A@AEXXZ 24009380 f i base_playeranimstate.obj
 0001:00008390       ?GetRenderAngles@CBasePlayerAnimState@@$4PPPPPPPM@A@AEABVQAngle@@XZ 24009390 f i base_playeranimstate.obj
 0001:000083a0       ?Update@CBasePlayerAnimState@@$4PPPPPPPM@A@AEXMM@Z 240093a0 f i base_playeranimstate.obj
 0001:000083b0       ?NoteChanged@?$CInterpolatedVarArray@M$00@@QAEXMM@Z 240093b0 f i base_playeranimstate.obj
 0001:00008400       ??0?$CInterpolatedVar@M@@QAE@PBD@Z 24009400 f i base_playeranimstate.obj
 0001:00008450       ??_G?$CInterpolatedVar@M@@UAEPAXI@Z 24009450 f i base_playeranimstate.obj
 0001:00008450       ??_E?$CInterpolatedVar@M@@UAEPAXI@Z 24009450 f i base_playeranimstate.obj
 0001:00008480       ?SafeNext@?$CInterpolatedVarArray@M$00@@IAEHH@Z 24009480 f i base_playeranimstate.obj
 0001:000084b0       ?Insert@?$CUtlRBTree@UDictElement_t@?$CUtlDict@HH@@H@@QAEHABUDictElement_t@?$CUtlDict@HH@@@Z 240094b0 f i base_playeranimstate.obj
 0001:00008510       ?NoteChanged@?$CInterpolatedVarArray@M$00@@UAEXM@Z 24009510 f i base_playeranimstate.obj
 0001:00008560       ?Copy@?$CInterpolatedVarArray@M$00@@UAEXPAVIInterpolatedVar@@@Z 24009560 f i base_playeranimstate.obj
 0001:00008940       ?InsertBefore@?$CUtlFixedLinkedList@UCInterpolatedVarEntry@?$CInterpolatedVarArray@M$00@@@@QAEHHABUCInterpolatedVarEntry@?$CInterpolatedVarArray@M$00@@@Z 24009940 f i base_playeranimstate.obj
 0001:000089e0       ??0CBasePlayerAnimState@@QAE@XZ 240099e0 f   base_playeranimstate.obj
 0001:00008b00       ??_GCBasePlayerAnimState@@UAEPAXI@Z 24009b00 f i base_playeranimstate.obj
 0001:00008b00       ??_ECBasePlayerAnimState@@UAEPAXI@Z 24009b00 f i base_playeranimstate.obj
 0001:00008b60       ?ComputeMainSequence@CBasePlayerAnimState@@AAEXXZ 24009b60 f   base_playeranimstate.obj
 0001:00008c10       ?Insert@?$CUtlDict@HH@@QAEHPBDABH@Z 24009c10 f i base_playeranimstate.obj
 0001:00008c60       ?RemoveEntriesPreviousTo@?$CInterpolatedVarArray@M$00@@IAEXM@Z 24009c60 f i base_playeranimstate.obj
 0001:00009020       ?CalcSequenceIndex@CBasePlayerAnimState@@IAAHPBDZZ 2400a020 f   base_playeranimstate.obj
 0001:00009150       ?Interpolate@?$CInterpolatedVarArray@M$00@@QAEXMM@Z 2400a150 f i base_playeranimstate.obj
 0001:00009270       ?Interpolate@?$CInterpolatedVarArray@M$00@@UAEXM@Z 2400a270 f i base_playeranimstate.obj
 0001:00009290       ?UpdateInterpolators@CBasePlayerAnimState@@AAEXXZ 2400a290 f   base_playeranimstate.obj
 0001:00009300       ?ComputeSequences@CBasePlayerAnimState@@UAEXXZ 2400a300 f   base_playeranimstate.obj
 0001:00009320       ?Init@CBaseAnimatedTextureProxy@@UAE_NPAVIMaterial@@PAVKeyValues@@@Z 2400a320 f   baseanimatedtextureproxy.obj
 0001:000093d0       ?Cleanup@CBaseAnimatedTextureProxy@@AAEXXZ 2400a3d0 f   baseanimatedtextureproxy.obj
 0001:000093e0       ?OnBind@CBaseAnimatedTextureProxy@@UAEXPAX@Z 2400a3e0 f   baseanimatedtextureproxy.obj
 0001:00009520       ??0CBaseAnimatedTextureProxy@@QAE@XZ 2400a520 f   baseanimatedtextureproxy.obj
 0001:00009540       ??1CBaseAnimatedTextureProxy@@UAE@XZ 2400a540 f   baseanimatedtextureproxy.obj
 0001:00009550       ??_ECBaseAnimatedTextureProxy@@UAEPAXI@Z 2400a550 f i baseanimatedtextureproxy.obj
 0001:00009550       ??_GCBaseAnimatedTextureProxy@@UAEPAXI@Z 2400a550 f i baseanimatedtextureproxy.obj
 0001:00009580       ?WeaponCount@C_BaseCombatCharacter@@QBEHXZ 2400a580 f   basecombatcharacter_shared.obj
 0001:00009590       ?SwitchToNextBestWeapon@C_BaseCombatCharacter@@QAE_NPAVC_BaseCombatWeapon@@@Z 2400a590 f   basecombatcharacter_shared.obj
 0001:000095d0       ?BloodColor@C_BaseCombatCharacter@@UAEHXZ 2400a5d0 f   basecombatcharacter_shared.obj
 0001:000095e0       ?SetBloodColor@C_BaseCombatCharacter@@QAEXH@Z 2400a5e0 f   basecombatcharacter_shared.obj
 0001:000095f0       ?GetEntryIndex@CBaseHandle@@QBEHXZ 2400a5f0 f i basecombatcharacter_shared.obj
 0001:00009600       ?GetSerialNumber@CBaseHandle@@QBEHXZ 2400a600 f i basecombatcharacter_shared.obj
 0001:00009610       ?Set@CBaseHandle@@QAEABV1@PBVIHandleEntity@@@Z 2400a610 f i basecombatcharacter_shared.obj
 0001:00009640       ?LookupEntity@CBaseEntityList@@QBEPAVIHandleEntity@@ABVCBaseHandle@@@Z 2400a640 f i basecombatcharacter_shared.obj
 0001:00009670       ?Get@CBaseHandle@@QBEPAVIHandleEntity@@XZ 2400a670 f i basecombatcharacter_shared.obj
 0001:000096a0       ?Set@?$CHandle@VC_BaseCombatWeapon@@@@QAEXPBVC_BaseCombatWeapon@@@Z 2400a6a0 f i basecombatcharacter_shared.obj
 0001:000096d0       ?NetworkStateChanged@C_BaseEntity@@QAEXXZ 2400a6d0 f i basecombatcharacter_shared.obj
 0001:000096e0       ?FClassnameIs@@YA_NPAVC_BaseEntity@@PBD@Z 2400a6e0 f i basecombatcharacter_shared.obj
 0001:00009730       ?Get@NetworkVar_m_iAmmo@C_BaseCombatCharacter@@QBEABHH@Z 2400a730 f i basecombatcharacter_shared.obj
 0001:00009740       ?NetworkStateChanged@NetworkVar_m_iAmmo@C_BaseCombatCharacter@@IAEXXZ 2400a740 f i basecombatcharacter_shared.obj
 0001:00009750       ??B?$CNetworkVarBase@HVNetworkVar_m_iPrimaryAmmoType@C_BaseCombatWeapon@@@@QBE?BHXZ 2400a750 f i basecombatcharacter_shared.obj
 0001:00009760       ?Get@?$CHandle@VC_BaseEntity@@@@QBEPAVC_BaseEntity@@XZ 2400a760 f i basecombatcharacter_shared.obj
 0001:00009790       ?Get@?$CHandle@VC_BaseCombatWeapon@@@@QBEPAVC_BaseCombatWeapon@@XZ 2400a790 f i basecombatcharacter_shared.obj
 0001:000097c0       ??B?$CHandle@VC_BaseCombatWeapon@@@@QAEPAVC_BaseCombatWeapon@@XZ 2400a7c0 f i basecombatcharacter_shared.obj
 0001:000097f0       ??4?$CHandle@VC_BaseCombatWeapon@@@@QAEABVCBaseHandle@@PBVC_BaseCombatWeapon@@@Z 2400a7f0 f i basecombatcharacter_shared.obj
 0001:00009820       ??C?$CHandle@VC_BaseCombatWeapon@@@@QBEPAVC_BaseCombatWeapon@@XZ 2400a820 f i basecombatcharacter_shared.obj
 0001:00009850       ??ANetworkVar_m_iAmmo@C_BaseCombatCharacter@@QBEABHH@Z 2400a850 f i basecombatcharacter_shared.obj
 0001:00009860       ?Set@NetworkVar_m_iAmmo@C_BaseCombatCharacter@@QAEXHABH@Z 2400a860 f i basecombatcharacter_shared.obj
 0001:00009880       ?GetVehicle@C_BasePlayer@@QAEPAVIClientVehicle@@XZ 2400a880 f i basecombatcharacter_shared.obj
 0001:000098c0       ??B?$CHandle@VC_BaseCombatWeapon@@@@QBEPAVC_BaseCombatWeapon@@XZ 2400a8c0 f i basecombatcharacter_shared.obj
 0001:000098f0       ?Weapon_Switch@C_BaseCombatCharacter@@UAE_NPAVC_BaseCombatWeapon@@H@Z 2400a8f0 f   basecombatcharacter_shared.obj
 0001:000099d0       ?GetActiveWeapon@C_BaseCombatCharacter@@UBEPAVC_BaseCombatWeapon@@XZ 2400a9d0 f   basecombatcharacter_shared.obj
 0001:00009a00       ?RemoveAmmo@C_BaseCombatCharacter@@QAEXHH@Z 2400aa00 f   basecombatcharacter_shared.obj
 0001:00009a50       ?RemoveAmmo@C_BaseCombatCharacter@@QAEXHPBD@Z 2400aa50 f   basecombatcharacter_shared.obj
 0001:00009ab0       ?RemoveAllAmmo@C_BaseCombatCharacter@@QAEXXZ 2400aab0 f   basecombatcharacter_shared.obj
 0001:00009ad0       ?SetAmmoCount@C_BaseCombatCharacter@@QAEXHH@Z 2400aad0 f   basecombatcharacter_shared.obj
 0001:00009af0       ?GetAmmoCount@C_BaseCombatCharacter@@QBEHH@Z 2400aaf0 f   basecombatcharacter_shared.obj
 0001:00009b30       ?GetAmmoCount@C_BaseCombatCharacter@@QBEHPAD@Z 2400ab30 f   basecombatcharacter_shared.obj
 0001:00009b80       ?GetWeapon@C_BaseCombatCharacter@@QBEPAVC_BaseCombatWeapon@@H@Z 2400ab80 f   basecombatcharacter_shared.obj
 0001:00009bc0       ?Weapon_OwnsThisType@C_BaseCombatCharacter@@QBEPAVC_BaseCombatWeapon@@PBDH@Z 2400abc0 f   basecombatcharacter_shared.obj
 0001:00009cd0       ?Weapon_CanSwitchTo@C_BaseCombatCharacter@@UAE_NPAVC_BaseCombatWeapon@@@Z 2400acd0 f   basecombatcharacter_shared.obj
 0001:00009df0       ??0CSoundParameters@@QAE@XZ 2400adf0 f i basecombatweapon_shared.obj
 0001:00009e30       ??1C_BaseCombatWeapon@@UAE@XZ 2400ae30 f   basecombatweapon_shared.obj
 0001:00009e50       ?GetWpnData@C_BaseCombatWeapon@@QBEABVFileWeaponInfo_t@@XZ 2400ae50 f   basecombatweapon_shared.obj
 0001:00009e70       ?GetViewModel@C_BaseCombatWeapon@@UBEPBDH@Z 2400ae70 f   basecombatweapon_shared.obj
 0001:00009e90       ?GetWorldModel@C_BaseCombatWeapon@@UBEPBDXZ 2400ae90 f   basecombatweapon_shared.obj
 0001:00009eb0       ?GetAnimPrefix@C_BaseCombatWeapon@@UBEPBDXZ 2400aeb0 f   basecombatweapon_shared.obj
 0001:00009ed0       ?GetPrintName@C_BaseCombatWeapon@@UBEPBDXZ 2400aed0 f   basecombatweapon_shared.obj
 0001:00009ef0       ?GetMaxClip1@C_BaseCombatWeapon@@UBEHXZ 2400aef0 f   basecombatweapon_shared.obj
 0001:00009f10       ?GetMaxClip2@C_BaseCombatWeapon@@UBEHXZ 2400af10 f   basecombatweapon_shared.obj
 0001:00009f30       ?GetDefaultClip1@C_BaseCombatWeapon@@UBEHXZ 2400af30 f   basecombatweapon_shared.obj
 0001:00009f50       ?GetDefaultClip2@C_BaseCombatWeapon@@UBEHXZ 2400af50 f   basecombatweapon_shared.obj
 0001:00009f70       ?UsesClipsForAmmo1@C_BaseCombatWeapon@@UBE_NXZ 2400af70 f   basecombatweapon_shared.obj
 0001:00009f90       ?IsMeleeWeapon@C_BaseCombatWeapon@@QBE_NXZ 2400af90 f   basecombatweapon_shared.obj
 0001:00009fb0       ?UsesClipsForAmmo2@C_BaseCombatWeapon@@UBE_NXZ 2400afb0 f   basecombatweapon_shared.obj
 0001:00009fd0       ?GetWeight@C_BaseCombatWeapon@@UBEHXZ 2400afd0 f   basecombatweapon_shared.obj
 0001:00009ff0       ?AllowsAutoSwitchTo@C_BaseCombatWeapon@@UBE_NXZ 2400aff0 f   basecombatweapon_shared.obj
 0001:0000a010       ?AllowsAutoSwitchFrom@C_BaseCombatWeapon@@UBE_NXZ 2400b010 f   basecombatweapon_shared.obj
 0001:0000a030       ?GetWeaponFlags@C_BaseCombatWeapon@@UBEHXZ 2400b030 f   basecombatweapon_shared.obj
 0001:0000a050       ?GetSlot@C_BaseCombatWeapon@@UBEHXZ 2400b050 f   basecombatweapon_shared.obj
 0001:0000a070       ?GetPosition@C_BaseCombatWeapon@@UBEHXZ 2400b070 f   basecombatweapon_shared.obj
 0001:0000a090       ?GetName@C_BaseCombatWeapon@@UBEPBDXZ 2400b090 f   basecombatweapon_shared.obj
 0001:0000a0b0       ?GetSpriteActive@C_BaseCombatWeapon@@UBEPBVCHudTexture@@XZ 2400b0b0 f   basecombatweapon_shared.obj
 0001:0000a0d0       ?GetSpriteInactive@C_BaseCombatWeapon@@UBEPBVCHudTexture@@XZ 2400b0d0 f   basecombatweapon_shared.obj
 0001:0000a0f0       ?GetSpriteAmmo@C_BaseCombatWeapon@@UBEPBVCHudTexture@@XZ 2400b0f0 f   basecombatweapon_shared.obj
 0001:0000a110       ?GetSpriteAmmo2@C_BaseCombatWeapon@@UBEPBVCHudTexture@@XZ 2400b110 f   basecombatweapon_shared.obj
 0001:0000a130       ?GetSpriteCrosshair@C_BaseCombatWeapon@@UBEPBVCHudTexture@@XZ 2400b130 f   basecombatweapon_shared.obj
 0001:0000a150       ?GetSpriteAutoaim@C_BaseCombatWeapon@@UBEPBVCHudTexture@@XZ 2400b150 f   basecombatweapon_shared.obj
 0001:0000a170       ?GetSpriteZoomedCrosshair@C_BaseCombatWeapon@@UBEPBVCHudTexture@@XZ 2400b170 f   basecombatweapon_shared.obj
 0001:0000a190       ?GetSpriteZoomedAutoaim@C_BaseCombatWeapon@@UBEPBVCHudTexture@@XZ 2400b190 f   basecombatweapon_shared.obj
 0001:0000a1b0       ?GetShootSound@C_BaseCombatWeapon@@UBEPBDH@Z 2400b1b0 f   basecombatweapon_shared.obj
 0001:0000a1e0       ?IsAllowedToSwitch@C_BaseCombatWeapon@@UAE_NXZ 2400b1e0 f   basecombatweapon_shared.obj
 0001:0000a1f0       ?CanBeSelected@C_BaseCombatWeapon@@UAE_NXZ 2400b1f0 f   basecombatweapon_shared.obj
 0001:0000a210       ?VisibleInWeaponSelection@C_BaseCombatWeapon@@UAE_NXZ 2400b210 f   basecombatweapon_shared.obj
 0001:0000a220       ?Drop@C_BaseCombatWeapon@@UAEXABVVector@@@Z 2400b220 f   basecombatweapon_shared.obj
 0001:0000a230       ?OnPickedUp@C_BaseCombatWeapon@@UAEXPAVC_BaseCombatCharacter@@@Z 2400b230 f   basecombatweapon_shared.obj
 0001:0000a240       ?DefaultTouch@C_BaseCombatWeapon@@UAEXPAVC_BaseEntity@@@Z 2400b240 f   basecombatweapon_shared.obj
 0001:0000a250       ?SetPickupTouch@C_BaseCombatWeapon@@UAEXXZ 2400b250 f   basecombatweapon_shared.obj
 0001:0000a260       ?Deploy@C_BaseCombatWeapon@@UAE_NXZ 2400b260 f   basecombatweapon_shared.obj
 0001:0000a2a0       ?GetDrawActivity@C_BaseCombatWeapon@@UAE?AW4Activity@@XZ 2400b2a0 f   basecombatweapon_shared.obj
 0001:0000a2b0       ?BoneMergeFastCullBloat@C_BaseCombatWeapon@@UBEXAAVVector@@0ABV2@1@Z 2400b2b0 f   basecombatweapon_shared.obj
 0001:0000a2f0       ?HandleFireOnEmpty@C_BaseCombatWeapon@@UAEXXZ 2400b2f0 f   basecombatweapon_shared.obj
 0001:0000a360       ?ItemBusyFrame@C_BaseCombatWeapon@@UAEXXZ 2400b360 f   basecombatweapon_shared.obj
 0001:0000a370       ?GetBulletType@C_BaseCombatWeapon@@UAEHXZ 2400b370 f   basecombatweapon_shared.obj
 0001:0000a380       ?GetProficiencyValues@C_BaseCombatWeapon@@UAEPBUWeaponProficiencyInfo_t@@XZ 2400b380 f   basecombatweapon_shared.obj
 0001:0000a390       ?GetFireRate@C_BaseCombatWeapon@@UAEMXZ 2400b390 f   basecombatweapon_shared.obj
 0001:0000a3a0       ?WeaponIdle@C_BaseCombatWeapon@@UAEXXZ 2400b3a0 f   basecombatweapon_shared.obj
 0001:0000a3c0       ?GetPrimaryAttackActivity@C_BaseCombatWeapon@@UAE?AW4Activity@@XZ 2400b3c0 f   basecombatweapon_shared.obj
 0001:0000a3d0       ?GetSecondaryAttackActivity@C_BaseCombatWeapon@@UAE?AW4Activity@@XZ 2400b3d0 f   basecombatweapon_shared.obj
 0001:0000a3e0       ?AddViewKick@C_BaseCombatWeapon@@UAEXXZ 2400b3e0 f   basecombatweapon_shared.obj
 0001:0000a3f0       ?GetDeathNoticeName@C_BaseCombatWeapon@@UAEPADXZ 2400b3f0 f   basecombatweapon_shared.obj
 0001:0000a400       ?AbortReload@C_BaseCombatWeapon@@UAEXXZ 2400b400 f   basecombatweapon_shared.obj
 0001:0000a420       ?GetControlPanelInfo@C_BaseCombatWeapon@@UAEXHAAPBD@Z 2400b420 f   basecombatweapon_shared.obj
 0001:0000a430       ?GetControlPanelClassName@C_BaseCombatWeapon@@UAEXHAAPBD@Z 2400b430 f   basecombatweapon_shared.obj
 0001:0000a440       ??0CGameWeaponManager@@QAE@XZ 2400b440 f i basecombatweapon_shared.obj
 0001:0000a470       ?Spawn@CGameWeaponManager@@UAEXXZ 2400b470 f   basecombatweapon_shared.obj
 0001:0000a480       ?GetPredDescMap@C_BaseCombatWeapon@@UAEPAUdatamap_t@@XZ 2400b480 f   basecombatweapon_shared.obj
 0001:0000a490       ??$PredMapInit@VC_BaseCombatWeapon@@@@YAPAUdatamap_t@@PAVC_BaseCombatWeapon@@@Z 2400b490 f   basecombatweapon_shared.obj
 0001:0000a4b0       ?GetClassName@C_BaseCombatWeapon@@UAEPBDXZ 2400b4b0 f   basecombatweapon_shared.obj
 0001:0000a4c0       ?YouForgotToImplementOrDeclareClientClass@C_BaseCombatWeapon@@UAEHXZ 2400b4c0 f   basecombatweapon_shared.obj
 0001:0000a4d0       ?GetClientClass@C_BaseCombatWeapon@@UAEPAVClientClass@@XZ 2400b4d0 f   basecombatweapon_shared.obj
 0001:0000a4e0       ??$ClientClassInit@Uignored@DT_LocalActiveWeaponData@@@@YAHPAUignored@DT_LocalActiveWeaponData@@@Z 2400b4e0 f   basecombatweapon_shared.obj
 0001:0000a590       ??$ClientClassInit@Uignored@DT_LocalWeaponData@@@@YAHPAUignored@DT_LocalWeaponData@@@Z 2400b590 f   basecombatweapon_shared.obj
 0001:0000a670       ??$ClientClassInit@Uignored@DT_BaseCombatWeapon@@@@YAHPAUignored@DT_BaseCombatWeapon@@@Z 2400b670 f   basecombatweapon_shared.obj
 0001:0000a790       ?Get@?$CNetworkVarBase@V?$CHandle@VC_BaseCombatCharacter@@@@VNetworkVar_m_hOwner@C_BaseCombatWeapon@@@@QBEABV?$CHandle@VC_BaseCombatCharacter@@@@XZ 2400b790 f i basecombatweapon_shared.obj
 0001:0000a7a0       ??B?$CNetworkVarBase@HVNetworkVar_m_nViewModelIndex@C_BaseCombatWeapon@@@@QBE?BHXZ 2400b7a0 f i basecombatweapon_shared.obj
 0001:0000a7b0       ??B?$CNetworkVarBase@MVNetworkVar_m_flNextPrimaryAttack@C_BaseCombatWeapon@@@@QBE?BMXZ 2400b7b0 f i basecombatweapon_shared.obj
 0001:0000a7c0       ??B?$CNetworkVarBase@MVNetworkVar_m_flNextSecondaryAttack@C_BaseCombatWeapon@@@@QBE?BMXZ 2400b7c0 f i basecombatweapon_shared.obj
 0001:0000a7d0       ??B?$CNetworkVarBase@MVNetworkVar_m_flTimeWeaponIdle@C_BaseCombatWeapon@@@@QBE?BMXZ 2400b7d0 f i basecombatweapon_shared.obj
 0001:0000a7e0       ??0CBaseHandle@@QAE@XZ     2400b7e0 f i basecombatweapon_shared.obj
 0001:0000a7f0       ?Term@CBaseHandle@@QAEXXZ  2400b7f0 f i basecombatweapon_shared.obj
 0001:0000a800       ??0FireBulletsInfo_t@@QAE@XZ 2400b800 f i basecombatweapon_shared.obj
 0001:0000a840       ??0?$CHandle@VC_BaseCombatCharacter@@@@QAE@XZ 2400b840 f i basecombatweapon_shared.obj
 0001:0000a850       ??0ClientClass@@QAE@PADP6APAVIClientNetworkable@@HH@ZP6APAV1@XZPAVRecvTable@@@Z 2400b850 f i basecombatweapon_shared.obj
 0001:0000a880       ?Get@?$CHandle@VC_BaseCombatCharacter@@@@QBEPAVC_BaseCombatCharacter@@XZ 2400b880 f i basecombatweapon_shared.obj
 0001:0000a8b0       ?Set@?$CHandle@VC_BaseCombatCharacter@@@@QAEXPBVC_BaseCombatCharacter@@@Z 2400b8b0 f i basecombatweapon_shared.obj
 0001:0000a8e0       ?GetVarMapping@C_BaseEntity@@UAEPAUVarMapping_t@@XZ 2400b8e0 f i basecombatweapon_shared.obj
 0001:0000a900       ?ShouldDrawWaterImpacts@C_BaseEntity@@UAE_NXZ 2400b900 f i basecombatweapon_shared.obj
 0001:0000a910       ?GetIClientUnknown@C_BaseEntity@@UAEPAVIClientUnknown@@XZ 2400b910 f i basecombatweapon_shared.obj
 0001:0000a920       ?GetBaseAnimating@C_BaseEntity@@UAEPAVC_BaseAnimating@@XZ 2400b920 f i basecombatweapon_shared.obj
 0001:0000a930       ?GetCollideable@C_BaseEntity@@UAEPAVICollideable@@XZ 2400b930 f i basecombatweapon_shared.obj
 0001:0000a940       ?GetClientNetworkable@C_BaseEntity@@UAEPAVIClientNetworkable@@XZ 2400b940 f i basecombatweapon_shared.obj
 0001:0000a950       ?GetClientRenderable@C_BaseEntity@@UAEPAVIClientRenderable@@XZ 2400b950 f i basecombatweapon_shared.obj
 0001:0000a960       ?GetIClientEntity@C_BaseEntity@@UAEPAVIClientEntity@@XZ 2400b960 f i basecombatweapon_shared.obj
 0001:0000a970       ?GetBaseEntity@C_BaseEntity@@UAEPAV1@XZ 2400b970 f i basecombatweapon_shared.obj
 0001:0000a980       ?GetClientThinkable@C_BaseEntity@@UAEPAVIClientThinkable@@XZ 2400b980 f i basecombatweapon_shared.obj
 0001:0000a990       ?IsValidIDTarget@C_BaseEntity@@UAE_NXZ 2400b990 f i basecombatweapon_shared.obj
 0001:0000a9a0       ?GetIDString@C_BaseEntity@@UAEPADXZ 2400b9a0 f i basecombatweapon_shared.obj
 0001:0000a9b0       ?GetClientVehicle@C_BaseEntity@@UAEPAVIClientVehicle@@XZ 2400b9b0 f i basecombatweapon_shared.obj
 0001:0000a9c0       ?SetHealth@C_BaseEntity@@UAEXH@Z 2400b9c0 f i basecombatweapon_shared.obj
 0001:0000a9d0       ?GetHealth@C_BaseEntity@@UBEHXZ 2400b9d0 f i basecombatweapon_shared.obj
 0001:0000a9e0       ?GetMaxHealth@C_BaseEntity@@UBEHXZ 2400b9e0 f i basecombatweapon_shared.obj
 0001:0000a9f0       ?ShouldPredict@C_BaseEntity@@UAE_NXZ 2400b9f0 f i basecombatweapon_shared.obj
 0001:0000aa00       ?Think@C_BaseEntity@@UAEXXZ 2400ba00 f i basecombatweapon_shared.obj
 0001:0000aa20       ?CanBePoweredUp@C_BaseEntity@@UAE_NXZ 2400ba20 f i basecombatweapon_shared.obj
 0001:0000aa30       ?AttemptToPowerup@C_BaseEntity@@UAE_NHMMPAV1@PAVCDamageModifier@@@Z 2400ba30 f i basecombatweapon_shared.obj
 0001:0000aa40       ?IsPlayer@C_BaseEntity@@UBE_NXZ 2400ba40 f i basecombatweapon_shared.obj
 0001:0000aa50       ?IsBaseCombatCharacter@C_BaseEntity@@UAE_NXZ 2400ba50 f i basecombatweapon_shared.obj
 0001:0000aa60       ?MyCombatCharacterPointer@C_BaseEntity@@UAEPAVC_BaseCombatCharacter@@XZ 2400ba60 f i basecombatweapon_shared.obj
 0001:0000aa70       ?IsNPC@C_BaseEntity@@UAE_NXZ 2400ba70 f i basecombatweapon_shared.obj
 0001:0000aa80       ?IsBaseObject@C_BaseEntity@@UBE_NXZ 2400ba80 f i basecombatweapon_shared.obj
 0001:0000aa90       ?GetBody@C_BaseEntity@@UAEHXZ 2400ba90 f i basecombatweapon_shared.obj
 0001:0000aaa0       ?GetShadowHandle@C_BaseEntity@@UBEGXZ 2400baa0 f i basecombatweapon_shared.obj
 0001:0000aab0       ?GetClientSideFade@C_BaseEntity@@MAEEXZ 2400bab0 f i basecombatweapon_shared.obj
 0001:0000aac0       ?AddRagdollToFadeQueue@C_BaseEntity@@UAE_NXZ 2400bac0 f i basecombatweapon_shared.obj
 0001:0000aad0       ?GetStudioBody@C_BaseEntity@@MAEHXZ 2400bad0 f i basecombatweapon_shared.obj
 0001:0000aae0       ?CollisionProp@C_BaseEntity@@QAEPAVCCollisionProperty@@XZ 2400bae0 f i basecombatweapon_shared.obj
 0001:0000aaf0       ?GetSolidFlags@C_BaseEntity@@UBEHXZ 2400baf0 f i basecombatweapon_shared.obj
 0001:0000ab00       ?SetSolid@C_BaseEntity@@QAEXW4SolidType_t@@@Z 2400bb00 f i basecombatweapon_shared.obj
 0001:0000ab10       ?GetSolid@C_BaseEntity@@UBE?AW4SolidType_t@@XZ 2400bb10 f i basecombatweapon_shared.obj
 0001:0000ab20       ?WorldAlignMins@C_BaseEntity@@UBEABVVector@@XZ 2400bb20 f i basecombatweapon_shared.obj
 0001:0000ab30       ?WorldAlignMaxs@C_BaseEntity@@UBEABVVector@@XZ 2400bb30 f i basecombatweapon_shared.obj
 0001:0000ab40       ?GetWaterLevel@C_BaseEntity@@QBEHXZ 2400bb40 f i basecombatweapon_shared.obj
 0001:0000ab50       ?RemoveEFlags@C_BaseEntity@@QAEXH@Z 2400bb50 f i basecombatweapon_shared.obj
 0001:0000ab60       ?RenderHandle@C_BaseEntity@@UAEAAGXZ 2400bb60 f i basecombatweapon_shared.obj
 0001:0000ab70       ?GetIClientUnknown@C_BaseEntity@@W3AEPAVIClientUnknown@@XZ 2400bb70 f i basecombatweapon_shared.obj
 0001:0000ab80       ?GetIClientUnknown@C_BaseEntity@@W7AEPAVIClientUnknown@@XZ 2400bb80 f i basecombatweapon_shared.obj
 0001:0000ab90       ?Release@C_BaseAnimating@@W3AEXXZ 2400bb90 f i basecombatweapon_shared.obj
 0001:0000aba0       ?Release@C_BaseEntity@@W3AEXXZ 2400bba0 f i basecombatweapon_shared.obj
 0001:0000abb0       ?GetVarMapping@C_BaseAnimating@@UAEPAUVarMapping_t@@XZ 2400bbb0 f i basecombatweapon_shared.obj
 0001:0000abf0       ?GetBaseAnimating@C_BaseAnimating@@UAEPAV1@XZ 2400bbf0 f i basecombatweapon_shared.obj
 0001:0000ac00       ?GetBody@C_BaseAnimating@@UAEHXZ 2400bc00 f i basecombatweapon_shared.obj
 0001:0000ac10       ?IsActivityFinished@C_BaseAnimating@@UAE_NXZ 2400bc10 f i basecombatweapon_shared.obj
 0001:0000ac20       ?UncorrectViewModelAttachment@C_BaseAnimating@@UAEXAAVVector@@@Z 2400bc20 f i basecombatweapon_shared.obj
 0001:0000ac30       ?FormatViewModelAttachment@C_BaseAnimating@@MAEXHAAVVector@@AAVQAngle@@@Z 2400bc30 f i basecombatweapon_shared.obj
 0001:0000ac40       ?GetStudioBody@C_BaseAnimating@@MAEHXZ 2400bc40 f i basecombatweapon_shared.obj
 0001:0000ac50       ?IsSequenceFinished@C_BaseAnimating@@QAE_NXZ 2400bc50 f i basecombatweapon_shared.obj
 0001:0000ac60       ?SequenceDuration@C_BaseAnimating@@QAEMXZ 2400bc60 f i basecombatweapon_shared.obj
 0001:0000ac70       ?IsAlive@C_BaseEntity@@UAE_NXZ 2400bc70 f i basecombatweapon_shared.obj
 0001:0000ac80       ?RemoveEffects@C_BaseEntity@@QAEXH@Z 2400bc80 f i basecombatweapon_shared.obj
 0001:0000aca0       ?IsEffectActive@C_BaseEntity@@QBE_NH@Z 2400bca0 f i basecombatweapon_shared.obj
 0001:0000acb0       ?SetNextAttack@C_BaseCombatCharacter@@QAEXM@Z 2400bcb0 f i basecombatweapon_shared.obj
 0001:0000acc0       ?ToBaseCombatCharacter@@YAPAVC_BaseCombatCharacter@@PAVC_BaseEntity@@@Z 2400bcc0 f i basecombatweapon_shared.obj
 0001:0000ace0       ?ToBasePlayer@@YAPAVC_BasePlayer@@PAVC_BaseEntity@@@Z 2400bce0 f i basecombatweapon_shared.obj
 0001:0000ad00       ?IsPredicted@C_BaseCombatWeapon@@UBE_NXZ 2400bd00 f i basecombatweapon_shared.obj
 0001:0000ad10       ?GetSubType@C_BaseCombatWeapon@@UAEHXZ 2400bd10 f i basecombatweapon_shared.obj
 0001:0000ad20       ?SetSubType@C_BaseCombatWeapon@@UAEXH@Z 2400bd20 f i basecombatweapon_shared.obj
 0001:0000ad30       ?CanHolster@C_BaseCombatWeapon@@UAE_NXZ 2400bd30 f i basecombatweapon_shared.obj
 0001:0000ad40       ?CanDeploy@C_BaseCombatWeapon@@UAE_NXZ 2400bd40 f i basecombatweapon_shared.obj
 0001:0000ad50       ?GetLastWeapon@C_BaseCombatWeapon@@UAEPAV1@XZ 2400bd50 f i basecombatweapon_shared.obj
 0001:0000ad60       ?ItemHolsterFrame@C_BaseCombatWeapon@@UAEXXZ 2400bd60 f i basecombatweapon_shared.obj
 0001:0000ad70       ?SecondaryAttack@C_BaseCombatWeapon@@UAEXXZ 2400bd70 f i basecombatweapon_shared.obj
 0001:0000ad80       ?GetDefaultAnimSpeed@C_BaseCombatWeapon@@UAEMXZ 2400bd80 f i basecombatweapon_shared.obj
 0001:0000ad90       ?GetBulletSpread@C_BaseCombatWeapon@@UAE?AVVector@@W4WeaponProficiency_t@@@Z 2400bd90 f i basecombatweapon_shared.obj
 0001:0000adc0       ?GetSpreadBias@C_BaseCombatWeapon@@UAEMW4WeaponProficiency_t@@@Z 2400bdc0 f i basecombatweapon_shared.obj
 0001:0000add0       ?GetMinBurst@C_BaseCombatWeapon@@UAEHXZ 2400bdd0 f i basecombatweapon_shared.obj
 0001:0000ade0       ?GetMaxBurst@C_BaseCombatWeapon@@UAEHXZ 2400bde0 f i basecombatweapon_shared.obj
 0001:0000adf0       ?GetMinRestTime@C_BaseCombatWeapon@@UAEMXZ 2400bdf0 f i basecombatweapon_shared.obj
 0001:0000ae00       ?GetMaxRestTime@C_BaseCombatWeapon@@UAEMXZ 2400be00 f i basecombatweapon_shared.obj
 0001:0000ae10       ?GetRandomBurst@C_BaseCombatWeapon@@UAEHXZ 2400be10 f i basecombatweapon_shared.obj
 0001:0000ae40       ?StartSprinting@C_BaseCombatWeapon@@UAE_NXZ 2400be40 f i basecombatweapon_shared.obj
 0001:0000ae50       ?StopSprinting@C_BaseCombatWeapon@@UAE_NXZ 2400be50 f i basecombatweapon_shared.obj
 0001:0000ae60       ?GetDamage@C_BaseCombatWeapon@@UAEMMH@Z 2400be60 f i basecombatweapon_shared.obj
 0001:0000ae70       ?SetActivity@C_BaseCombatWeapon@@QAEXW4Activity@@@Z 2400be70 f i basecombatweapon_shared.obj
 0001:0000ae80       ?GetActivity@C_BaseCombatWeapon@@QAE?AW4Activity@@XZ 2400be80 f i basecombatweapon_shared.obj
 0001:0000ae90       ?AddViewmodelBob@C_BaseCombatWeapon@@UAEXPAVC_BaseViewModel@@AAVVector@@AAVQAngle@@@Z 2400be90 f i basecombatweapon_shared.obj
 0001:0000aea0       ?CalcViewmodelBob@C_BaseCombatWeapon@@UAEMXZ 2400bea0 f i basecombatweapon_shared.obj
 0001:0000aeb0       ?ShouldShowControlPanels@C_BaseCombatWeapon@@UAE_NXZ 2400beb0 f i basecombatweapon_shared.obj
 0001:0000aec0       ?GetEncryptionKey@C_BaseCombatWeapon@@UAEPBEXZ 2400bec0 f i basecombatweapon_shared.obj
 0001:0000aed0       ?GetPrimaryAmmoCount@C_BaseCombatWeapon@@QAEHXZ 2400bed0 f i basecombatweapon_shared.obj
 0001:0000aee0       ?SetPrimaryAmmoCount@C_BaseCombatWeapon@@QAEXH@Z 2400bee0 f i basecombatweapon_shared.obj
 0001:0000aef0       ?SetSecondaryAmmoCount@C_BaseCombatWeapon@@QAEXH@Z 2400bef0 f i basecombatweapon_shared.obj
 0001:0000af00       ?OnFireEvent@C_BaseCombatWeapon@@UAE_NPAVC_BaseViewModel@@ABVVector@@ABVQAngle@@HPBD@Z 2400bf00 f i basecombatweapon_shared.obj
 0001:0000af10       ?HandleInput@C_BaseCombatWeapon@@UAEXXZ 2400bf10 f i basecombatweapon_shared.obj
 0001:0000af20       ?OverrideMouseInput@C_BaseCombatWeapon@@UAEXPAM0@Z 2400bf20 f i basecombatweapon_shared.obj
 0001:0000af30       ?KeyInput@C_BaseCombatWeapon@@UAEHHHPBD@Z 2400bf30 f i basecombatweapon_shared.obj
 0001:0000af40       ?AddLookShift@C_BaseCombatWeapon@@UAE_NXZ 2400bf40 f i basecombatweapon_shared.obj
 0001:0000af50       ?GetViewmodelBoneControllers@C_BaseCombatWeapon@@UAEXPAVC_BaseViewModel@@QAM@Z 2400bf50 f i basecombatweapon_shared.obj
 0001:0000af60       ?NetworkStateChanged@NetworkVar_m_hOwner@C_BaseCombatWeapon@@SAXPAX@Z 2400bf60 f i basecombatweapon_shared.obj
 0001:0000af70       ?NetworkStateChanged@NetworkVar_m_nViewModelIndex@C_BaseCombatWeapon@@SAXPAX@Z 2400bf70 f i basecombatweapon_shared.obj
 0001:0000af80       ?NetworkStateChanged@NetworkVar_m_flNextPrimaryAttack@C_BaseCombatWeapon@@SAXPAX@Z 2400bf80 f i basecombatweapon_shared.obj
 0001:0000af90       ?NetworkStateChanged@NetworkVar_m_flNextSecondaryAttack@C_BaseCombatWeapon@@SAXPAX@Z 2400bf90 f i basecombatweapon_shared.obj
 0001:0000afa0       ?NetworkStateChanged@NetworkVar_m_flTimeWeaponIdle@C_BaseCombatWeapon@@SAXPAX@Z 2400bfa0 f i basecombatweapon_shared.obj
 0001:0000afb0       ?NetworkStateChanged@NetworkVar_m_iViewModelIndex@C_BaseCombatWeapon@@SAXPAX@Z 2400bfb0 f i basecombatweapon_shared.obj
 0001:0000afc0       ?NetworkStateChanged@NetworkVar_m_iWorldModelIndex@C_BaseCombatWeapon@@SAXPAX@Z 2400bfc0 f i basecombatweapon_shared.obj
 0001:0000afd0       ?NetworkStateChanged_m_nNextThinkTick@C_BaseCombatWeapon@@UAEXXZ 2400bfd0 f i basecombatweapon_shared.obj
 0001:0000afe0       ?NetworkStateChanged@NetworkVar_m_iState@C_BaseCombatWeapon@@SAXPAX@Z 2400bfe0 f i basecombatweapon_shared.obj
 0001:0000aff0       ?NetworkStateChanged@NetworkVar_m_iPrimaryAmmoType@C_BaseCombatWeapon@@SAXPAX@Z 2400bff0 f i basecombatweapon_shared.obj
 0001:0000b000       ?NetworkStateChanged@NetworkVar_m_iSecondaryAmmoType@C_BaseCombatWeapon@@SAXPAX@Z 2400c000 f i basecombatweapon_shared.obj
 0001:0000b010       ?NetworkStateChanged@NetworkVar_m_iClip1@C_BaseCombatWeapon@@SAXPAX@Z 2400c010 f i basecombatweapon_shared.obj
 0001:0000b020       ?NetworkStateChanged@NetworkVar_m_iClip2@C_BaseCombatWeapon@@SAXPAX@Z 2400c020 f i basecombatweapon_shared.obj
 0001:0000b030       ??0CSingleUserRecipientFilter@@QAE@PAVC_BasePlayer@@@Z 2400c030 f i basecombatweapon_shared.obj
 0001:0000b050       ?IsInitMessage@C_RecipientFilter@@UBE_NXZ 2400c050 f i basecombatweapon_shared.obj
 0001:0000b060       ??1CSingleUserRecipientFilter@@UAE@XZ 2400c060 f i basecombatweapon_shared.obj
 0001:0000b070       ??0CPASFilter@@QAE@ABVVector@@@Z 2400c070 f i basecombatweapon_shared.obj
 0001:0000b090       ??1CPASFilter@@UAE@XZ      2400c090 f i basecombatweapon_shared.obj
 0001:0000b0a0       ??0CPASAttenuationFilter@@QAE@PAVC_BaseEntity@@M@Z 2400c0a0 f i basecombatweapon_shared.obj
 0001:0000b0e0       ??1CPASAttenuationFilter@@UAE@XZ 2400c0e0 f i basecombatweapon_shared.obj
 0001:0000b0f0       ??B?$CNetworkVarBase@GVNetworkVar_m_usSolidFlags@CCollisionProperty@@@@QBE?BGXZ 2400c0f0 f i basecombatweapon_shared.obj
 0001:0000b100       ??B?$CNetworkVarBase@HVNetworkVar_m_iSecondaryAmmoType@C_BaseCombatWeapon@@@@QBE?BHXZ 2400c100 f i basecombatweapon_shared.obj
 0001:0000b110       ??B?$CNetworkVarBase@HVNetworkVar_m_iClip1@C_BaseCombatWeapon@@@@QBE?BHXZ 2400c110 f i basecombatweapon_shared.obj
 0001:0000b120       ??B?$CNetworkVarBase@HVNetworkVar_m_iClip2@C_BaseCombatWeapon@@@@QBE?BHXZ 2400c120 f i basecombatweapon_shared.obj
 0001:0000b130       ??0?$CHandle@VC_BaseEntity@@@@QAE@XZ 2400c130 f i basecombatweapon_shared.obj
 0001:0000b140       ??_EC_BaseCombatWeapon@@UAEPAXI@Z 2400c140 f i basecombatweapon_shared.obj
 0001:0000b140       ??_GC_BaseCombatWeapon@@UAEPAXI@Z 2400c140 f i basecombatweapon_shared.obj
 0001:0000b180       ??0?$CNetworkVarBase@V?$CHandle@VC_BaseCombatCharacter@@@@VNetworkVar_m_hOwner@C_BaseCombatWeapon@@@@QAE@XZ 2400c180 f i basecombatweapon_shared.obj
 0001:0000b190       ?HasWeaponIdleTimeElapsed@C_BaseCombatWeapon@@UAE_NXZ 2400c190 f   basecombatweapon_shared.obj
 0001:0000b1b0       ?GetWeaponIdleTime@C_BaseCombatWeapon@@UAEMXZ 2400c1b0 f   basecombatweapon_shared.obj
 0001:0000b1c0       ?SetActivity@C_BaseCombatWeapon@@UAEXW4Activity@@M@Z 2400c1c0 f   basecombatweapon_shared.obj
 0001:0000b260       ?UsesPrimaryAmmo@C_BaseCombatWeapon@@QAE_NXZ 2400c260 f   basecombatweapon_shared.obj
 0001:0000b270       ?UsesSecondaryAmmo@C_BaseCombatWeapon@@QAE_NXZ 2400c270 f   basecombatweapon_shared.obj
 0001:0000b280       ?GetBulletSpread@C_BaseCombatWeapon@@UAEABVVector@@XZ 2400c280 f   basecombatweapon_shared.obj
 0001:0000b2c0       ?SetIdealActivity@C_BaseCombatWeapon@@QAE_NW4Activity@@@Z 2400c2c0 f   basecombatweapon_shared.obj
 0001:0000b3d0       ??_ECGameWeaponManager@@UAEPAXI@Z 2400c3d0 f i basecombatweapon_shared.obj
 0001:0000b3d0       ??_GCGameWeaponManager@@UAEPAXI@Z 2400c3d0 f i basecombatweapon_shared.obj
 0001:0000b3f0       ??0Cgame_weapon_managerFoo@@QAE@XZ 2400c3f0 f i basecombatweapon_shared.obj
 0001:0000b420       ?NetworkStateChanged@?$CNetworkVarBase@V?$CHandle@VC_BaseCombatCharacter@@@@VNetworkVar_m_hOwner@C_BaseCombatWeapon@@@@IAEXXZ 2400c420 f i basecombatweapon_shared.obj
 0001:0000b430       ?NetworkStateChanged@?$CNetworkVarBase@HVNetworkVar_m_nViewModelIndex@C_BaseCombatWeapon@@@@IAEXXZ 2400c430 f i basecombatweapon_shared.obj
 0001:0000b440       ?NetworkStateChanged@?$CNetworkVarBase@MVNetworkVar_m_flNextPrimaryAttack@C_BaseCombatWeapon@@@@IAEXXZ 2400c440 f i basecombatweapon_shared.obj
 0001:0000b450       ?NetworkStateChanged@?$CNetworkVarBase@MVNetworkVar_m_flNextSecondaryAttack@C_BaseCombatWeapon@@@@IAEXXZ 2400c450 f i basecombatweapon_shared.obj
 0001:0000b460       ?NetworkStateChanged@?$CNetworkVarBase@MVNetworkVar_m_flTimeWeaponIdle@C_BaseCombatWeapon@@@@IAEXXZ 2400c460 f i basecombatweapon_shared.obj
 0001:0000b470       ?NetworkStateChanged@?$CNetworkVarBase@HVNetworkVar_m_iViewModelIndex@C_BaseCombatWeapon@@@@IAEXXZ 2400c470 f i basecombatweapon_shared.obj
 0001:0000b480       ?NetworkStateChanged@?$CNetworkVarBase@HVNetworkVar_m_iWorldModelIndex@C_BaseCombatWeapon@@@@IAEXXZ 2400c480 f i basecombatweapon_shared.obj
 0001:0000b490       ?NetworkStateChanged@?$CNetworkVarBase@HVNetworkVar_m_iState@C_BaseCombatWeapon@@@@IAEXXZ 2400c490 f i basecombatweapon_shared.obj
 0001:0000b4a0       ?NetworkStateChanged@?$CNetworkVarBase@HVNetworkVar_m_iPrimaryAmmoType@C_BaseCombatWeapon@@@@IAEXXZ 2400c4a0 f i basecombatweapon_shared.obj
 0001:0000b4b0       ?NetworkStateChanged@?$CNetworkVarBase@HVNetworkVar_m_iSecondaryAmmoType@C_BaseCombatWeapon@@@@IAEXXZ 2400c4b0 f i basecombatweapon_shared.obj
 0001:0000b4c0       ?NetworkStateChanged@?$CNetworkVarBase@HVNetworkVar_m_iClip1@C_BaseCombatWeapon@@@@IAEXXZ 2400c4c0 f i basecombatweapon_shared.obj
 0001:0000b4d0       ?NetworkStateChanged@?$CNetworkVarBase@HVNetworkVar_m_iClip2@C_BaseCombatWeapon@@@@IAEXXZ 2400c4d0 f i basecombatweapon_shared.obj
 0001:0000b4e0       ?Set@?$CHandle@VC_BaseEntity@@@@QAEXPBVC_BaseEntity@@@Z 2400c4e0 f i basecombatweapon_shared.obj
 0001:0000b510       ??9?$CHandle@VC_BaseEntity@@@@QBE_NPAVC_BaseEntity@@@Z 2400c510 f i basecombatweapon_shared.obj
 0001:0000b550       ??0?$CHandle@VC_BaseCombatCharacter@@@@QAE@PAVC_BaseCombatCharacter@@@Z 2400c550 f i basecombatweapon_shared.obj
 0001:0000b580       ??B?$CHandle@VC_BaseCombatCharacter@@@@QBEPAVC_BaseCombatCharacter@@XZ 2400c580 f i basecombatweapon_shared.obj
 0001:0000b5b0       ??9?$CHandle@VC_BaseCombatCharacter@@@@QBE_NPAVC_BaseCombatCharacter@@@Z 2400c5b0 f i basecombatweapon_shared.obj
 0001:0000b5f0       ?RemoveSolidFlags@CCollisionProperty@@QAEXH@Z 2400c5f0 f i basecombatweapon_shared.obj
 0001:0000b610       ?RemoveSolidFlags@C_BaseEntity@@QAEXH@Z 2400c610 f i basecombatweapon_shared.obj
 0001:0000b630       ?GetPrimaryAmmoType@C_BaseCombatWeapon@@UBEHXZ 2400c630 f i basecombatweapon_shared.obj
 0001:0000b640       ?GetSecondaryAmmoType@C_BaseCombatWeapon@@UBEHXZ 2400c640 f i basecombatweapon_shared.obj
 0001:0000b650       ??_GCSingleUserRecipientFilter@@UAEPAXI@Z 2400c650 f i basecombatweapon_shared.obj
 0001:0000b650       ??_ECSingleUserRecipientFilter@@UAEPAXI@Z 2400c650 f i basecombatweapon_shared.obj
 0001:0000b670       ??_ECPASFilter@@UAEPAXI@Z  2400c670 f i basecombatweapon_shared.obj
 0001:0000b670       ??_GCPASFilter@@UAEPAXI@Z  2400c670 f i basecombatweapon_shared.obj
 0001:0000b690       ??_GCPASAttenuationFilter@@UAEPAXI@Z 2400c690 f i basecombatweapon_shared.obj
 0001:0000b690       ??_ECPASAttenuationFilter@@UAEPAXI@Z 2400c690 f i basecombatweapon_shared.obj
 0001:0000b6b0       ?GetOwner@C_BaseCombatWeapon@@QBEPAVC_BaseCombatCharacter@@XZ 2400c6b0 f   basecombatweapon_shared.obj
 0001:0000b700       ?HasAmmo@C_BaseCombatWeapon@@UAE_NXZ 2400c700 f   basecombatweapon_shared.obj
 0001:0000b790       ?MakeTracer@C_BaseCombatWeapon@@UAEXABVVector@@ABVCGameTrace@@H@Z 2400c790 f   basecombatweapon_shared.obj
 0001:0000b8a0       ?SendViewModelAnim@C_BaseCombatWeapon@@UAEXH@Z 2400c8a0 f   basecombatweapon_shared.obj
 0001:0000b910       ?GetViewModelSequenceDuration@C_BaseCombatWeapon@@QAEMXZ 2400c910 f   basecombatweapon_shared.obj
 0001:0000b9a0       ?IsViewModelSequenceFinished@C_BaseCombatWeapon@@QAE_NXZ 2400c9a0 f   basecombatweapon_shared.obj
 0001:0000b9f0       ?SetViewModel@C_BaseCombatWeapon@@UAEXXZ 2400c9f0 f   basecombatweapon_shared.obj
 0001:0000ba80       ?SendWeaponAnim@C_BaseCombatWeapon@@UAE_NH@Z 2400ca80 f   basecombatweapon_shared.obj
 0001:0000ba90       ?HasAnyAmmo@C_BaseCombatWeapon@@UAE_NXZ 2400ca90 f   basecombatweapon_shared.obj
 0001:0000bad0       ?HasPrimaryAmmo@C_BaseCombatWeapon@@UAE_NXZ 2400cad0 f   basecombatweapon_shared.obj
 0001:0000bb60       ?HasSecondaryAmmo@C_BaseCombatWeapon@@UAE_NXZ 2400cb60 f   basecombatweapon_shared.obj
 0001:0000bbe0       ?SetWeaponVisible@C_BaseCombatWeapon@@UAEX_N@Z 2400cbe0 f   basecombatweapon_shared.obj
 0001:0000bc90       ?IsWeaponVisible@C_BaseCombatWeapon@@UAE_NXZ 2400cc90 f   basecombatweapon_shared.obj
 0001:0000bd10       ?Holster@C_BaseCombatWeapon@@UAE_NPAV1@@Z 2400cd10 f   basecombatweapon_shared.obj
 0001:0000bde0       ?WeaponSound@C_BaseCombatWeapon@@UAEXW4WeaponSound_t@@M@Z 2400cde0 f   basecombatweapon_shared.obj
 0001:0000bf80       ?StopWeaponSound@C_BaseCombatWeapon@@UAEXW4WeaponSound_t@@@Z 2400cf80 f   basecombatweapon_shared.obj
 0001:0000c060       ?MaintainIdealActivity@C_BaseCombatWeapon@@QAEXXZ 2400d060 f   basecombatweapon_shared.obj
 0001:0000c0b0       ?Lock@C_BaseCombatWeapon@@QAEXMPAVC_BaseEntity@@@Z 2400d0b0 f   basecombatweapon_shared.obj
 0001:0000c0f0       ?IsLocked@C_BaseCombatWeapon@@QAE_NPAVC_BaseEntity@@@Z 2400d0f0 f   basecombatweapon_shared.obj
 0001:0000c150       ?Set@?$CNetworkVarBase@V?$CHandle@VC_BaseCombatCharacter@@@@VNetworkVar_m_hOwner@C_BaseCombatWeapon@@@@QAEABV?$CHandle@VC_BaseCombatCharacter@@@@ABV2@@Z 2400d150 f i basecombatweapon_shared.obj
 0001:0000c1c0       ?Set@?$CNetworkVarBase@HVNetworkVar_m_nViewModelIndex@C_BaseCombatWeapon@@@@QAEABHABH@Z 2400d1c0 f i basecombatweapon_shared.obj
 0001:0000c1e0       ?Set@?$CNetworkVarBase@MVNetworkVar_m_flNextPrimaryAttack@C_BaseCombatWeapon@@@@QAEABMABM@Z 2400d1e0 f i basecombatweapon_shared.obj
 0001:0000c200       ?Set@?$CNetworkVarBase@MVNetworkVar_m_flNextSecondaryAttack@C_BaseCombatWeapon@@@@QAEABMABM@Z 2400d200 f i basecombatweapon_shared.obj
 0001:0000c220       ?Set@?$CNetworkVarBase@MVNetworkVar_m_flTimeWeaponIdle@C_BaseCombatWeapon@@@@QAEABMABM@Z 2400d220 f i basecombatweapon_shared.obj
 0001:0000c240       ?Set@?$CNetworkVarBase@HVNetworkVar_m_iViewModelIndex@C_BaseCombatWeapon@@@@QAEABHABH@Z 2400d240 f i basecombatweapon_shared.obj
 0001:0000c260       ?Set@?$CNetworkVarBase@HVNetworkVar_m_iWorldModelIndex@C_BaseCombatWeapon@@@@QAEABHABH@Z 2400d260 f i basecombatweapon_shared.obj
 0001:0000c280       ?Set@?$CNetworkVarBase@HVNetworkVar_m_iState@C_BaseCombatWeapon@@@@QAEABHABH@Z 2400d280 f i basecombatweapon_shared.obj
 0001:0000c2a0       ?Set@?$CNetworkVarBase@HVNetworkVar_m_iPrimaryAmmoType@C_BaseCombatWeapon@@@@QAEABHABH@Z 2400d2a0 f i basecombatweapon_shared.obj
 0001:0000c2c0       ?Set@?$CNetworkVarBase@HVNetworkVar_m_iSecondaryAmmoType@C_BaseCombatWeapon@@@@QAEABHABH@Z 2400d2c0 f i basecombatweapon_shared.obj
 0001:0000c2e0       ?Set@?$CNetworkVarBase@HVNetworkVar_m_iClip1@C_BaseCombatWeapon@@@@QAEABHABH@Z 2400d2e0 f i basecombatweapon_shared.obj
 0001:0000c300       ?Set@?$CNetworkVarBase@HVNetworkVar_m_iClip2@C_BaseCombatWeapon@@@@QAEABHABH@Z 2400d300 f i basecombatweapon_shared.obj
 0001:0000c320       ?ItemPreFrame@C_BaseCombatWeapon@@UAEXXZ 2400d320 f   basecombatweapon_shared.obj
 0001:0000c370       ??4?$CNetworkVarBase@V?$CHandle@VC_BaseCombatCharacter@@@@VNetworkVar_m_hOwner@C_BaseCombatWeapon@@@@QAEABV?$CHandle@VC_BaseCombatCharacter@@@@ABV1@@Z 2400d370 f i basecombatweapon_shared.obj
 0001:0000c380       ??4?$CNetworkVarBase@HVNetworkVar_m_nViewModelIndex@C_BaseCombatWeapon@@@@QAEABHABH@Z 2400d380 f i basecombatweapon_shared.obj
 0001:0000c3a0       ??4?$CNetworkVarBase@MVNetworkVar_m_flNextPrimaryAttack@C_BaseCombatWeapon@@@@QAEABMABM@Z 2400d3a0 f i basecombatweapon_shared.obj
 0001:0000c3c0       ??4?$CNetworkVarBase@MVNetworkVar_m_flNextSecondaryAttack@C_BaseCombatWeapon@@@@QAEABMABM@Z 2400d3c0 f i basecombatweapon_shared.obj
 0001:0000c3e0       ??4?$CNetworkVarBase@MVNetworkVar_m_flTimeWeaponIdle@C_BaseCombatWeapon@@@@QAEABMABM@Z 2400d3e0 f i basecombatweapon_shared.obj
 0001:0000c400       ??4?$CNetworkVarBase@HVNetworkVar_m_iViewModelIndex@C_BaseCombatWeapon@@@@QAEABHABH@Z 2400d400 f i basecombatweapon_shared.obj
 0001:0000c420       ??4?$CNetworkVarBase@HVNetworkVar_m_iWorldModelIndex@C_BaseCombatWeapon@@@@QAEABHABH@Z 2400d420 f i basecombatweapon_shared.obj
 0001:0000c440       ??4?$CNetworkVarBase@HVNetworkVar_m_iState@C_BaseCombatWeapon@@@@QAEABHABH@Z 2400d440 f i basecombatweapon_shared.obj
 0001:0000c460       ??4?$CNetworkVarBase@HVNetworkVar_m_iPrimaryAmmoType@C_BaseCombatWeapon@@@@QAEABHABH@Z 2400d460 f i basecombatweapon_shared.obj
 0001:0000c480       ??4?$CNetworkVarBase@HVNetworkVar_m_iSecondaryAmmoType@C_BaseCombatWeapon@@@@QAEABHABH@Z 2400d480 f i basecombatweapon_shared.obj
 0001:0000c4a0       ??4?$CNetworkVarBase@HVNetworkVar_m_iClip1@C_BaseCombatWeapon@@@@QAEABHABH@Z 2400d4a0 f i basecombatweapon_shared.obj
 0001:0000c4c0       ??Y?$CNetworkVarBase@HVNetworkVar_m_iClip1@C_BaseCombatWeapon@@@@QAEABHABH@Z 2400d4c0 f i basecombatweapon_shared.obj
 0001:0000c4e0       ??Z?$CNetworkVarBase@HVNetworkVar_m_iClip1@C_BaseCombatWeapon@@@@QAEABHABH@Z 2400d4e0 f i basecombatweapon_shared.obj
 0001:0000c500       ??4?$CNetworkVarBase@HVNetworkVar_m_iClip2@C_BaseCombatWeapon@@@@QAEABHABH@Z 2400d500 f i basecombatweapon_shared.obj
 0001:0000c520       ??Y?$CNetworkVarBase@HVNetworkVar_m_iClip2@C_BaseCombatWeapon@@@@QAEABHABH@Z 2400d520 f i basecombatweapon_shared.obj
 0001:0000c540       ??0C_BaseCombatWeapon@@QAE@XZ 2400d540 f   basecombatweapon_shared.obj
 0001:0000c610       ?Spawn@C_BaseCombatWeapon@@UAEXXZ 2400d610 f   basecombatweapon_shared.obj
 0001:0000c710       ?Precache@C_BaseCombatWeapon@@UAEXXZ 2400d710 f   basecombatweapon_shared.obj
 0001:0000c8f0       ?SetOwner@C_BaseCombatWeapon@@QAEXPAVC_BaseCombatCharacter@@@Z 2400d8f0 f   basecombatweapon_shared.obj
 0001:0000c930       ?SetWeaponIdleTime@C_BaseCombatWeapon@@UAEXM@Z 2400d930 f   basecombatweapon_shared.obj
 0001:0000c950       ?Equip@C_BaseCombatWeapon@@UAEXPAVC_BaseCombatCharacter@@@Z 2400d950 f   basecombatweapon_shared.obj
 0001:0000cad0       ?UpdateClientData@C_BaseCombatWeapon@@UAEHPAVC_BasePlayer@@@Z 2400dad0 f   basecombatweapon_shared.obj
 0001:0000cb30       ?SetViewModelIndex@C_BaseCombatWeapon@@UAEXH@Z 2400db30 f   basecombatweapon_shared.obj
 0001:0000cb50       ?ReloadOrSwitchWeapons@C_BaseCombatWeapon@@UAE_NXZ 2400db50 f   basecombatweapon_shared.obj
 0001:0000cc90       ?DefaultDeploy@C_BaseCombatWeapon@@UAE_NPAD0H0@Z 2400dc90 f   basecombatweapon_shared.obj
 0001:0000cde0       ?ItemPostFrame@C_BaseCombatWeapon@@UAEXXZ 2400dde0 f   basecombatweapon_shared.obj
 0001:0000d0c0       ?DefaultReload@C_BaseCombatWeapon@@QAE_NHHH@Z 2400e0c0 f   basecombatweapon_shared.obj
 0001:0000d260       ?Reload@C_BaseCombatWeapon@@UAE_NXZ 2400e260 f   basecombatweapon_shared.obj
 0001:0000d290       ?CheckReload@C_BaseCombatWeapon@@UAEXXZ 2400e290 f   basecombatweapon_shared.obj
 0001:0000d420       ?FinishReload@C_BaseCombatWeapon@@UAEXXZ 2400e420 f   basecombatweapon_shared.obj
 0001:0000d590       ?PrimaryAttack@C_BaseCombatWeapon@@UAEXXZ 2400e590 f   basecombatweapon_shared.obj
 0001:0000d8a0       ?GetDamage@CTakeDamageInfo@@QBEMXZ 2400e8a0 f i baseentity_shared.obj
 0001:0000d8b0       ?GetDamageType@CTakeDamageInfo@@QBEHXZ 2400e8b0 f i baseentity_shared.obj
 0001:0000d8c0       ?SetDamageType@CTakeDamageInfo@@QAEXH@Z 2400e8c0 f i baseentity_shared.obj
 0001:0000d8d0       ?SetAmmoType@CTakeDamageInfo@@QAEXH@Z 2400e8d0 f i baseentity_shared.obj
 0001:0000d8e0       ?GetShotDirection@CShotManipulator@@QAEABVVector@@XZ 2400e8e0 f i baseentity_shared.obj
 0001:0000d8f0       ?FloatBits@@YAAAKAAM@Z     2400e8f0 f i baseentity_shared.obj
 0001:0000d900       ?IsFinite@@YA_NM@Z         2400e900 f i baseentity_shared.obj
 0001:0000d920       ??9color32_s@@QBE_NABU0@@Z 2400e920 f i baseentity_shared.obj
 0001:0000d950       ?SpawnBlood@@YAXVVector@@ABV1@HM@Z 2400e950 f   baseentity_shared.obj
 0001:0000d990       ?EyeAngles@C_BaseEntity@@UAEABVQAngle@@XZ 2400e990 f   baseentity_shared.obj
 0001:0000d9a0       ?LocalEyeAngles@C_BaseEntity@@UAEABVQAngle@@XZ 2400e9a0 f   baseentity_shared.obj
 0001:0000d9b0       ?EarPosition@C_BaseEntity@@UAE?AVVector@@XZ 2400e9b0 f   baseentity_shared.obj
 0001:0000d9d0       ?AddFlag@C_BaseEntity@@QAEXH@Z 2400e9d0 f   baseentity_shared.obj
 0001:0000d9e0       ?RemoveFlag@C_BaseEntity@@QAEXH@Z 2400e9e0 f   baseentity_shared.obj
 0001:0000d9f0       ?ClearFlags@C_BaseEntity@@QAEXXZ 2400e9f0 f   baseentity_shared.obj
 0001:0000da00       ?ToggleFlag@C_BaseEntity@@QAEXH@Z 2400ea00 f   baseentity_shared.obj
 0001:0000da10       ?SetEffects@C_BaseEntity@@QAEXH@Z 2400ea10 f   baseentity_shared.obj
 0001:0000da30       ?AddEffects@C_BaseEntity@@QAEXH@Z 2400ea30 f   baseentity_shared.obj
 0001:0000da50       ?ParseMapData@C_BaseEntity@@UAEXPAVCEntityMapData@@@Z 2400ea50 f   baseentity_shared.obj
 0001:0000dac0       ?KeyValue@C_BaseEntity@@UAE_NPBDM@Z 2400eac0 f   baseentity_shared.obj
 0001:0000db10       ?Q_memset@@YAXPAXHH@Z      2400eb10 f i baseentity_shared.obj
 0001:0000db40       ?KeyValue@C_BaseEntity@@UAE_NPBDVVector@@@Z 2400eb40 f   baseentity_shared.obj
 0001:0000dbb0       ?ShouldCollide@C_BaseEntity@@UBE_NHH@Z 2400ebb0 f   baseentity_shared.obj
 0001:0000dbd0       ?SetPredictionRandomSeed@C_BaseEntity@@SAXPBVCUserCmd@@@Z 2400ebd0 f   baseentity_shared.obj
 0001:0000dbf0       ?DamageDecal@C_BaseEntity@@UAEPBDHH@Z 2400ebf0 f   baseentity_shared.obj
 0001:0000dc30       ?VPhysicsSetObject@C_BaseEntity@@QAEXPAVIPhysicsObject@@@Z 2400ec30 f   baseentity_shared.obj
 0001:0000dc80       ?VPhysicsDestroyObject@C_BaseEntity@@UAEXXZ 2400ec80 f   baseentity_shared.obj
 0001:0000dcb0       ?VPhysicsInitSetup@C_BaseEntity@@AAE_NXZ 2400ecb0 f   baseentity_shared.obj
 0001:0000dcc0       ?CreateVPhysics@C_BaseEntity@@UAE_NXZ 2400ecc0 f   baseentity_shared.obj
 0001:0000dcd0       ?IsBSPModel@C_BaseEntity@@QBE_NXZ 2400ecd0 f   baseentity_shared.obj
 0001:0000dd30       ?LengthSqr@Vector@@QBEMXZ  2400ed30 f i baseentity_shared.obj
 0001:0000dd50       ?IsPrecacheAllowed@C_BaseEntity@@SA_NXZ 2400ed50 f   baseentity_shared.obj
 0001:0000dd60       ?SetAllowPrecache@C_BaseEntity@@SAX_N@Z 2400ed60 f   baseentity_shared.obj
 0001:0000dd70       ?VectorClear@@YAXAAVVector@@@Z 2400ed70 f i baseentity_shared.obj
 0001:0000dd80       ?Base@Vector@@QAEPAMXZ     2400ed80 f i baseentity_shared.obj
 0001:0000dd90       ?IsValid@Vector@@QBE_NXZ   2400ed90 f i baseentity_shared.obj
 0001:0000dde0       ??9Vector@@QBE_NABV0@@Z    2400ede0 f i baseentity_shared.obj
 0001:0000de20       ?VectorCopy@@YAXABVVector@@AAV1@@Z 2400ee20 f i baseentity_shared.obj
 0001:0000de40       ??YVector@@QAEAAV0@ABV0@@Z 2400ee40 f i baseentity_shared.obj
 0001:0000de70       ??4cplane_t@@QAEAAU0@ABU0@@Z 2400ee70 f i baseentity_shared.obj
 0001:0000deb0       ??XVector@@QAEAAV0@M@Z     2400eeb0 f i baseentity_shared.obj
 0001:0000dee0       ?ShouldDrawUnderwaterBulletBubbles@C_BaseEntity@@UAE_NXZ 2400eee0 f   baseentity_shared.obj
 0001:0000def0       ?DispatchTraceAttack@C_BaseEntity@@UAEXABVCTakeDamageInfo@@ABVVector@@PAVCGameTrace@@@Z 2400eef0 f   baseentity_shared.obj
 0001:0000df00       ?DoImpactEffect@C_BaseEntity@@UAEXAAVCGameTrace@@H@Z 2400ef00 f   baseentity_shared.obj
 0001:0000df20       ?VectorLerp@@YAXABVVector@@0MAAV1@@Z 2400ef20 f i baseentity_shared.obj
 0001:0000df60       ?MakeTracer@C_BaseEntity@@UAEXABVVector@@ABVCGameTrace@@H@Z 2400ef60 f   baseentity_shared.obj
 0001:0000dff0       ?BloodColor@C_BaseEntity@@UAEHXZ 2400eff0 f   baseentity_shared.obj
 0001:0000e000       ?GetTracerType@C_BaseEntity@@UAEPBDXZ 2400f000 f   baseentity_shared.obj
 0001:0000e010       ??D@YA?AVVector@@MABV0@@Z  2400f010 f i baseentity_shared.obj
 0001:0000e060       ?VectorAdd@@YAXABVQAngle@@0AAV1@@Z 2400f060 f i baseentity_shared.obj
 0001:0000e090       ??4QAngle@@QAEAAV0@ABV0@@Z 2400f090 f i baseentity_shared.obj
 0001:0000e0b0       ??AQAngle@@QBEMH@Z         2400f0b0 f i baseentity_shared.obj
 0001:0000e0c0       ?Base@QAngle@@QAEPAMXZ     2400f0c0 f i baseentity_shared.obj
 0001:0000e0d0       ??8QAngle@@QBE_NABV0@@Z    2400f0d0 f i baseentity_shared.obj
 0001:0000e110       ?AngularImpulseToQAngle@@YAXABVVector@@AAVQAngle@@@Z 2400f110 f i baseentity_shared.obj
 0001:0000e130       ?Get@?$CHandle@VC_BasePlayer@@@@QBEPAVC_BasePlayer@@XZ 2400f130 f i baseentity_shared.obj
 0001:0000e160       ??9?$CHandle@VC_BasePlayer@@@@QBE_NPAVC_BasePlayer@@@Z 2400f160 f i baseentity_shared.obj
 0001:0000e1a0       ??C?$CHandle@VC_BasePlayer@@@@QBEPAVC_BasePlayer@@XZ 2400f1a0 f i baseentity_shared.obj
 0001:0000e1d0       ?FStrEq@@YA_NPBD0@Z        2400f1d0 f i baseentity_shared.obj
 0001:0000e1f0       ?VectorTransform@@YAXABVVector@@ABUmatrix3x4_t@@AAV1@@Z 2400f1f0 f i baseentity_shared.obj
 0001:0000e200       ?Count@?$CUtlVector@Uthinkfunc_t@@V?$CUtlMemory@Uthinkfunc_t@@@@@@QBEHXZ 2400f200 f i baseentity_shared.obj
 0001:0000e210       ?Size@?$CUtlVector@Uthinkfunc_t@@V?$CUtlMemory@Uthinkfunc_t@@@@@@QBEHXZ 2400f210 f i baseentity_shared.obj
 0001:0000e220       ?InvalidIndex@?$CUtlVector@Uthinkfunc_t@@V?$CUtlMemory@Uthinkfunc_t@@@@@@SAHXZ 2400f220 f i baseentity_shared.obj
 0001:0000e230       ??0cplane_t@@QAE@XZ        2400f230 f i baseentity_shared.obj
 0001:0000e240       ?Init@Ray_t@@QAEXABVVector@@0@Z 2400f240 f i baseentity_shared.obj
 0001:0000e2d0       ?Init@Ray_t@@QAEXABVVector@@000@Z 2400f2d0 f i baseentity_shared.obj
 0001:0000e430       ??0Ray_t@@QAE@XZ           2400f430 f i baseentity_shared.obj
 0001:0000e440       ?Set@?$CHandle@VC_BasePlayer@@@@QAEXPBVC_BasePlayer@@@Z 2400f440 f i baseentity_shared.obj
 0001:0000e470       ?Base@?$CUtlMemory@Uthinkfunc_t@@@@QBEPBUthinkfunc_t@@XZ 2400f470 f i baseentity_shared.obj
 0001:0000e480       ?Base@?$CUtlMemory@Uthinkfunc_t@@@@QAEPAUthinkfunc_t@@XZ 2400f480 f i baseentity_shared.obj
 0001:0000e490       ?VPhysicsGetObject@C_BaseEntity@@QBEPAVIPhysicsObject@@XZ 2400f490 f i baseentity_shared.obj
 0001:0000e4a0       ?NetworkStateChanged@NetworkVar_m_clrRender@C_BaseEntity@@SAXPAX@Z 2400f4a0 f i baseentity_shared.obj
 0001:0000e4b0       ?CollisionProp@C_BaseEntity@@QBEPBVCCollisionProperty@@XZ 2400f4b0 f i baseentity_shared.obj
 0001:0000e4c0       ?GetAbsVelocity@C_BaseEntity@@QBEABVVector@@XZ 2400f4c0 f i baseentity_shared.obj
 0001:0000e4d0       ?SetSolidFlags@C_BaseEntity@@QAEXH@Z 2400f4d0 f i baseentity_shared.obj
 0001:0000e4e0       ?GetLocalAngularVelocity@C_BaseEntity@@QBEABVQAngle@@XZ 2400f4e0 f i baseentity_shared.obj
 0001:0000e4f0       ?AddEFlags@C_BaseEntity@@QAEXH@Z 2400f4f0 f i baseentity_shared.obj
 0001:0000e500       ?IsEFlagSet@C_BaseEntity@@QBE_NH@Z 2400f500 f i baseentity_shared.obj
 0001:0000e520       ?GetParentAttachment@C_BaseEntity@@QBEEXZ 2400f520 f i baseentity_shared.obj
 0001:0000e530       ??$CopyConstruct@Uthinkfunc_t@@@@YAXPAUthinkfunc_t@@ABU0@@Z 2400f530 f i baseentity_shared.obj
 0001:0000e550       ?NumAllocated@?$CUtlMemory@Uthinkfunc_t@@@@QBEHXZ 2400f550 f i baseentity_shared.obj
 0001:0000e560       ?IsExternallyAllocated@?$CUtlMemory@Uthinkfunc_t@@@@QBE_NXZ 2400f560 f i baseentity_shared.obj
 0001:0000e570       ?GetMoveType@C_BaseEntity@@QBE?AW4MoveType_t@@XZ 2400f570 f i baseentity_shared.obj
 0001:0000e580       ?GetCollisionGroup@C_BaseEntity@@QBEHXZ 2400f580 f i baseentity_shared.obj
 0001:0000e590       ?GetPredictionRandomSeed@C_BaseEntity@@SAHXZ 2400f590 f i baseentity_shared.obj
 0001:0000e5a0       ??0CBroadcastRecipientFilter@@QAE@XZ 2400f5a0 f i baseentity_shared.obj
 0001:0000e5c0       ??1CBroadcastRecipientFilter@@UAE@XZ 2400f5c0 f i baseentity_shared.obj
 0001:0000e5d0       ??B?$CNetworkVarBase@VVector@@VNetworkVar_m_vecMins@CCollisionProperty@@@@QBE?BVVector@@XZ 2400f5d0 f i baseentity_shared.obj
 0001:0000e5f0       ??B?$CNetworkVarBase@VVector@@VNetworkVar_m_vecMaxs@CCollisionProperty@@@@QBE?BVVector@@XZ 2400f5f0 f i baseentity_shared.obj
 0001:0000e610       ??B?$CNetworkVarBase@W4SolidType_t@@VNetworkVar_m_Solid@CCollisionProperty@@@@QBE?BW4SolidType_t@@XZ 2400f610 f i baseentity_shared.obj
 0001:0000e620       ??B?$CNetworkVarBase@EVNetworkVar_m_nSurroundType@CCollisionProperty@@@@QBE?BEXZ 2400f620 f i baseentity_shared.obj
 0001:0000e630       ??B?$CNetworkVarBase@Ucolor32_s@@VNetworkVar_m_clrRender@C_BaseEntity@@@@QBE?BUcolor32_s@@XZ 2400f630 f i baseentity_shared.obj
 0001:0000e640       ?NetworkStateChanged@?$CNetworkVarBase@Ucolor32_s@@VNetworkVar_m_clrRender@C_BaseEntity@@@@IAEXXZ 2400f640 f i baseentity_shared.obj
 0001:0000e650       ??B?$CHandle@VC_BaseEntity@@@@QBEPAVC_BaseEntity@@XZ 2400f650 f i baseentity_shared.obj
 0001:0000e680       ??0CEffectData@@QAE@XZ     2400f680 f i baseentity_shared.obj
 0001:0000e6e0       ?ScaleDamageForce@CTakeDamageInfo@@QAEXM@Z 2400f6e0 f i baseentity_shared.obj
 0001:0000e700       ?GetTarget@CMultiDamage@@QBEPAVC_BaseEntity@@XZ 2400f700 f i baseentity_shared.obj
 0001:0000e730       ?SetShootDir@CShotManipulator@@QAEXABVVector@@@Z 2400f730 f i baseentity_shared.obj
 0001:0000e760       ?ApplySpread@CShotManipulator@@QAEABVVector@@ABV2@M@Z 2400f760 f i baseentity_shared.obj
 0001:0000e9d0       ?EyePosition@C_BaseEntity@@UAE?AVVector@@XZ 2400f9d0 f   baseentity_shared.obj
 0001:0000ea30       ?SetBlocksLOS@C_BaseEntity@@QAEX_N@Z 2400fa30 f   baseentity_shared.obj
 0001:0000ea50       ?BlocksLOS@C_BaseEntity@@QAE_NXZ 2400fa50 f   baseentity_shared.obj
 0001:0000ea60       ?SetAIWalkable@C_BaseEntity@@QAEX_N@Z 2400fa60 f   baseentity_shared.obj
 0001:0000ea80       ?IsAIWalkable@C_BaseEntity@@QAE_NXZ 2400fa80 f   baseentity_shared.obj
 0001:0000ea90       ?DecalTrace@C_BaseEntity@@UAEXPAVCGameTrace@@PBD@Z 2400fa90 f   baseentity_shared.obj
 0001:0000eb10       ?ImpactTrace@C_BaseEntity@@UAEXPAVCGameTrace@@HPAD@Z 2400fb10 f   baseentity_shared.obj
 0001:0000ec00       ?WillSimulateGamePhysics@C_BaseEntity@@QAE_NXZ 2400fc00 f   baseentity_shared.obj
 0001:0000ec30       ?CheckHasGamePhysicsSimulation@C_BaseEntity@@QAEXXZ 2400fc30 f   baseentity_shared.obj
 0001:0000ec90       ?VPhysicsInitStatic@C_BaseEntity@@QAEPAVIPhysicsObject@@XZ 2400fc90 f   baseentity_shared.obj
 0001:0000ed30       ?VPhysicsInitNormal@C_BaseEntity@@QAEPAVIPhysicsObject@@W4SolidType_t@@H_NPAUsolid_t@@@Z 2400fd30 f   baseentity_shared.obj
 0001:0000edc0       ?IsStandable@C_BaseEntity@@QBE_NXZ 2400fdc0 f   baseentity_shared.obj
 0001:0000ee10       ??4CBaseTrace@@QAEAAV0@ABV0@@Z 2400fe10 f i baseentity_shared.obj
 0001:0000ee90       ?ComputeTracerStartPosition@C_BaseEntity@@QAEXABVVector@@PAV2@@Z 2400fe90 f   baseentity_shared.obj
 0001:0000f0a0       ?AllocTempVector@@YAAAVVector@@XZ 240100a0 f i baseentity_shared.obj
 0001:0000f0d0       ?ApplyAbsVelocityImpulse@C_BaseEntity@@QAEXABVVector@@@Z 240100d0 f   baseentity_shared.obj
 0001:0000f180       ?ApplyLocalAngularVelocityImpulse@C_BaseEntity@@QAEXABVVector@@@Z 24010180 f   baseentity_shared.obj
 0001:0000f220       ?CollisionRulesChanged@C_BaseEntity@@QAEXXZ 24010220 f   baseentity_shared.obj
 0001:0000f270       ??4?$CHandle@VC_BasePlayer@@@@QAEABVCBaseHandle@@PBVC_BasePlayer@@@Z 24010270 f i baseentity_shared.obj
 0001:0000f2a0       ?Base@?$CUtlVector@Uthinkfunc_t@@V?$CUtlMemory@Uthinkfunc_t@@@@@@QAEPAUthinkfunc_t@@XZ 240102a0 f i baseentity_shared.obj
 0001:0000f2b0       ?Base@?$CUtlVector@Uthinkfunc_t@@V?$CUtlMemory@Uthinkfunc_t@@@@@@QBEPBUthinkfunc_t@@XZ 240102b0 f i baseentity_shared.obj
 0001:0000f2c0       ??0CBaseTrace@@QAE@XZ      240102c0 f i baseentity_shared.obj
 0001:0000f2d0       ??0CGameTrace@@QAE@XZ      240102d0 f i baseentity_shared.obj
 0001:0000f2e0       ?UTIL_TraceLine@@YAXABVVector@@0IPBVIHandleEntity@@HPAVCGameTrace@@@Z 240102e0 f i baseentity_shared.obj
 0001:0000f360       ?UTIL_TraceLine@@YAXABVVector@@0IPAVITraceFilter@@PAVCGameTrace@@@Z 24010360 f i baseentity_shared.obj
 0001:0000f3d0       ?UTIL_TraceHull@@YAXABVVector@@000IPAVITraceFilter@@PAVCGameTrace@@@Z 240103d0 f i baseentity_shared.obj
 0001:0000f450       ?IsBoundsDefinedInEntitySpace@CCollisionProperty@@QBE_NXZ 24010450 f i baseentity_shared.obj
 0001:0000f470       ?AddSolidFlags@CCollisionProperty@@QAEXH@Z 24010470 f i baseentity_shared.obj
 0001:0000f490       ?IsSolidFlagSet@CCollisionProperty@@QBE_NH@Z 24010490 f i baseentity_shared.obj
 0001:0000f4b0       ?OBBCenter@CCollisionProperty@@QBEABVVector@@XZ 240104b0 f i baseentity_shared.obj
 0001:0000f560       ?CollisionToWorldSpace@CCollisionProperty@@QBEABVVector@@ABV2@PAV2@@Z 24010560 f i baseentity_shared.obj
 0001:0000f600       ?DoesRotationInvalidateSurroundingBox@CCollisionProperty@@QBE_NXZ 24010600 f i baseentity_shared.obj
 0001:0000f660       ?AddSolidFlags@C_BaseEntity@@QAEXH@Z 24010660 f i baseentity_shared.obj
 0001:0000f680       ?GetMoveParent@C_BaseEntity@@QBEPAV1@XZ 24010680 f i baseentity_shared.obj
 0001:0000f6b0       ?FirstMoveChild@C_BaseEntity@@QBEPAV1@XZ 240106b0 f i baseentity_shared.obj
 0001:0000f6e0       ?NextMovePeer@C_BaseEntity@@QBEPAV1@XZ 240106e0 f i baseentity_shared.obj
 0001:0000f710       ?GetRenderColor@C_BaseEntity@@QBE?BUcolor32_s@@XZ 24010710 f i baseentity_shared.obj
 0001:0000f720       ?Element@?$CUtlVector@Uthinkfunc_t@@V?$CUtlMemory@Uthinkfunc_t@@@@@@QAEAAUthinkfunc_t@@H@Z 24010720 f i baseentity_shared.obj
 0001:0000f730       ?ShiftElementsRight@?$CUtlVector@Uthinkfunc_t@@V?$CUtlMemory@Uthinkfunc_t@@@@@@IAEXHH@Z 24010730 f i baseentity_shared.obj
 0001:0000f770       ?ResetDbgInfo@?$CUtlVector@Uthinkfunc_t@@V?$CUtlMemory@Uthinkfunc_t@@@@@@IAEXXZ 24010770 f i baseentity_shared.obj
 0001:0000f780       ?Grow@?$CUtlMemory@Uthinkfunc_t@@@@QAEXH@Z 24010780 f i baseentity_shared.obj
 0001:0000f7f0       ??_ECBroadcastRecipientFilter@@UAEPAXI@Z 240107f0 f i baseentity_shared.obj
 0001:0000f7f0       ??_GCBroadcastRecipientFilter@@UAEPAXI@Z 240107f0 f i baseentity_shared.obj
 0001:0000f810       ?Set@?$CNetworkVarBase@Ucolor32_s@@VNetworkVar_m_clrRender@C_BaseEntity@@@@QAEABUcolor32_s@@ABU2@@Z 24010810 f i baseentity_shared.obj
 0001:0000f840       ??4?$CHandle@VC_BaseEntity@@@@QAEABVCBaseHandle@@PBVC_BaseEntity@@@Z 24010840 f i baseentity_shared.obj
 0001:0000f870       ??0CShotManipulator@@QAE@ABVVector@@@Z 24010870 f i baseentity_shared.obj
 0001:0000f8a0       ?SetPlayerSimulated@C_BaseEntity@@QAEXPAVC_BasePlayer@@@Z 240108a0 f   baseentity_shared.obj
 0001:0000f8e0       ?UnsetPlayerSimulated@C_BaseEntity@@QAEXXZ 240108e0 f   baseentity_shared.obj
 0001:0000f960       ?InvalidatePhysicsRecursive@C_BaseEntity@@QAEXH@Z 24010960 f   baseentity_shared.obj
 0001:0000fab0       ?GetRootMoveParent@C_BaseEntity@@QAEPAV1@XZ 24010ab0 f   baseentity_shared.obj
 0001:0000fb20       ??4CGameTrace@@QAEAAV0@ABV0@@Z 24010b20 f i baseentity_shared.obj
 0001:0000fb70       ?HandleShotImpactingWater@C_BaseEntity@@UAE_NABUFireBulletsInfo_t@@ABVVector@@PAVITraceFilter@@PAV3@@Z 24010b70 f   baseentity_shared.obj
 0001:0000fcf0       ?TraceBleed@C_BaseEntity@@QAEXMABVVector@@PAVCGameTrace@@H@Z 24010cf0 f   baseentity_shared.obj
 0001:0000ff60       ?FollowEntity@C_BaseEntity@@QAEXPAV1@_N@Z 24010f60 f   baseentity_shared.obj
 0001:0000ffd0       ?SetEffectEntity@C_BaseEntity@@QAEXPAV1@@Z 24010fd0 f   baseentity_shared.obj
 0001:00010030       ?ApplyLocalVelocityImpulse@C_BaseEntity@@QAEXABVVector@@@Z 24011030 f   baseentity_shared.obj
 0001:000100f0       ?SetCollisionGroup@C_BaseEntity@@QAEXH@Z 240110f0 f   baseentity_shared.obj
 0001:00010110       ?IsSimulatingOnAlternateTicks@C_BaseEntity@@SA_NXZ 24011110 f   baseentity_shared.obj
 0001:00010130       ??A?$CUtlVector@Uthinkfunc_t@@V?$CUtlMemory@Uthinkfunc_t@@@@@@QBEABUthinkfunc_t@@H@Z 24011130 f i baseentity_shared.obj
 0001:00010140       ??A?$CUtlVector@Uthinkfunc_t@@V?$CUtlMemory@Uthinkfunc_t@@@@@@QAEAAUthinkfunc_t@@H@Z 24011140 f i baseentity_shared.obj
 0001:00010150       ?WorldSpaceCenter@CCollisionProperty@@QBEABVVector@@XZ 24011150 f i baseentity_shared.obj
 0001:000101a0       ?GrowVector@?$CUtlVector@Uthinkfunc_t@@V?$CUtlMemory@Uthinkfunc_t@@@@@@IAEXH@Z 240111a0 f i baseentity_shared.obj
 0001:000101d0       ??4?$CNetworkVarBase@Ucolor32_s@@VNetworkVar_m_clrRender@C_BaseEntity@@@@QAEABUcolor32_s@@ABU1@@Z 240111d0 f i baseentity_shared.obj
 0001:00010200       ?WorldSpaceCenter@C_BaseEntity@@UBEABVVector@@XZ 24011200 f   baseentity_shared.obj
 0001:00010250       ?GetIndexForThinkContext@C_BaseEntity@@IAEHPBD@Z 24011250 f   baseentity_shared.obj
 0001:000102b0       ?GetNextThink@C_BaseEntity@@QAEMPBD@Z 240112b0 f   baseentity_shared.obj
 0001:00010320       ?GetNextThinkTick@C_BaseEntity@@QAEHPBD@Z 24011320 f   baseentity_shared.obj
 0001:00010360       ?GetLastThink@C_BaseEntity@@QAEMPBD@Z 24011360 f   baseentity_shared.obj
 0001:000103a0       ?GetLastThinkTick@C_BaseEntity@@QAEHPBD@Z 240113a0 f   baseentity_shared.obj
 0001:000103d0       ?WillThink@C_BaseEntity@@QAE_NXZ 240113d0 f   baseentity_shared.obj
 0001:00010410       ?CheckHasThinkFunction@C_BaseEntity@@QAEX_N@Z 24011410 f   baseentity_shared.obj
 0001:00010470       ?SetLastThink@C_BaseEntity@@AAEXHM@Z 24011470 f   baseentity_shared.obj
 0001:000104e0       ?GetNextThink@C_BaseEntity@@ABEMH@Z 240114e0 f   baseentity_shared.obj
 0001:00010510       ?GetNextThinkTick@C_BaseEntity@@ABEHH@Z 24011510 f   baseentity_shared.obj
 0001:00010540       ?VPhysicsUpdate@C_BaseEntity@@UAEXPAVIPhysicsObject@@@Z 24011540 f   baseentity_shared.obj
 0001:00010640       ?FireBullets@C_BaseEntity@@UAEXABUFireBulletsInfo_t@@@Z 24011640 f   baseentity_shared.obj
 0001:00010de0       ?TraceAttack@C_BaseEntity@@UAEXABVCTakeDamageInfo@@ABVVector@@PAVCGameTrace@@@Z 24011de0 f   baseentity_shared.obj
 0001:00010ee0       ?InsertBefore@?$CUtlVector@Uthinkfunc_t@@V?$CUtlMemory@Uthinkfunc_t@@@@@@QAEHHABUthinkfunc_t@@@Z 24011ee0 f i baseentity_shared.obj
 0001:00010f50       ?SetRenderColor@C_BaseEntity@@QAEXEEE@Z 24011f50 f i baseentity_shared.obj
 0001:00010fa0       ?SetRenderColor@C_BaseEntity@@QAEXEEEE@Z 24011fa0 f i baseentity_shared.obj
 0001:00010ff0       ?SetRenderColorA@C_BaseEntity@@QAEXE@Z 24011ff0 f i baseentity_shared.obj
 0001:00011040       ?KeyValue@C_BaseEntity@@UAE_NPBD0@Z 24012040 f   baseentity_shared.obj
 0001:000113a0       ?AddToTail@?$CUtlVector@Uthinkfunc_t@@V?$CUtlMemory@Uthinkfunc_t@@@@@@QAEHABUthinkfunc_t@@@Z 240123a0 f i baseentity_shared.obj
 0001:000113c0       ?RegisterThinkContext@C_BaseEntity@@QAEHPBD@Z 240123c0 f   baseentity_shared.obj
 0001:00011440       ?ThinkSet@C_BaseEntity@@QAEP81@AEXXZP81@AEXXZMPBD@Z 24012440 f   baseentity_shared.obj
 0001:00011560       ?SetNextThink@C_BaseEntity@@QAEXMPBD@Z 24012560 f   baseentity_shared.obj
 0001:00011610       ?SetNextThink@C_BaseEntity@@AAEXHM@Z 24012610 f   baseentity_shared.obj
 0001:000116f0       ?GetClassName@C_BaseGrenade@@UAEPBDXZ 240126f0 f   basegrenade_shared.obj
 0001:00011700       ?YouForgotToImplementOrDeclareClientClass@C_BaseGrenade@@UAEHXZ 24012700 f   basegrenade_shared.obj
 0001:00011710       ?GetClientClass@C_BaseGrenade@@UAEPAVClientClass@@XZ 24012710 f   basegrenade_shared.obj
 0001:00011720       ??$ClientClassInit@Uignored@DT_BaseGrenade@@@@YAHPAUignored@DT_BaseGrenade@@@Z 24012720 f   basegrenade_shared.obj
 0001:00011850       ?GetPredDescMap@C_BaseGrenade@@UAEPAUdatamap_t@@XZ 24012850 f   basegrenade_shared.obj
 0001:00011860       ??$PredMapInit@VC_BaseGrenade@@@@YAPAUdatamap_t@@PAVC_BaseGrenade@@@Z 24012860 f   basegrenade_shared.obj
 0001:00011880       ?Explode@C_BaseGrenade@@UAEXPAVCGameTrace@@H@Z 24012880 f   basegrenade_shared.obj
 0001:00011890       ?Event_Killed@C_BaseGrenade@@UAEXABVCTakeDamageInfo@@@Z 24012890 f   basegrenade_shared.obj
 0001:000118a0       ?BounceSound@C_BaseGrenade@@UAEXXZ 240128a0 f   basegrenade_shared.obj
 0001:000118b0       ?Precache@C_BaseGrenade@@UAEXXZ 240128b0 f   basegrenade_shared.obj
 0001:000118d0       ??1C_BaseGrenade@@UAE@XZ   240128d0 f   basegrenade_shared.obj
 0001:000118f0       ?GetBlastForce@C_BaseGrenade@@UAE?AVVector@@XZ 240128f0 f i basegrenade_shared.obj
 0001:00011920       ?BloodColor@C_BaseGrenade@@UAEHXZ 24012920 f i basegrenade_shared.obj
 0001:00011930       ?GetShakeAmplitude@C_BaseGrenade@@UAEMXZ 24012930 f i basegrenade_shared.obj
 0001:00011940       ?GetShakeRadius@C_BaseGrenade@@UAEMXZ 24012940 f i basegrenade_shared.obj
 0001:00011950       ??_EC_BaseGrenade@@UAEPAXI@Z 24012950 f i basegrenade_shared.obj
 0001:00011950       ??_GC_BaseGrenade@@UAEPAXI@Z 24012950 f i basegrenade_shared.obj
 0001:00011990       ??B?$CNetworkVarBase@MVNetworkVar_m_DmgRadius@C_BaseGrenade@@@@QBE?BMXZ 24012990 f i basegrenade_shared.obj
 0001:000119a0       ?IsSolid@@YA_NW4SolidType_t@@H@Z 240129a0 f i basegrenade_shared.obj
 0001:000119c0       ?VectorLength@@YAMABVVector@@@Z 240129c0 f i basegrenade_shared.obj
 0001:000119f0       ?Length@Vector@@QBEMXZ     240129f0 f i basegrenade_shared.obj
 0001:00011a20       ?VectorNormalize@@YAMAAVVector@@@Z 24012a20 f i basegrenade_shared.obj
 0001:00011a30       ?UTIL_PointContents@@YAHABVVector@@@Z 24012a30 f i basegrenade_shared.obj
 0001:00011a50       ??_9@$BCLE@AE              24012a50 f i basegrenade_shared.obj
 0001:00011a60       ?IsInWorld@C_BaseEntity@@QAE_NXZ 24012a60 f i basegrenade_shared.obj
 0001:00011a70       ?NetworkStateChanged@NetworkVar_m_bSimulatedEveryTick@C_BaseEntity@@SAXPAX@Z 24012a70 f i basegrenade_shared.obj
 0001:00011a80       ?GetFlags@C_BaseEntity@@QBEHXZ 24012a80 f i basegrenade_shared.obj
 0001:00011a90       ?GetVarMapping@C_BaseFlex@@UAEPAUVarMapping_t@@XZ 24012a90 f i basegrenade_shared.obj
 0001:00011ae0       ?IsBaseCombatCharacter@C_BaseCombatCharacter@@UAE_NXZ 24012ae0 f i basegrenade_shared.obj
 0001:00011af0       ?MyCombatCharacterPointer@C_BaseCombatCharacter@@UAEPAV1@XZ 24012af0 f i basegrenade_shared.obj
 0001:00011b00       ??0CPVSFilter@@QAE@ABVVector@@@Z 24012b00 f i basegrenade_shared.obj
 0001:00011b20       ??1CPVSFilter@@UAE@XZ      24012b20 f i basegrenade_shared.obj
 0001:00011b30       ??B?$CNetworkVarBase@_NVNetworkVar_m_bSimulatedEveryTick@C_BaseEntity@@@@QBE?B_NXZ 24012b30 f i basegrenade_shared.obj
 0001:00011b40       ?NetworkStateChanged@?$CNetworkVarBase@_NVNetworkVar_m_bSimulatedEveryTick@C_BaseEntity@@@@IAEXXZ 24012b40 f i basegrenade_shared.obj
 0001:00011b50       ?GetDamage@C_BaseGrenade@@UAEMXZ 24012b50 f i basegrenade_shared.obj
 0001:00011b60       ?GetDamageRadius@C_BaseGrenade@@UAEMXZ 24012b60 f i basegrenade_shared.obj
 0001:00011b70       ?NetworkStateChanged_m_vecVelocity@C_BaseGrenade@@UAEXXZ 24012b70 f i basegrenade_shared.obj
 0001:00011b80       ?NetworkStateChanged_m_fFlags@C_BaseGrenade@@UAEXXZ 24012b80 f i basegrenade_shared.obj
 0001:00011b90       ?NetworkStateChanged@NetworkVar_m_bIsLive@C_BaseGrenade@@SAXPAX@Z 24012b90 f i basegrenade_shared.obj
 0001:00011ba0       ?NetworkStateChanged@NetworkVar_m_DmgRadius@C_BaseGrenade@@SAXPAX@Z 24012ba0 f i basegrenade_shared.obj
 0001:00011bb0       ?NetworkStateChanged@NetworkVar_m_hThrower@C_BaseGrenade@@SAXPAX@Z 24012bb0 f i basegrenade_shared.obj
 0001:00011bc0       ?Smoke@C_BaseGrenade@@QAEXXZ 24012bc0 f   basegrenade_shared.obj
 0001:00011d10       ?DetonateUse@C_BaseGrenade@@QAEXPAVC_BaseEntity@@0W4USE_TYPE@@M@Z 24012d10 f   basegrenade_shared.obj
 0001:00011d60       ?PreDetonate@C_BaseGrenade@@QAEXXZ 24012d60 f   basegrenade_shared.obj
 0001:00011dc0       ?DangerSoundThink@C_BaseGrenade@@QAEXXZ 24012dc0 f   basegrenade_shared.obj
 0001:00011e50       ?TumbleThink@C_BaseGrenade@@QAEXXZ 24012e50 f   basegrenade_shared.obj
 0001:00011f30       ??0?$CNetworkVarBase@VCBaseHandle@@VNetworkVar_m_hThrower@C_BaseGrenade@@@@QAE@XZ 24012f30 f i basegrenade_shared.obj
 0001:00011f40       ??B?$CNetworkHandleBase@VC_BaseEntity@@VNetworkVar_m_hThrower@C_BaseGrenade@@@@QBEPAVC_BaseEntity@@XZ 24012f40 f i basegrenade_shared.obj
 0001:00011f70       ?NetworkStateChanged@?$CNetworkVarBase@_NVNetworkVar_m_bIsLive@C_BaseGrenade@@@@IAEXXZ 24012f70 f i basegrenade_shared.obj
 0001:00011f80       ?NetworkStateChanged@?$CNetworkVarBase@MVNetworkVar_m_DmgRadius@C_BaseGrenade@@@@IAEXXZ 24012f80 f i basegrenade_shared.obj
 0001:00011f90       ?NetworkStateChanged@?$CNetworkVarBase@VCBaseHandle@@VNetworkVar_m_hThrower@C_BaseGrenade@@@@IAEXXZ 24012f90 f i basegrenade_shared.obj
 0001:00011fa0       ??9CBaseHandle@@QBE_NPBVIHandleEntity@@@Z 24012fa0 f i basegrenade_shared.obj
 0001:00011fe0       ??4CBaseHandle@@QAEABV0@PBVIHandleEntity@@@Z 24012fe0 f i basegrenade_shared.obj
 0001:00012010       ?IsSolid@CCollisionProperty@@QBE_NXZ 24013010 f i basegrenade_shared.obj
 0001:00012030       ?IsSolidFlagSet@C_BaseEntity@@QBE_NH@Z 24013030 f i basegrenade_shared.obj
 0001:00012050       ?IsSolid@C_BaseEntity@@QBE_NXZ 24013050 f i basegrenade_shared.obj
 0001:00012070       ?GetOwnerEntity@C_BaseEntity@@QBEPAV1@XZ 24013070 f i basegrenade_shared.obj
 0001:000120a0       ??_GCPVSFilter@@UAEPAXI@Z  240130a0 f i basegrenade_shared.obj
 0001:000120a0       ??_ECPVSFilter@@UAEPAXI@Z  240130a0 f i basegrenade_shared.obj
 0001:000120c0       ?Set@?$CNetworkVarBase@_NVNetworkVar_m_bSimulatedEveryTick@C_BaseEntity@@@@QAEAB_NAB_N@Z 240130c0 f i basegrenade_shared.obj
 0001:000120e0       ?Detonate@C_BaseGrenade@@UAEXXZ 240130e0 f   basegrenade_shared.obj
 0001:000121e0       ?ExplodeTouch@C_BaseGrenade@@QAEXPAVC_BaseEntity@@@Z 240131e0 f   basegrenade_shared.obj
 0001:00012380       ?GetThrower@C_BaseGrenade@@QAEPAVC_BaseCombatCharacter@@XZ 24013380 f   basegrenade_shared.obj
 0001:00012440       ??0?$CNetworkHandleBase@VC_BaseEntity@@VNetworkVar_m_hThrower@C_BaseGrenade@@@@QAE@XZ 24013440 f i basegrenade_shared.obj
 0001:00012450       ?Set@?$CNetworkVarBase@_NVNetworkVar_m_bIsLive@C_BaseGrenade@@@@QAEAB_NAB_N@Z 24013450 f i basegrenade_shared.obj
 0001:00012470       ?Set@?$CNetworkVarBase@MVNetworkVar_m_DmgRadius@C_BaseGrenade@@@@QAEABMABM@Z 24013470 f i basegrenade_shared.obj
 0001:00012490       ?Set@?$CNetworkHandleBase@VC_BaseEntity@@VNetworkVar_m_hThrower@C_BaseGrenade@@@@QAEPBVC_BaseEntity@@PBV2@@Z 24013490 f i basegrenade_shared.obj
 0001:000124f0       ??4?$CNetworkVarBase@_NVNetworkVar_m_bSimulatedEveryTick@C_BaseEntity@@@@QAEAB_NAB_N@Z 240134f0 f i basegrenade_shared.obj
 0001:00012510       ?BounceTouch@C_BaseGrenade@@QAEXPAVC_BaseEntity@@@Z 24013510 f   basegrenade_shared.obj
 0001:00012680       ?SlideTouch@C_BaseGrenade@@QAEXPAVC_BaseEntity@@@Z 24013680 f   basegrenade_shared.obj
 0001:000126d0       ??4?$CNetworkVarBase@_NVNetworkVar_m_bIsLive@C_BaseGrenade@@@@QAEAB_NAB_N@Z 240136d0 f i basegrenade_shared.obj
 0001:000126f0       ??4?$CNetworkVarBase@MVNetworkVar_m_DmgRadius@C_BaseGrenade@@@@QAEABMABM@Z 240136f0 f i basegrenade_shared.obj
 0001:00012710       ??4?$CNetworkHandleBase@VC_BaseEntity@@VNetworkVar_m_hThrower@C_BaseGrenade@@@@QAEPBVC_BaseEntity@@PBV1@@Z 24013710 f i basegrenade_shared.obj
 0001:00012720       ?SetSimulatedEveryTick@C_BaseEntity@@QAEX_N@Z 24013720 f i basegrenade_shared.obj
 0001:00012750       ?SetDamage@C_BaseGrenade@@UAEXM@Z 24013750 f i basegrenade_shared.obj
 0001:00012770       ?SetDamageRadius@C_BaseGrenade@@UAEXM@Z 24013770 f i basegrenade_shared.obj
 0001:00012790       ?SetThrower@C_BaseGrenade@@QAEXPAVC_BaseCombatCharacter@@@Z 24013790 f   basegrenade_shared.obj
 0001:000127a0       ??0C_BaseGrenade@@QAE@XZ   240137a0 f   basegrenade_shared.obj
 0001:000128c0       ??0CgrenadeFoo@@QAE@XZ     240138c0 f i basegrenade_shared.obj
 0001:000128f0       ?GetClassName@C_BaseParticleEntity@@UAEPBDXZ 240138f0 f   baseparticleentity.obj
 0001:00012900       ?YouForgotToImplementOrDeclareClientClass@C_BaseParticleEntity@@UAEHXZ 24013900 f   baseparticleentity.obj
 0001:00012910       ?GetClientClass@C_BaseParticleEntity@@UAEPAVClientClass@@XZ 24013910 f   baseparticleentity.obj
 0001:00012920       ??$ClientClassInit@Uignored@DT_BaseParticleEntity@@@@YAHPAUignored@DT_BaseParticleEntity@@@Z 24013920 f   baseparticleentity.obj
 0001:00012990       ?GetPredDescMap@C_BaseParticleEntity@@UAEPAUdatamap_t@@XZ 24013990 f   baseparticleentity.obj
 0001:000129a0       ??$PredMapInit@VC_BaseParticleEntity@@@@YAPAUdatamap_t@@PAVC_BaseParticleEntity@@@Z 240139a0 f   baseparticleentity.obj
 0001:000129c0       ??0IParticleEffect@@QAE@XZ 240139c0 f i baseparticleentity.obj
 0001:000129d0       ?Activate@C_BaseParticleEntity@@UAEXXZ 240139d0 f   baseparticleentity.obj
 0001:000129e0       ?Think@C_BaseParticleEntity@@UAEXXZ 240139e0 f   baseparticleentity.obj
 0001:000129f0       ?FollowEntity@C_BaseParticleEntity@@QAEXPAVC_BaseEntity@@@Z 240139f0 f   baseparticleentity.obj
 0001:00012a20       ?SetLifetime@C_BaseParticleEntity@@QAEXM@Z 24013a20 f   baseparticleentity.obj
 0001:00012a60       ?GetSortOrigin@C_BaseParticleEntity@@UAEABVVector@@XZ 24013a60 f   baseparticleentity.obj
 0001:00012a70       ?SimulateParticles@C_BaseParticleEntity@@UAEXPAVCParticleSimulateIterator@@@Z 24013a70 f   baseparticleentity.obj
 0001:00012a80       ?RenderParticles@C_BaseParticleEntity@@UAEXPAVCParticleRenderIterator@@@Z 24013a80 f   baseparticleentity.obj
 0001:00012a90       ??1IParticleEffect@@UAE@XZ 24013a90 f i baseparticleentity.obj
 0001:00012aa0       ?Update@IParticleEffect@@UAEXM@Z 24013aa0 f i baseparticleentity.obj
 0001:00012ab0       ?StartRender@IParticleEffect@@UAEXAAVVMatrix@@@Z 24013ab0 f i baseparticleentity.obj
 0001:00012ac0       ?NotifyRemove@IParticleEffect@@UAEXXZ 24013ac0 f i baseparticleentity.obj
 0001:00012ad0       ?NotifyDestroyParticle@IParticleEffect@@UAEXPAUParticle@@@Z 24013ad0 f i baseparticleentity.obj
 0001:00012ae0       ?GetParticlePosition@IParticleEffect@@UAEPBVVector@@PAUParticle@@@Z 24013ae0 f i baseparticleentity.obj
 0001:00012af0       ??_EIParticleEffect@@UAEPAXI@Z 24013af0 f i baseparticleentity.obj
 0001:00012af0       ??_GIParticleEffect@@UAEPAXI@Z 24013af0 f i baseparticleentity.obj
 0001:00012b10       ??0C_BaseParticleEntity@@QAE@XZ 24013b10 f   baseparticleentity.obj
 0001:00012b60       ?ShouldDraw@C_BaseParticleEntity@@UAE_NXZ 24013b60 f i baseparticleentity.obj
 0001:00012b70       ??_EC_BaseParticleEntity@@WEIA@AEPAXI@Z 24013b70 f i baseparticleentity.obj
 0001:00012bc0       ??_EC_BaseParticleEntity@@UAEPAXI@Z 24013bc0 f i baseparticleentity.obj
 0001:00012bc0       ??_GC_BaseParticleEntity@@UAEPAXI@Z 24013bc0 f i baseparticleentity.obj
 0001:00012c00       ?GetTimeBase@C_BasePlayer@@QBEMXZ 24013c00 f   baseplayer_shared.obj
 0001:00012c10       ?ItemPreFrame@C_BasePlayer@@UAEXXZ 24013c10 f   baseplayer_shared.obj
 0001:00012cc0       ?LocalEyeAngles@C_BasePlayer@@UAEABVQAngle@@XZ 24013cc0 f   baseplayer_shared.obj
 0001:00012cd0       ?UpdateButtonState@C_BasePlayer@@QAEXH@Z 24013cd0 f   baseplayer_shared.obj
 0001:00012d10       ?Weapon_ShootPosition@C_BasePlayer@@UAE?AVVector@@XZ 24013d10 f   baseplayer_shared.obj
 0001:00012d30       ?SetAnimationExtension@C_BasePlayer@@QAEXPBD@Z 24013d30 f   baseplayer_shared.obj
 0001:00012d50       ?AbortReload@C_BasePlayer@@UAEXXZ 24013d50 f   baseplayer_shared.obj
 0001:00012d80       ?Weapon_ShouldSelectItem@C_BasePlayer@@UAE_NPAVC_BaseCombatWeapon@@@Z 24013d80 f   baseplayer_shared.obj
 0001:00012da0       ?SelectItem@C_BasePlayer@@UAEXPBDH@Z 24013da0 f   baseplayer_shared.obj
 0001:00012e10       ?IntervalDistance@@YAMMMM@Z 24013e10 f   baseplayer_shared.obj
 0001:00012e70       ?PlayerUse@C_BasePlayer@@UAEXXZ 24013e70 f   baseplayer_shared.obj
 0001:00012e80       ?CalcViewModelView@C_BasePlayer@@QAEXABVVector@@ABVQAngle@@@Z 24013e80 f   baseplayer_shared.obj
 0001:00012ec0       ?Vector2DLength@@YAMABVVector2D@@@Z 24013ec0 f i baseplayer_shared.obj
 0001:00012ef0       ?CalcObserverView@C_BasePlayer@@IAEXAAVVector@@AAVQAngle@@AAM@Z 24013ef0 f   baseplayer_shared.obj
 0001:00012f90       ?DoMuzzleFlash@C_BasePlayer@@UAEXXZ 24013f90 f   baseplayer_shared.obj
 0001:00012fc0       ?GetFOVDistanceAdjustFactor@C_BasePlayer@@QAEMXZ 24013fc0 f   baseplayer_shared.obj
 0001:00013010       ?MakeTracer@C_BasePlayer@@UAEXABVVector@@ABVCGameTrace@@H@Z 24014010 f   baseplayer_shared.obj
 0001:00013050       ?GetDefaultFOV@C_BasePlayer@@QBEHXZ 24014050 f   baseplayer_shared.obj
 0001:00013070       ??AVector@@QBEMH@Z         24014070 f i baseplayer_shared.obj
 0001:00013080       ?AsVector2D@Vector@@QBEABVVector2D@@XZ 24014080 f i baseplayer_shared.obj
 0001:00013090       ??B?$CNetworkVarBase@VQAngle@@VNetworkVar_m_vecPunchAngle@CPlayerLocalData@@@@QBE?BVQAngle@@XZ 24014090 f i baseplayer_shared.obj
 0001:000130b0       ??C?$CNetworkVarBase@VQAngle@@VNetworkVar_m_vecPunchAngle@CPlayerLocalData@@@@QBEPBVQAngle@@XZ 240140b0 f i baseplayer_shared.obj
 0001:000130c0       ??C?$CNetworkVarBase@VQAngle@@VNetworkVar_m_vecPunchAngleVel@CPlayerLocalData@@@@QBEPBVQAngle@@XZ 240140c0 f i baseplayer_shared.obj
 0001:000130d0       ??0?$CUtlMemory@VVector@@@@QAE@HH@Z 240140d0 f i baseplayer_shared.obj
 0001:00013110       ??GVector@@QBE?AV0@XZ      24014110 f i baseplayer_shared.obj
 0001:00013130       ??9QAngle@@QBE_NABV0@@Z    24014130 f i baseplayer_shared.obj
 0001:00013170       ?VectorCopy@@YAXABVQAngle@@AAV1@@Z 24014170 f i baseplayer_shared.obj
 0001:00013190       ?LengthSqr@QAngle@@QBEMXZ  24014190 f i baseplayer_shared.obj
 0001:000131b0       ??HQAngle@@QBE?AV0@ABV0@@Z 240141b0 f i baseplayer_shared.obj
 0001:00013200       ??DQAngle@@QBE?AV0@M@Z     24014200 f i baseplayer_shared.obj
 0001:00013250       ??0CBaseHandle@@QAE@ABV0@@Z 24014250 f i baseplayer_shared.obj
 0001:00013260       ?NextEntity@CEntitySphereQuery@@QAEXXZ 24014260 f i baseplayer_shared.obj
 0001:00013270       ??8?$CHandle@VC_BaseCombatWeapon@@@@QBE_NPAVC_BaseCombatWeapon@@@Z 24014270 f i baseplayer_shared.obj
 0001:000132b0       ??9?$CHandle@VC_BaseCombatWeapon@@@@QBE_NPAVC_BaseCombatWeapon@@@Z 240142b0 f i baseplayer_shared.obj
 0001:000132f0       ??0matrix3x4_t@@QAE@XZ     240142f0 f i baseplayer_shared.obj
 0001:00013300       ?Count@?$CUtlVector@V?$CHandle@VC_BaseEntity@@@@V?$CUtlMemory@V?$CHandle@VC_BaseEntity@@@@@@@@QBEHXZ 24014300 f i baseplayer_shared.obj
 0001:00013310       ?Size@?$CUtlVector@V?$CHandle@VC_BaseEntity@@@@V?$CUtlMemory@V?$CHandle@VC_BaseEntity@@@@@@@@QBEHXZ 24014310 f i baseplayer_shared.obj
 0001:00013320       ?InvalidIndex@?$CUtlVector@V?$CHandle@VC_BaseEntity@@@@V?$CUtlMemory@V?$CHandle@VC_BaseEntity@@@@@@@@SAHXZ 24014320 f i baseplayer_shared.obj
 0001:00013330       ?Base@?$CUtlMemory@VVector@@@@QAEPAVVector@@XZ 24014330 f i baseplayer_shared.obj
 0001:00013340       ?MatrixAngles@@YAXABUmatrix3x4_t@@AAVQAngle@@@Z 24014340 f i baseplayer_shared.obj
 0001:00013350       ??$Destruct@V?$CHandle@VC_BaseEntity@@@@@@YAXPAV?$CHandle@VC_BaseEntity@@@@@Z 24014350 f i baseplayer_shared.obj
 0001:00013360       ?Set@?$CHandle@VC_BaseViewModel@@@@QAEXPBVC_BaseViewModel@@@Z 24014360 f i baseplayer_shared.obj
 0001:00013390       ?Base@?$CUtlMemory@V?$CHandle@VC_BaseEntity@@@@@@QAEPAV?$CHandle@VC_BaseEntity@@@@XZ 24014390 f i baseplayer_shared.obj
 0001:000133a0       ??$Destruct@VVector@@@@YAXPAVVector@@@Z 240143a0 f i baseplayer_shared.obj
 0001:000133b0       ?IsExternallyAllocated@?$CUtlMemory@VVector@@@@QBE_NXZ 240143b0 f i baseplayer_shared.obj
 0001:000133c0       ?EntityToWorldTransform@C_BaseEntity@@QAEAAUmatrix3x4_t@@XZ 240143c0 f i baseplayer_shared.obj
 0001:000133d0       ?SetCollisionBounds@C_BaseEntity@@QAEXABVVector@@0@Z 240143d0 f i baseplayer_shared.obj
 0001:000133e0       ?SetFriction@C_BaseEntity@@QAEXM@Z 240143e0 f i baseplayer_shared.obj
 0001:000133f0       ?GetViewOffset@C_BaseEntity@@QBEABVVector@@XZ 240143f0 f i baseplayer_shared.obj
 0001:00013400       ?Base@?$CUtlMemory@V?$CHandle@VC_BaseEntity@@@@@@QBEPBV?$CHandle@VC_BaseEntity@@@@XZ 24014400 f i baseplayer_shared.obj
 0001:00013410       ??0?$CHandle@VC_BaseEntity@@@@QAE@ABV0@@Z 24014410 f i baseplayer_shared.obj
 0001:00013420       ?NumAllocated@?$CUtlMemory@V?$CHandle@VC_BaseEntity@@@@@@QBEHXZ 24014420 f i baseplayer_shared.obj
 0001:00013430       ?IsExternallyAllocated@?$CUtlMemory@V?$CHandle@VC_BaseEntity@@@@@@QBE_NXZ 24014430 f i baseplayer_shared.obj
 0001:00013440       ?IsPlayerSimulated@C_BaseEntity@@QBE_NXZ 24014440 f i baseplayer_shared.obj
 0001:00013450       ?NetworkStateChanged@NetworkVar_m_vecPunchAngle@CPlayerLocalData@@SAXPAX@Z 24014450 f i baseplayer_shared.obj
 0001:00013460       ?NetworkStateChanged@NetworkVar_m_vecPunchAngleVel@CPlayerLocalData@@SAXPAX@Z 24014460 f i baseplayer_shared.obj
 0001:00013480       ?NetworkStateChanged@NetworkVar_deadflag@CPlayerState@@SAXPAX@Z 24014480 f i baseplayer_shared.obj
 0001:00013490       ?GetSingleton@IMoveHelper@@SAPAV1@XZ 24014490 f i baseplayer_shared.obj
 0001:000134a0       ?MoveHelper@@YAPAVIMoveHelper@@XZ 240144a0 f i baseplayer_shared.obj
 0001:000134b0       ?NetworkStateChanged@NetworkVar_m_hLastWeapon@C_BasePlayer@@SAXPAX@Z 240144b0 f i baseplayer_shared.obj
 0001:000134c0       ?IsObserver@C_BasePlayer@@QBE_NXZ 240144c0 f i baseplayer_shared.obj
 0001:000134f0       ?Get@?$CNetworkVarBase@V?$CHandle@VC_BaseCombatWeapon@@@@VNetworkVar_m_hLastWeapon@C_BasePlayer@@@@QBEABV?$CHandle@VC_BaseCombatWeapon@@@@XZ 240144f0 f i baseplayer_shared.obj
 0001:00013500       ?GetPlayerMins@C_BasePlayer@@UBE?BVVector@@XZ 24014500 f   baseplayer_shared.obj
 0001:00013570       ?GetPlayerMaxs@C_BasePlayer@@UBE?BVVector@@XZ 24014570 f   baseplayer_shared.obj
 0001:000135e0       ?UpdateStepSound@C_BasePlayer@@UAEXPAUsurfacedata_t@@ABVVector@@1@Z 240145e0 f   baseplayer_shared.obj
 0001:000139b0       ?Weapon_Switch@C_BasePlayer@@UAE_NPAVC_BaseCombatWeapon@@H@Z 240149b0 f   baseplayer_shared.obj
 0001:00013a40       ?SelectLastItem@C_BasePlayer@@UAEXXZ 24014a40 f   baseplayer_shared.obj
 0001:00013b20       ?CalcRoll@C_BasePlayer@@UAEMABVQAngle@@ABVVector@@MM@Z 24014b20 f   baseplayer_shared.obj
 0001:00013bb0       ?CalcViewRoll@C_BasePlayer@@QAEXAAVQAngle@@@Z 24014bb0 f   baseplayer_shared.obj
 0001:00013c20       ?NetworkStateChanged@?$CNetworkVarBase@VQAngle@@VNetworkVar_m_vecPunchAngle@CPlayerLocalData@@@@IAEXXZ 24014c20 f i baseplayer_shared.obj
 0001:00013c30       ?NetworkStateChanged@?$CNetworkVarBase@VQAngle@@VNetworkVar_m_vecPunchAngleVel@CPlayerLocalData@@@@IAEXXZ 24014c30 f i baseplayer_shared.obj
 0001:00013c40       ?NetworkStateChanged@?$CNetworkVarBase@_NVNetworkVar_deadflag@CPlayerState@@@@IAEXXZ 24014c40 f i baseplayer_shared.obj
 0001:00013c50       ?NetworkStateChanged@?$CNetworkVarBase@V?$CHandle@VC_BaseCombatWeapon@@@@VNetworkVar_m_hLastWeapon@C_BasePlayer@@@@IAEXXZ 24014c50 f i baseplayer_shared.obj
 0001:00013c60       ??B?$CHandle@VC_BaseEntity@@@@QAEPAVC_BaseEntity@@XZ 24014c60 f i baseplayer_shared.obj
 0001:00013c90       ??0?$CHandle@VC_BaseCombatWeapon@@@@QAE@PAVC_BaseCombatWeapon@@@Z 24014c90 f i baseplayer_shared.obj
 0001:00013cc0       ??4?$CHandle@VC_BaseViewModel@@@@QAEABVCBaseHandle@@PBVC_BaseViewModel@@@Z 24014cc0 f i baseplayer_shared.obj
 0001:00013cf0       ?Base@?$CUtlVector@VVector@@V?$CUtlMemory@VVector@@@@@@QAEPAVVector@@XZ 24014cf0 f i baseplayer_shared.obj
 0001:00013d00       ?Base@?$CUtlVector@V?$CHandle@VC_BaseEntity@@@@V?$CUtlMemory@V?$CHandle@VC_BaseEntity@@@@@@@@QAEPAV?$CHandle@VC_BaseEntity@@@@XZ 24014d00 f i baseplayer_shared.obj
 0001:00013d10       ?Purge@?$CUtlMemory@VVector@@@@QAEXXZ 24014d10 f i baseplayer_shared.obj
 0001:00013d40       ??8?$CHandle@VC_BaseEntity@@@@QBE_NPAVC_BaseEntity@@@Z 24014d40 f i baseplayer_shared.obj
 0001:00013d80       ?UTIL_TraceHull@@YAXABVVector@@000IPBVIHandleEntity@@HPAVCGameTrace@@@Z 24014d80 f i baseplayer_shared.obj
 0001:00013e10       ?Element@?$CUtlVector@V?$CHandle@VC_BaseEntity@@@@V?$CUtlMemory@V?$CHandle@VC_BaseEntity@@@@@@@@QAEAAV?$CHandle@VC_BaseEntity@@@@H@Z 24014e10 f i baseplayer_shared.obj
 0001:00013e20       ?ShiftElementsLeft@?$CUtlVector@V?$CHandle@VC_BaseEntity@@@@V?$CUtlMemory@V?$CHandle@VC_BaseEntity@@@@@@@@IAEXHH@Z 24014e20 f i baseplayer_shared.obj
 0001:00013e60       ?Base@?$CUtlVector@V?$CHandle@VC_BaseEntity@@@@V?$CUtlMemory@V?$CHandle@VC_BaseEntity@@@@@@@@QBEPBV?$CHandle@VC_BaseEntity@@@@XZ 24014e60 f i baseplayer_shared.obj
 0001:00013e70       ?Element@?$CUtlVector@VVector@@V?$CUtlMemory@VVector@@@@@@QAEAAVVector@@H@Z 24014e70 f i baseplayer_shared.obj
 0001:00013e80       ?ShiftElementsRight@?$CUtlVector@V?$CHandle@VC_BaseEntity@@@@V?$CUtlMemory@V?$CHandle@VC_BaseEntity@@@@@@@@IAEXHH@Z 24014e80 f i baseplayer_shared.obj
 0001:00013ec0       ??$CopyConstruct@V?$CHandle@VC_BaseEntity@@@@@@YAXPAV?$CHandle@VC_BaseEntity@@@@ABV0@@Z 24014ec0 f i baseplayer_shared.obj
 0001:00013ee0       ?ResetDbgInfo@?$CUtlVector@V?$CHandle@VC_BaseEntity@@@@V?$CUtlMemory@V?$CHandle@VC_BaseEntity@@@@@@@@IAEXXZ 24014ee0 f i baseplayer_shared.obj
 0001:00013ef0       ?Grow@?$CUtlMemory@V?$CHandle@VC_BaseEntity@@@@@@QAEXH@Z 24014ef0 f i baseplayer_shared.obj
 0001:00013f60       ?IsInAVehicle@C_BasePlayer@@QBE_NXZ 24014f60 f i baseplayer_shared.obj
 0001:00013fa0       ?UsingStandardWeaponsInVehicle@C_BasePlayer@@QAE_NXZ 24014fa0 f   baseplayer_shared.obj
 0001:00014000       ?ItemPostFrame@C_BasePlayer@@UAEXXZ 24015000 f   baseplayer_shared.obj
 0001:000141b0       ?EyeAngles@C_BasePlayer@@UAEABVQAngle@@XZ 240151b0 f   baseplayer_shared.obj
 0001:00014250       ?EyePosition@C_BasePlayer@@UAE?AVVector@@XZ 24015250 f   baseplayer_shared.obj
 0001:000142f0       ?EyeVectors@C_BasePlayer@@QAEXPAVVector@@00@Z 240152f0 f   baseplayer_shared.obj
 0001:000143a0       ?EyePositionAndVectors@C_BasePlayer@@QAEXPAVVector@@000@Z 240153a0 f   baseplayer_shared.obj
 0001:00014470       ?SmoothViewOnStairs@C_BasePlayer@@QAEXAAVVector@@@Z 24015470 f   baseplayer_shared.obj
 0001:00014590       ?ResetObserverMode@C_BasePlayer@@QAEXXZ 24015590 f   baseplayer_shared.obj
 0001:000145c0       ?CalcPlayerView@C_BasePlayer@@IAEXAAVVector@@AAVQAngle@@AAM@Z 240155c0 f   baseplayer_shared.obj
 0001:000146f0       ?CalcVehicleView@C_BasePlayer@@IAEXPAVIClientVehicle@@AAVVector@@AAVQAngle@@AAM33@Z 240156f0 f   baseplayer_shared.obj
 0001:000147b0       ?Set@?$CNetworkVarBase@VQAngle@@VNetworkVar_m_vecPunchAngle@CPlayerLocalData@@@@QAEABVQAngle@@ABV2@@Z 240157b0 f i baseplayer_shared.obj
 0001:00014810       ?Set@?$CNetworkVarBase@VQAngle@@VNetworkVar_m_vecPunchAngleVel@CPlayerLocalData@@@@QAEABVQAngle@@ABV2@@Z 24015810 f i baseplayer_shared.obj
 0001:00014870       ?Set@?$CNetworkVarBase@_NVNetworkVar_deadflag@CPlayerState@@@@QAEAB_NAB_N@Z 24015870 f i baseplayer_shared.obj
 0001:000148a0       ?Set@?$CNetworkVarBase@V?$CHandle@VC_BaseCombatWeapon@@@@VNetworkVar_m_hLastWeapon@C_BasePlayer@@@@QAEABV?$CHandle@VC_BaseCombatWeapon@@@@ABV2@@Z 240158a0 f i baseplayer_shared.obj
 0001:00014910       ?ResetDbgInfo@?$CUtlVector@VVector@@V?$CUtlMemory@VVector@@@@@@IAEXXZ 24015910 f i baseplayer_shared.obj
 0001:00014920       ??1?$CUtlMemory@VVector@@@@QAE@XZ 24015920 f i baseplayer_shared.obj
 0001:00014950       ??A?$CUtlVector@V?$CHandle@VC_BaseEntity@@@@V?$CUtlMemory@V?$CHandle@VC_BaseEntity@@@@@@@@QAEAAV?$CHandle@VC_BaseEntity@@@@H@Z 24015950 f i baseplayer_shared.obj
 0001:00014960       ?Remove@?$CUtlVector@V?$CHandle@VC_BaseEntity@@@@V?$CUtlMemory@V?$CHandle@VC_BaseEntity@@@@@@@@QAEXH@Z 24015960 f i baseplayer_shared.obj
 0001:000149a0       ?RemoveAll@?$CUtlVector@V?$CHandle@VC_BaseEntity@@@@V?$CUtlMemory@V?$CHandle@VC_BaseEntity@@@@@@@@QAEXXZ 240159a0 f i baseplayer_shared.obj
 0001:000149b0       ?RemoveAll@?$CUtlVector@VVector@@V?$CUtlMemory@VVector@@@@@@QAEXXZ 240159b0 f i baseplayer_shared.obj
 0001:000149c0       ?Element@?$CUtlVector@V?$CHandle@VC_BaseEntity@@@@V?$CUtlMemory@V?$CHandle@VC_BaseEntity@@@@@@@@QBEABV?$CHandle@VC_BaseEntity@@@@H@Z 240159c0 f i baseplayer_shared.obj
 0001:000149d0       ?GrowVector@?$CUtlVector@V?$CHandle@VC_BaseEntity@@@@V?$CUtlMemory@V?$CHandle@VC_BaseEntity@@@@@@@@IAEXH@Z 240159d0 f i baseplayer_shared.obj
 0001:00014a00       ??0?$CUtlVector@VVector@@V?$CUtlMemory@VVector@@@@@@QAE@HH@Z 24015a00 f i baseplayer_shared.obj
 0001:00014a40       ?SimulatePlayerSimulatedEntities@C_BasePlayer@@QAEXXZ 24015a40 f   baseplayer_shared.obj
 0001:00014bc0       ?ClearPlayerSimulationList@C_BasePlayer@@QAEXXZ 24015bc0 f   baseplayer_shared.obj
 0001:00014c20       ?FindUseEntity@C_BasePlayer@@QAEPAVC_BaseEntity@@XZ 24015c20 f   baseplayer_shared.obj
 0001:00015210       ?CalcView@C_BasePlayer@@UAEXAAVVector@@AAVQAngle@@AAM22@Z 24016210 f   baseplayer_shared.obj
 0001:000152c0       ??4?$CNetworkVectorBase@VQAngle@@VNetworkVar_m_vecPunchAngle@CPlayerLocalData@@@@QAEABVQAngle@@ABV1@@Z 240162c0 f i baseplayer_shared.obj
 0001:000152d0       ??4?$CNetworkVectorBase@VQAngle@@VNetworkVar_m_vecPunchAngleVel@CPlayerLocalData@@@@QAEABVQAngle@@ABV1@@Z 240162d0 f i baseplayer_shared.obj
 0001:000152e0       ??Y?$CNetworkVarBase@VQAngle@@VNetworkVar_m_vecPunchAngleVel@CPlayerLocalData@@@@QAEABVQAngle@@ABV1@@Z 240162e0 f i baseplayer_shared.obj
 0001:00015330       ??4?$CNetworkVarBase@_NVNetworkVar_deadflag@CPlayerState@@@@QAEAB_NAB_N@Z 24016330 f i baseplayer_shared.obj
 0001:00015360       ??4?$CNetworkVarBase@V?$CHandle@VC_BaseCombatWeapon@@@@VNetworkVar_m_hLastWeapon@C_BasePlayer@@@@QAEABV?$CHandle@VC_BaseCombatWeapon@@@@ABV1@@Z 24016360 f i baseplayer_shared.obj
 0001:00015370       ?Purge@?$CUtlVector@VVector@@V?$CUtlMemory@VVector@@@@@@QAEXXZ 24016370 f i baseplayer_shared.obj
 0001:000153b0       ?Find@?$CUtlVector@V?$CHandle@VC_BaseEntity@@@@V?$CUtlMemory@V?$CHandle@VC_BaseEntity@@@@@@@@QBEHABV?$CHandle@VC_BaseEntity@@@@@Z 240163b0 f i baseplayer_shared.obj
 0001:00015440       ?FindAndRemove@?$CUtlVector@V?$CHandle@VC_BaseEntity@@@@V?$CUtlMemory@V?$CHandle@VC_BaseEntity@@@@@@@@QAEXABV?$CHandle@VC_BaseEntity@@@@@Z 24016440 f i baseplayer_shared.obj
 0001:00015480       ?InsertBefore@?$CUtlVector@V?$CHandle@VC_BaseEntity@@@@V?$CUtlMemory@V?$CHandle@VC_BaseEntity@@@@@@@@QAEHHABV?$CHandle@VC_BaseEntity@@@@@Z 24016480 f i baseplayer_shared.obj
 0001:000154f0       ??1?$CUtlVector@VVector@@V?$CUtlMemory@VVector@@@@@@QAE@XZ 240164f0 f i baseplayer_shared.obj
 0001:00015550       ??1EmitSound_t@@QAE@XZ     24016550 f i baseplayer_shared.obj
 0001:00015560       ?Weapon_SetLast@C_BasePlayer@@UAEXPAVC_BaseCombatWeapon@@@Z 24016560 f   baseplayer_shared.obj
 0001:000155b0       ?RemoveFromPlayerSimulationList@C_BasePlayer@@QAEXPAVC_BaseEntity@@@Z 240165b0 f   baseplayer_shared.obj
 0001:00015610       ?ViewPunch@C_BasePlayer@@UAEXABVQAngle@@@Z 24016610 f   baseplayer_shared.obj
 0001:000156b0       ?ViewPunchReset@C_BasePlayer@@QAEXM@Z 240166b0 f   baseplayer_shared.obj
 0001:00015750       ?SharedSpawn@C_BasePlayer@@UAEXXZ 24016750 f   baseplayer_shared.obj
 0001:00015870       ??0EmitSound_t@@QAE@XZ     24016870 f i baseplayer_shared.obj
 0001:000158c0       ?AddToTail@?$CUtlVector@V?$CHandle@VC_BaseEntity@@@@V?$CUtlMemory@V?$CHandle@VC_BaseEntity@@@@@@@@QAEHABV?$CHandle@VC_BaseEntity@@@@@Z 240168c0 f i baseplayer_shared.obj
 0001:000158e0       ?PlayStepSound@C_BasePlayer@@UAEXAAVVector@@PAUsurfacedata_t@@M_N@Z 240168e0 f   baseplayer_shared.obj
 0001:00015a50       ?AddToPlayerSimulationList@C_BasePlayer@@QAEXPAVC_BaseEntity@@@Z 24016a50 f   baseplayer_shared.obj
 0001:00015aa0       ?Precache@C_BaseViewModel@@UAEXXZ 24016aa0 f   baseviewmodel_shared.obj
 0001:00015ab0       ?SetControlPanelsActive@C_BaseViewModel@@QAEX_N@Z 24016ab0 f   baseviewmodel_shared.obj
 0001:00015ac0       ?SpawnControlPanels@C_BaseViewModel@@QAEXXZ 24016ac0 f   baseviewmodel_shared.obj
 0001:00015ad0       ?DestroyControlPanels@C_BaseViewModel@@QAEXXZ 24016ad0 f   baseviewmodel_shared.obj
 0001:00015b30       ?GetClassName@C_BaseViewModel@@UAEPBDXZ 24016b30 f   baseviewmodel_shared.obj
 0001:00015b40       ?YouForgotToImplementOrDeclareClientClass@C_BaseViewModel@@UAEHXZ 24016b40 f   baseviewmodel_shared.obj
 0001:00015b50       ?GetClientClass@C_BaseViewModel@@UAEPAVClientClass@@XZ 24016b50 f   baseviewmodel_shared.obj
 0001:00015b60       ?GetPredDescMap@C_BaseViewModel@@UAEPAUdatamap_t@@XZ 24016b60 f   baseviewmodel_shared.obj
 0001:00015b70       ??$PredMapInit@VC_BaseViewModel@@@@YAPAUdatamap_t@@PAVC_BaseViewModel@@@Z 24016b70 f   baseviewmodel_shared.obj
 0001:00015b90       ??B?$CNetworkVarBase@HVNetworkVar_m_nViewModelIndex@C_BaseViewModel@@@@QBE?BHXZ 24016b90 f i baseviewmodel_shared.obj
 0001:00015ba0       ??B?$CNetworkVarBase@HVNetworkVar_m_nAnimationParity@C_BaseViewModel@@@@QBE?BHXZ 24016ba0 f i baseviewmodel_shared.obj
 0001:00015bb0       ?Get@?$CNetworkVarBase@V?$CHandle@VC_BaseCombatWeapon@@@@VNetworkVar_m_hWeapon@C_BaseViewModel@@@@QBEABV?$CHandle@VC_BaseCombatWeapon@@@@XZ 24016bb0 f i baseviewmodel_shared.obj
 0001:00015bc0       ??0?$CUtlMemory@V?$CHandle@VCVGuiScreen@@@@@@QAE@HH@Z 24016bc0 f i baseviewmodel_shared.obj
 0001:00015c00       ?Base@?$CUtlMemory@V?$CHandle@VCVGuiScreen@@@@@@QAEPAV?$CHandle@VCVGuiScreen@@@@XZ 24016c00 f i baseviewmodel_shared.obj
 0001:00015c10       ??$Destruct@V?$CHandle@VCVGuiScreen@@@@@@YAXPAV?$CHandle@VCVGuiScreen@@@@@Z 24016c10 f i baseviewmodel_shared.obj
 0001:00015c20       ?IsExternallyAllocated@?$CUtlMemory@V?$CHandle@VCVGuiScreen@@@@@@QBE_NXZ 24016c20 f i baseviewmodel_shared.obj
 0001:00015c30       ?NetworkStateChanged@NetworkVar_m_nViewModelIndex@C_BaseViewModel@@SAXPAX@Z 24016c30 f i baseviewmodel_shared.obj
 0001:00015c40       ?NetworkStateChanged@NetworkVar_m_hOwner@C_BaseViewModel@@SAXPAX@Z 24016c40 f i baseviewmodel_shared.obj
 0001:00015c50       ?NetworkStateChanged@NetworkVar_m_nAnimationParity@C_BaseViewModel@@SAXPAX@Z 24016c50 f i baseviewmodel_shared.obj
 0001:00015c60       ?NetworkStateChanged@NetworkVar_m_hWeapon@C_BaseViewModel@@SAXPAX@Z 24016c60 f i baseviewmodel_shared.obj
 0001:00015c70       ??0?$CNetworkVarBase@VCBaseHandle@@VNetworkVar_m_hOwner@C_BaseViewModel@@@@QAE@XZ 24016c70 f i baseviewmodel_shared.obj
 0001:00015c80       ?UpdateOnRemove@C_BaseViewModel@@UAEXXZ 24016c80 f   baseviewmodel_shared.obj
 0001:00015c90       ?Spawn@C_BaseViewModel@@UAEXXZ 24016c90 f   baseviewmodel_shared.obj
 0001:00015cf0       ?ViewModelIndex@C_BaseViewModel@@QBEHXZ 24016cf0 f   baseviewmodel_shared.obj
 0001:00015d00       ?CalcViewModelLag@C_BaseViewModel@@UAEXAAVVector@@AAVQAngle@@1@Z 24016d00 f   baseviewmodel_shared.obj
 0001:00015ef0       ?RecvProxy_SequenceNum@@YAXPBVCRecvProxyData@@PAX1@Z 24016ef0 f   baseviewmodel_shared.obj
 0001:00015f30       ?NetworkStateChanged@?$CNetworkVarBase@HVNetworkVar_m_nViewModelIndex@C_BaseViewModel@@@@IAEXXZ 24016f30 f i baseviewmodel_shared.obj
 0001:00015f40       ?NetworkStateChanged@?$CNetworkVarBase@VCBaseHandle@@VNetworkVar_m_hOwner@C_BaseViewModel@@@@IAEXXZ 24016f40 f i baseviewmodel_shared.obj
 0001:00015f50       ?NetworkStateChanged@?$CNetworkVarBase@HVNetworkVar_m_nAnimationParity@C_BaseViewModel@@@@IAEXXZ 24016f50 f i baseviewmodel_shared.obj
 0001:00015f60       ?NetworkStateChanged@?$CNetworkVarBase@V?$CHandle@VC_BaseCombatWeapon@@@@VNetworkVar_m_hWeapon@C_BaseViewModel@@@@IAEXXZ 24016f60 f i baseviewmodel_shared.obj
 0001:00015f70       ??0?$CHandle@VC_BaseCombatWeapon@@@@QAE@XZ 24016f70 f i baseviewmodel_shared.obj
 0001:00015f80       ?Base@?$CUtlVector@V?$CHandle@VCVGuiScreen@@@@V?$CUtlMemory@V?$CHandle@VCVGuiScreen@@@@@@@@QAEPAV?$CHandle@VCVGuiScreen@@@@XZ 24016f80 f i baseviewmodel_shared.obj
 0001:00015f90       ?Purge@?$CUtlMemory@V?$CHandle@VCVGuiScreen@@@@@@QAEXXZ 24016f90 f i baseviewmodel_shared.obj
 0001:00015fc0       ?Element@?$CUtlVector@V?$CHandle@VCVGuiScreen@@@@V?$CUtlMemory@V?$CHandle@VCVGuiScreen@@@@@@@@QAEAAV?$CHandle@VCVGuiScreen@@@@H@Z 24016fc0 f i baseviewmodel_shared.obj
 0001:00015fd0       ??0?$CNetworkHandleBase@VC_BaseEntity@@VNetworkVar_m_hOwner@C_BaseViewModel@@@@QAE@XZ 24016fd0 f i baseviewmodel_shared.obj
 0001:00015fe0       ??0?$CNetworkVarBase@V?$CHandle@VC_BaseCombatWeapon@@@@VNetworkVar_m_hWeapon@C_BaseViewModel@@@@QAE@XZ 24016fe0 f i baseviewmodel_shared.obj
 0001:00015ff0       ?GetOwningWeapon@C_BaseViewModel@@UAEPAVC_BaseCombatWeapon@@XZ 24016ff0 f   baseviewmodel_shared.obj
 0001:00016020       ?CalcViewModelView@C_BaseViewModel@@QAEXPAVC_BasePlayer@@ABVVector@@ABVQAngle@@@Z 24017020 f   baseviewmodel_shared.obj
 0001:00016130       ??$ClientClassInit@Uignored@DT_BaseViewModel@@@@YAHPAUignored@DT_BaseViewModel@@@Z 24017130 f   baseviewmodel_shared.obj
 0001:00016320       ?Set@?$CNetworkVarBase@HVNetworkVar_m_nViewModelIndex@C_BaseViewModel@@@@QAEABHABH@Z 24017320 f i baseviewmodel_shared.obj
 0001:00016340       ?Set@?$CNetworkHandleBase@VC_BaseEntity@@VNetworkVar_m_hOwner@C_BaseViewModel@@@@QAEPBVC_BaseEntity@@PBV2@@Z 24017340 f i baseviewmodel_shared.obj
 0001:000163a0       ?Set@?$CNetworkVarBase@HVNetworkVar_m_nAnimationParity@C_BaseViewModel@@@@QAEABHABH@Z 240173a0 f i baseviewmodel_shared.obj
 0001:000163c0       ?Set@?$CNetworkVarBase@V?$CHandle@VC_BaseCombatWeapon@@@@VNetworkVar_m_hWeapon@C_BaseViewModel@@@@QAEABV?$CHandle@VC_BaseCombatWeapon@@@@ABV2@@Z 240173c0 f i baseviewmodel_shared.obj
 0001:00016430       ?ResetDbgInfo@?$CUtlVector@V?$CHandle@VCVGuiScreen@@@@V?$CUtlMemory@V?$CHandle@VCVGuiScreen@@@@@@@@IAEXXZ 24017430 f i baseviewmodel_shared.obj
 0001:00016440       ??1?$CUtlMemory@V?$CHandle@VCVGuiScreen@@@@@@QAE@XZ 24017440 f i baseviewmodel_shared.obj
 0001:00016470       ?RemoveAll@?$CUtlVector@V?$CHandle@VCVGuiScreen@@@@V?$CUtlMemory@V?$CHandle@VCVGuiScreen@@@@@@@@QAEXXZ 24017470 f i baseviewmodel_shared.obj
 0001:00016480       ??4?$CNetworkVarBase@HVNetworkVar_m_nViewModelIndex@C_BaseViewModel@@@@QAEABHABH@Z 24017480 f i baseviewmodel_shared.obj
 0001:000164a0       ??4?$CNetworkHandleBase@VC_BaseEntity@@VNetworkVar_m_hOwner@C_BaseViewModel@@@@QAEPBVC_BaseEntity@@PBV1@@Z 240174a0 f i baseviewmodel_shared.obj
 0001:000164b0       ??4?$CNetworkVarBase@HVNetworkVar_m_nAnimationParity@C_BaseViewModel@@@@QAEABHABH@Z 240174b0 f i baseviewmodel_shared.obj
 0001:000164d0       ??4?$CNetworkVarBase@V?$CHandle@VC_BaseCombatWeapon@@@@VNetworkVar_m_hWeapon@C_BaseViewModel@@@@QAEABV?$CHandle@VC_BaseCombatWeapon@@@@ABV1@@Z 240174d0 f i baseviewmodel_shared.obj
 0001:000164e0       ??0?$CUtlVector@V?$CHandle@VCVGuiScreen@@@@V?$CUtlMemory@V?$CHandle@VCVGuiScreen@@@@@@@@QAE@HH@Z 240174e0 f i baseviewmodel_shared.obj
 0001:00016520       ?Purge@?$CUtlVector@V?$CHandle@VCVGuiScreen@@@@V?$CUtlMemory@V?$CHandle@VCVGuiScreen@@@@@@@@QAEXXZ 24017520 f i baseviewmodel_shared.obj
 0001:00016560       ?SetOwner@C_BaseViewModel@@QAEXPAVC_BaseEntity@@@Z 24017560 f   baseviewmodel_shared.obj
 0001:00016570       ?SetIndex@C_BaseViewModel@@QAEXH@Z 24017570 f   baseviewmodel_shared.obj
 0001:00016590       ?SetWeaponModel@C_BaseViewModel@@UAEXPBDPAVC_BaseCombatWeapon@@@Z 24017590 f   baseviewmodel_shared.obj
 0001:000165d0       ?SendViewModelMatchingSequence@C_BaseViewModel@@UAEXH@Z 240175d0 f   baseviewmodel_shared.obj
 0001:00016630       ??1?$CUtlVector@V?$CHandle@VCVGuiScreen@@@@V?$CUtlMemory@V?$CHandle@VCVGuiScreen@@@@@@@@QAE@XZ 24017630 f i baseviewmodel_shared.obj
 0001:00016690       ??0C_BaseViewModel@@QAE@XZ 24017690 f   baseviewmodel_shared.obj
 0001:00016750       ?ShadowCastType@C_BaseViewModel@@UAE?AW4ShadowType_t@@XZ 24017750 f i baseviewmodel_shared.obj
 0001:00016760       ?ShouldReceiveProjectedTextures@C_BaseViewModel@@UAE_NH@Z 24017760 f i baseviewmodel_shared.obj
 0001:00016770       ?GetOwner@C_BaseViewModel@@UAEPAVC_BaseEntity@@XZ 24017770 f i baseviewmodel_shared.obj
 0001:00016780       ??1C_BaseViewModel@@UAE@XZ 24017780 f   baseviewmodel_shared.obj
 0001:000167e0       ??0CviewmodelFoo@@QAE@XZ   240177e0 f i baseviewmodel_shared.obj
 0001:00016850       ??_EC_BaseViewModel@@UAEPAXI@Z 24017850 f i baseviewmodel_shared.obj
 0001:00016850       ??_GC_BaseViewModel@@UAEPAXI@Z 24017850 f i baseviewmodel_shared.obj
 0001:000168a0       ?Get@NetworkVar_m_hAttachEntity@C_Beam@@QBEABV?$CHandle@VC_BaseEntity@@@@H@Z 240178a0 f i beam_shared.obj
 0001:000168b0       ?Get@NetworkVar_m_nAttachIndex@C_Beam@@QBEABHH@Z 240178b0 f i beam_shared.obj
 0001:000168c0       ?SetStartPos@C_Beam@@QAEXABVVector@@@Z 240178c0 f i beam_shared.obj
 0001:000168e0       ?SetTexture@C_Beam@@QAEXH@Z 240178e0 f i beam_shared.obj
 0001:000168f0       ?GetClassName@C_Beam@@UAEPBDXZ 240178f0 f   beam_shared.obj
 0001:00016900       ?YouForgotToImplementOrDeclareClientClass@C_Beam@@UAEHXZ 24017900 f   beam_shared.obj
 0001:00016910       ?GetClientClass@C_Beam@@UAEPAVClientClass@@XZ 24017910 f   beam_shared.obj
 0001:00016920       ??$ClientClassInit@Uignored@DT_BeamPredictableId@@@@YAHPAUignored@DT_BeamPredictableId@@@Z 24017920 f   beam_shared.obj
 0001:000169a0       ?GetPredDescMap@C_Beam@@UAEPAUdatamap_t@@XZ 240179a0 f   beam_shared.obj
 0001:000169b0       ??$PredMapInit@VC_Beam@@@@YAPAUdatamap_t@@PAVC_Beam@@@Z 240179b0 f   beam_shared.obj
 0001:000169d0       ?SetModel@C_Beam@@UAEXPBD@Z 240179d0 f   beam_shared.obj
 0001:00016a30       ?RandomTargetname@C_Beam@@QAEPAVC_BaseEntity@@PBD@Z 24017a30 f   beam_shared.obj
 0001:00016a40       ?DoSparks@C_Beam@@QAEXABVVector@@0@Z 24017a40 f   beam_shared.obj
 0001:00016a50       ?TurnOn@C_Beam@@QAEXXZ     24017a50 f   beam_shared.obj
 0001:00016a60       ?DrawDebugTextOverlays@C_Beam@@UAEHXZ 24017a60 f   beam_shared.obj
 0001:00016a70       ?IsTransparent@C_Beam@@UAE_NXZ 24017a70 f   beam_shared.obj
 0001:00016a80       ??B?$CNetworkVarBase@HVNetworkVar_m_nNumBeamEnts@C_Beam@@@@QBE?BHXZ 24017a80 f i beam_shared.obj
 0001:00016a90       ??B?$CNetworkVarBase@HVNetworkVar_m_nBeamType@C_Beam@@@@QBE?BHXZ 24017a90 f i beam_shared.obj
 0001:00016aa0       ??B?$CNetworkVarBase@HVNetworkVar_m_nBeamFlags@C_Beam@@@@QBE?BHXZ 24017aa0 f i beam_shared.obj
 0001:00016ab0       ??B?$CNetworkVarBase@VVector@@VNetworkVar_m_vecEndPos@C_Beam@@@@QBE?BVVector@@XZ 24017ab0 f i beam_shared.obj
 0001:00016ad0       ?Get@?$CNetworkVarBase@VVector@@VNetworkVar_m_vecEndPos@C_Beam@@@@QBEABVVector@@XZ 24017ad0 f i beam_shared.obj
 0001:00016ae0       ??ZVector@@QAEAAV0@ABV0@@Z 24017ae0 f i beam_shared.obj
 0001:00016b10       ?Min@Vector@@QBE?AV1@ABV1@@Z 24017b10 f i beam_shared.obj
 0001:00016b70       ?Max@Vector@@QBE?AV1@ABV1@@Z 24017b70 f i beam_shared.obj
 0001:00016bd0       ?VectorMin@@YAXABVVector@@0AAV1@@Z 24017bd0 f i beam_shared.obj
 0001:00016c30       ?VectorMax@@YAXABVVector@@0AAV1@@Z 24017c30 f i beam_shared.obj
 0001:00016c90       ??$_CreateEntity@VC_Beam@@@@YAPAVC_Beam@@PAV0@PBD@Z 24017c90 f i beam_shared.obj
 0001:00016cd0       ?EntityToWorldTransform@C_BaseEntity@@QBEABUmatrix3x4_t@@XZ 24017cd0 f i beam_shared.obj
 0001:00016ce0       ?IsMarkedForDeletion@C_BaseEntity@@QAE_NXZ 24017ce0 f i beam_shared.obj
 0001:00016cf0       ?NetworkStateChanged@NetworkVar_m_nNumBeamEnts@C_Beam@@SAXPAX@Z 24017cf0 f i beam_shared.obj
 0001:00016d00       ?NetworkStateChanged@NetworkVar_m_nHaloIndex@C_Beam@@SAXPAX@Z 24017d00 f i beam_shared.obj
 0001:00016d10       ?NetworkStateChanged@NetworkVar_m_nBeamType@C_Beam@@SAXPAX@Z 24017d10 f i beam_shared.obj
 0001:00016d20       ?NetworkStateChanged@NetworkVar_m_nBeamFlags@C_Beam@@SAXPAX@Z 24017d20 f i beam_shared.obj
 0001:00016d30       ??ANetworkVar_m_hAttachEntity@C_Beam@@QBEABV?$CHandle@VC_BaseEntity@@@@H@Z 24017d30 f i beam_shared.obj
 0001:00016d40       ?NetworkStateChanged@NetworkVar_m_hAttachEntity@C_Beam@@IAEXXZ 24017d40 f i beam_shared.obj
 0001:00016d50       ??ANetworkVar_m_nAttachIndex@C_Beam@@QBEABHH@Z 24017d50 f i beam_shared.obj
 0001:00016d60       ?NetworkStateChanged@NetworkVar_m_nAttachIndex@C_Beam@@IAEXXZ 24017d60 f i beam_shared.obj
 0001:00016d70       ?NetworkStateChanged@NetworkVar_m_fWidth@C_Beam@@SAXPAX@Z 24017d70 f i beam_shared.obj
 0001:00016d80       ?NetworkStateChanged@NetworkVar_m_fEndWidth@C_Beam@@SAXPAX@Z 24017d80 f i beam_shared.obj
 0001:00016d90       ?NetworkStateChanged@NetworkVar_m_fFadeLength@C_Beam@@SAXPAX@Z 24017d90 f i beam_shared.obj
 0001:00016da0       ?NetworkStateChanged@NetworkVar_m_fHaloScale@C_Beam@@SAXPAX@Z 24017da0 f i beam_shared.obj
 0001:00016db0       ?NetworkStateChanged@NetworkVar_m_fAmplitude@C_Beam@@SAXPAX@Z 24017db0 f i beam_shared.obj
 0001:00016dc0       ?NetworkStateChanged@NetworkVar_m_fStartFrame@C_Beam@@SAXPAX@Z 24017dc0 f i beam_shared.obj
 0001:00016dd0       ?NetworkStateChanged@NetworkVar_m_fSpeed@C_Beam@@SAXPAX@Z 24017dd0 f i beam_shared.obj
 0001:00016de0       ?NetworkStateChanged@NetworkVar_m_vecEndPos@C_Beam@@SAXPAX@Z 24017de0 f i beam_shared.obj
 0001:00016df0       ??0NetworkVar_m_hAttachEntity@C_Beam@@QAE@XZ 24017df0 f i beam_shared.obj
 0001:00016e50       ??0?$CNetworkVarBase@VVector@@VNetworkVar_m_vecEndPos@C_Beam@@@@QAE@XZ 24017e50 f i beam_shared.obj
 0001:00016e60       ?Spawn@C_Beam@@UAEXXZ      24017e60 f   beam_shared.obj
 0001:00016ea0       ?GetType@C_Beam@@QBEHXZ    24017ea0 f   beam_shared.obj
 0001:00016eb0       ?GetBeamFlags@C_Beam@@QBEHXZ 24017eb0 f   beam_shared.obj
 0001:00016ec0       ?GetAbsStartPos@C_Beam@@QBEABVVector@@XZ 24017ec0 f   beam_shared.obj
 0001:00016f40       ?TurnOff@C_Beam@@QAEXXZ    24017f40 f   beam_shared.obj
 0001:00016f50       ?OnPredictedEntityRemove@C_Beam@@UAE_N_NPAVC_BaseEntity@@@Z 24017f50 f   beam_shared.obj
 0001:00016fb0       ?DrawModel@C_Beam@@UAEHH@Z 24017fb0 f   beam_shared.obj
 0001:00017040       ?NetworkStateChanged@?$CNetworkVarBase@HVNetworkVar_m_nNumBeamEnts@C_Beam@@@@IAEXXZ 24018040 f i beam_shared.obj
 0001:00017050       ?NetworkStateChanged@?$CNetworkVarBase@HVNetworkVar_m_nHaloIndex@C_Beam@@@@IAEXXZ 24018050 f i beam_shared.obj
 0001:00017060       ?NetworkStateChanged@?$CNetworkVarBase@HVNetworkVar_m_nBeamType@C_Beam@@@@IAEXXZ 24018060 f i beam_shared.obj
 0001:00017070       ?NetworkStateChanged@?$CNetworkVarBase@HVNetworkVar_m_nBeamFlags@C_Beam@@@@IAEXXZ 24018070 f i beam_shared.obj
 0001:00017080       ?NetworkStateChanged@?$CNetworkVarBase@MVNetworkVar_m_fWidth@C_Beam@@@@IAEXXZ 24018080 f i beam_shared.obj
 0001:00017090       ?NetworkStateChanged@?$CNetworkVarBase@MVNetworkVar_m_fEndWidth@C_Beam@@@@IAEXXZ 24018090 f i beam_shared.obj
 0001:000170a0       ?NetworkStateChanged@?$CNetworkVarBase@MVNetworkVar_m_fFadeLength@C_Beam@@@@IAEXXZ 240180a0 f i beam_shared.obj
 0001:000170b0       ?NetworkStateChanged@?$CNetworkVarBase@MVNetworkVar_m_fHaloScale@C_Beam@@@@IAEXXZ 240180b0 f i beam_shared.obj
 0001:000170c0       ?NetworkStateChanged@?$CNetworkVarBase@MVNetworkVar_m_fAmplitude@C_Beam@@@@IAEXXZ 240180c0 f i beam_shared.obj
 0001:000170d0       ?NetworkStateChanged@?$CNetworkVarBase@MVNetworkVar_m_fStartFrame@C_Beam@@@@IAEXXZ 240180d0 f i beam_shared.obj
 0001:000170e0       ?NetworkStateChanged@?$CNetworkVarBase@MVNetworkVar_m_fSpeed@C_Beam@@@@IAEXXZ 240180e0 f i beam_shared.obj
 0001:000170f0       ?NetworkStateChanged@?$CNetworkVarBase@VVector@@VNetworkVar_m_vecEndPos@C_Beam@@@@IAEXXZ 240180f0 f i beam_shared.obj
 0001:00017100       ?Set@NetworkVar_m_hAttachEntity@C_Beam@@QAEXHABV?$CHandle@VC_BaseEntity@@@@@Z 24018100 f i beam_shared.obj
 0001:00017170       ?Set@NetworkVar_m_nAttachIndex@C_Beam@@QAEXHABH@Z 24018170 f i beam_shared.obj
 0001:00017190       ?SetStartAttachment@C_Beam@@QAEXH@Z 24018190 f i beam_shared.obj
 0001:000171b0       ?SetEndAttachment@C_Beam@@QAEXH@Z 240181b0 f i beam_shared.obj
 0001:000171d0       ?IsStaticPointEntity@@YA_NPAVC_BaseEntity@@@Z 240181d0 f   beam_shared.obj
 0001:00017250       ??0?$CNetworkVectorBase@VVector@@VNetworkVar_m_vecEndPos@C_Beam@@@@QAE@XZ 24018250 f i beam_shared.obj
 0001:00017260       ?SetAbsStartPos@C_Beam@@QAEXABVVector@@@Z 24018260 f   beam_shared.obj
 0001:00017310       ?GetAbsEndPos@C_Beam@@QBEABVVector@@XZ 24018310 f   beam_shared.obj
 0001:00017410       ?RelinkBeam@C_Beam@@QAEXXZ 24018410 f   beam_shared.obj
 0001:000174e0       ?BeamDamage@C_Beam@@QAEXPAVCGameTrace@@@Z 240184e0 f   beam_shared.obj
 0001:00017500       ?ComputeBounds@C_Beam@@AAEXAAVVector@@0@Z 24018500 f   beam_shared.obj
 0001:00017800       ?Set@?$CNetworkVarBase@HVNetworkVar_m_nNumBeamEnts@C_Beam@@@@QAEABHABH@Z 24018800 f i beam_shared.obj
 0001:00017820       ?Set@?$CNetworkVarBase@HVNetworkVar_m_nHaloIndex@C_Beam@@@@QAEABHABH@Z 24018820 f i beam_shared.obj
 0001:00017840       ?Set@?$CNetworkVarBase@HVNetworkVar_m_nBeamType@C_Beam@@@@QAEABHABH@Z 24018840 f i beam_shared.obj
 0001:00017860       ?Set@?$CNetworkVarBase@HVNetworkVar_m_nBeamFlags@C_Beam@@@@QAEABHABH@Z 24018860 f i beam_shared.obj
 0001:00017880       ?Set@?$CNetworkVarBase@MVNetworkVar_m_fWidth@C_Beam@@@@QAEABMABM@Z 24018880 f i beam_shared.obj
 0001:000178a0       ?Set@?$CNetworkVarBase@MVNetworkVar_m_fEndWidth@C_Beam@@@@QAEABMABM@Z 240188a0 f i beam_shared.obj
 0001:000178c0       ?Set@?$CNetworkVarBase@MVNetworkVar_m_fFadeLength@C_Beam@@@@QAEABMABM@Z 240188c0 f i beam_shared.obj
 0001:000178e0       ?Set@?$CNetworkVarBase@MVNetworkVar_m_fHaloScale@C_Beam@@@@QAEABMABM@Z 240188e0 f i beam_shared.obj
 0001:00017900       ?Set@?$CNetworkVarBase@MVNetworkVar_m_fAmplitude@C_Beam@@@@QAEABMABM@Z 24018900 f i beam_shared.obj
 0001:00017920       ?Set@?$CNetworkVarBase@MVNetworkVar_m_fStartFrame@C_Beam@@@@QAEABMABM@Z 24018920 f i beam_shared.obj
 0001:00017940       ?Set@?$CNetworkVarBase@MVNetworkVar_m_fSpeed@C_Beam@@@@QAEABMABM@Z 24018940 f i beam_shared.obj
 0001:00017960       ?Set@?$CNetworkVarBase@VVector@@VNetworkVar_m_vecEndPos@C_Beam@@@@QAEABVVector@@ABV2@@Z 24018960 f i beam_shared.obj
 0001:000179b0       ??0?$CHandle@VC_BaseEntity@@@@QAE@PAVC_BaseEntity@@@Z 240189b0 f i beam_shared.obj
 0001:000179e0       ??0C_Beam@@QAE@XZ          240189e0 f   beam_shared.obj
 0001:00017a30       ?ShouldReceiveProjectedTextures@C_Beam@@UAE_NH@Z 24018a30 f i beam_shared.obj
 0001:00017a40       ??_EC_Beam@@UAEPAXI@Z      24018a40 f i beam_shared.obj
 0001:00017a40       ??_GC_Beam@@UAEPAXI@Z      24018a40 f i beam_shared.obj
 0001:00017a60       ?WorldSpaceCenter@C_Beam@@UBEABVVector@@XZ 24018a60 f i beam_shared.obj
 0001:00017ac0       ?SetStartEntity@C_Beam@@QAEXPAVC_BaseEntity@@@Z 24018ac0 f   beam_shared.obj
 0001:00017b10       ?SetEndEntity@C_Beam@@QAEXPAVC_BaseEntity@@@Z 24018b10 f   beam_shared.obj
 0001:00017b90       ?OnDataChanged@C_Beam@@UAEXW4DataUpdateType_t@@@Z 24018b90 f   beam_shared.obj
 0001:00017cb0       ?AddEntity@C_Beam@@UAEXXZ  24018cb0 f   beam_shared.obj
 0001:00017d50       ??4?$CNetworkVarBase@HVNetworkVar_m_nNumBeamEnts@C_Beam@@@@QAEABHABH@Z 24018d50 f i beam_shared.obj
 0001:00017d70       ??4?$CNetworkVarBase@HVNetworkVar_m_nHaloIndex@C_Beam@@@@QAEABHABH@Z 24018d70 f i beam_shared.obj
 0001:00017d90       ??4?$CNetworkVarBase@HVNetworkVar_m_nBeamType@C_Beam@@@@QAEABHABH@Z 24018d90 f i beam_shared.obj
 0001:00017db0       ??4?$CNetworkVarBase@HVNetworkVar_m_nBeamFlags@C_Beam@@@@QAEABHABH@Z 24018db0 f i beam_shared.obj
 0001:00017dd0       ??_5?$CNetworkVarBase@HVNetworkVar_m_nBeamFlags@C_Beam@@@@QAEABHABH@Z 24018dd0 f i beam_shared.obj
 0001:00017df0       ??4?$CNetworkVarBase@MVNetworkVar_m_fWidth@C_Beam@@@@QAEABMABM@Z 24018df0 f i beam_shared.obj
 0001:00017e10       ??4?$CNetworkVarBase@MVNetworkVar_m_fEndWidth@C_Beam@@@@QAEABMABM@Z 24018e10 f i beam_shared.obj
 0001:00017e30       ??4?$CNetworkVarBase@MVNetworkVar_m_fFadeLength@C_Beam@@@@QAEABMABM@Z 24018e30 f i beam_shared.obj
 0001:00017e50       ??4?$CNetworkVarBase@MVNetworkVar_m_fHaloScale@C_Beam@@@@QAEABMABM@Z 24018e50 f i beam_shared.obj
 0001:00017e70       ??4?$CNetworkVarBase@MVNetworkVar_m_fAmplitude@C_Beam@@@@QAEABMABM@Z 24018e70 f i beam_shared.obj
 0001:00017e90       ??4?$CNetworkVarBase@MVNetworkVar_m_fStartFrame@C_Beam@@@@QAEABMABM@Z 24018e90 f i beam_shared.obj
 0001:00017eb0       ??4?$CNetworkVarBase@MVNetworkVar_m_fSpeed@C_Beam@@@@QAEABMABM@Z 24018eb0 f i beam_shared.obj
 0001:00017ed0       ??4?$CNetworkVectorBase@VVector@@VNetworkVar_m_vecEndPos@C_Beam@@@@QAEABVVector@@ABV1@@Z 24018ed0 f i beam_shared.obj
 0001:00017f20       ?SetEndPos@C_Beam@@QAEXABVVector@@@Z 24018f20 f i beam_shared.obj
 0001:00017f80       ?SetWidth@C_Beam@@QAEXM@Z  24018f80 f i beam_shared.obj
 0001:00017fc0       ?SetEndWidth@C_Beam@@QAEXM@Z 24018fc0 f i beam_shared.obj
 0001:00018000       ?SetFadeLength@C_Beam@@QAEXM@Z 24019000 f i beam_shared.obj
 0001:00018020       ?SetNoise@C_Beam@@QAEXM@Z  24019020 f i beam_shared.obj
 0001:00018040       ?SetColor@C_Beam@@QAEXHHH@Z 24019040 f i beam_shared.obj
 0001:00018090       ?SetBrightness@C_Beam@@QAEXH@Z 24019090 f i beam_shared.obj
 0001:000180e0       ?SetFrame@C_Beam@@QAEXM@Z  240190e0 f i beam_shared.obj
 0001:00018100       ?SetScrollRate@C_Beam@@QAEXH@Z 24019100 f i beam_shared.obj
 0001:00018130       ?RecvProxy_Beam_ScrollSpeed@@YAXPBVCRecvProxyData@@PAX1@Z 24019130 f   beam_shared.obj
 0001:00018180       ??0CbeamFoo@@QAE@XZ        24019180 f i beam_shared.obj
 0001:000181f0       ??$ClientClassInit@Uignored@DT_Beam@@@@YAHPAUignored@DT_Beam@@@Z 240191f0 f   beam_shared.obj
 0001:00018500       ?Precache@C_Beam@@UAEXXZ   24019500 f   beam_shared.obj
 0001:000185d0       ?SetType@C_Beam@@QAEXH@Z   240195d0 f   beam_shared.obj
 0001:000185f0       ?SetBeamFlags@C_Beam@@QAEXH@Z 240195f0 f   beam_shared.obj
 0001:00018610       ?SetBeamFlag@C_Beam@@QAEXH@Z 24019610 f   beam_shared.obj
 0001:00018630       ?SetAbsEndPos@C_Beam@@QAEXABVVector@@@Z 24019630 f   beam_shared.obj
 0001:000186c0       ?BeamInit@C_Beam@@QAEXPBDM@Z 240196c0 f   beam_shared.obj
 0001:000188e0       ?PointsInit@C_Beam@@QAEXABVVector@@0@Z 240198e0 f   beam_shared.obj
 0001:00018970       ?HoseInit@C_Beam@@QAEXABVVector@@0@Z 24019970 f   beam_shared.obj
 0001:00018a00       ?PointEntInit@C_Beam@@QAEXABVVector@@PAVC_BaseEntity@@@Z 24019a00 f   beam_shared.obj
 0001:00018a90       ?EntsInit@C_Beam@@QAEXPAVC_BaseEntity@@0@Z 24019a90 f   beam_shared.obj
 0001:00018b40       ?LaserInit@C_Beam@@QAEXPAVC_BaseEntity@@0@Z 24019b40 f   beam_shared.obj
 0001:00018c00       ?SplineInit@C_Beam@@QAEXHPAPAVC_BaseEntity@@PAH@Z 24019c00 f   beam_shared.obj
 0001:00018d40       ?BeamCreate@C_Beam@@SAPAV1@PBDM@Z 24019d40 f   beam_shared.obj
 0001:00018d90       ?BeamCreatePredictable@C_Beam@@SAPAV1@PBDH_N0MPAVC_BasePlayer@@@Z 24019d90 f   beam_shared.obj
 0001:00018de0       ?GetMaterial@CEngineSprite@@QAEPAVIMaterial@@XZ 24019de0 f i beamdraw.obj
 0001:00018df0       ?GetUp@CEngineSprite@@QAEMXZ 24019df0 f i beamdraw.obj
 0001:00018e00       ?GetDown@CEngineSprite@@QAEMXZ 24019e00 f i beamdraw.obj
 0001:00018e10       ?GetLeft@CEngineSprite@@QAEMXZ 24019e10 f i beamdraw.obj
 0001:00018e20       ?GetRight@CEngineSprite@@QAEMXZ 24019e20 f i beamdraw.obj
 0001:00018e30       ?Base@Vector@@QBEPBMXZ     24019e30 f i beamdraw.obj
 0001:00018e40       ?VectorScale@@YAXABVVector@@MAAV1@@Z 24019e40 f i beamdraw.obj
 0001:00018e70       ?CrossProduct@@YAXABVVector@@0AAV1@@Z 24019e70 f i beamdraw.obj
 0001:00018eb0       ?CrossProduct@@YA?AVVector@@ABV1@0@Z 24019eb0 f i beamdraw.obj
 0001:00018ef0       ?VectorNormalizeFast@@YAXAAVVector@@@Z 24019ef0 f i beamdraw.obj
 0001:00018f00       ?VectorScale@@YAXPBMMPAM@Z 24019f00 f i beamdraw.obj
 0001:00018f30       ?SinCos@@YAXMPAM0@Z        24019f30 f i beamdraw.obj
 0001:00018f50       ??0CMeshBuilder@@QAE@XZ    24019f50 f i beamdraw.obj
 0001:00018f90       ?ComputeNumVertsAndIndices@CMeshBuilder@@AAEXW4MaterialPrimitiveType_t@@H@Z 24019f90 f i beamdraw.obj
 0001:00019080       ?IndicesFromVertices@CMeshBuilder@@AAEHW4MaterialPrimitiveType_t@@H@Z 2401a080 f i beamdraw.obj
 0001:000190d0       ?End@CMeshBuilder@@QAEX_N0@Z 2401a0d0 f i beamdraw.obj
 0001:00019210       ?Reset@CMeshBuilder@@QAEXXZ 2401a210 f i beamdraw.obj
 0001:00019260       ?OffsetFloatPointer@CMeshBuilder@@AAEPAMPAMHH@Z 2401a260 f i beamdraw.obj
 0001:00019270       ?IncrementFloatPointer@CMeshBuilder@@AAEXAAPAMH@Z 2401a270 f i beamdraw.obj
 0001:00019280       ?AdvanceVertex@CMeshBuilder@@QAEXXZ 2401a280 f i beamdraw.obj
 0001:000192e0       ?FastIndex@CMeshBuilder@@QAEXG@Z 2401a2e0 f i beamdraw.obj
 0001:00019310       ?Position3fv@CMeshBuilder@@QAEXPBM@Z 2401a310 f i beamdraw.obj
 0001:00019340       ?FastFToC@@YAEM@Z          2401a340 f i beamdraw.obj
 0001:00019360       ?Color3f@CMeshBuilder@@QAEXMMM@Z 2401a360 f i beamdraw.obj
 0001:000193d0       ?Color3fv@CMeshBuilder@@QAEXPBM@Z 2401a3d0 f i beamdraw.obj
 0001:00019440       ?Color4f@CMeshBuilder@@QAEXMMMM@Z 2401a440 f i beamdraw.obj
 0001:000194c0       ?Color3ubv@CMeshBuilder@@QAEXPBE@Z 2401a4c0 f i beamdraw.obj
 0001:000194f0       ?Color4ubv@CMeshBuilder@@QAEXPBE@Z 2401a4f0 f i beamdraw.obj
 0001:00019520       ?TexCoord2f@CMeshBuilder@@QAEXHMM@Z 2401a520 f i beamdraw.obj
 0001:00019540       ?TangentS3fv@CMeshBuilder@@QAEXPBM@Z 2401a540 f i beamdraw.obj
 0001:00019570       ?TangentT3fv@CMeshBuilder@@QAEXPBM@Z 2401a570 f i beamdraw.obj
 0001:000195a0       ??$_Pow_int@M@@YAMMH@Z     2401a5a0 f i beamdraw.obj
 0001:000195e0       ?ComputeNormal@CBeamSegDraw@@IAEXABVVector@@0PAV2@@Z 2401a5e0 f i beamdraw.obj
 0001:00019660       ?SpecifySeg@CBeamSegDraw@@IAEXABVVector@@@Z 2401a660 f i beamdraw.obj
 0001:00019b30       ??4CBeamSeg@@QAEAAV0@ABV0@@Z 2401ab30 f i beamdraw.obj
 0001:00019b70       ?End@CBeamSegDraw@@QAEXXZ  2401ab70 f   beamdraw.obj
 0001:00019b90       ?SetNormal@CBeamSegDrawArbitrary@@QAEXABVVector@@@Z 2401ab90 f   beamdraw.obj
 0001:00019bc0       ?SpecifySeg@CBeamSegDrawArbitrary@@IAEXABVVector@@@Z 2401abc0 f   beamdraw.obj
 0001:00019d70       ??0CBeamSeg@@QAE@XZ        2401ad70 f i beamdraw.obj
 0001:00019d80       ?CalcSegOrigin@@YAXPAVVector@@HHPAMABV1@22HMMMH@Z 2401ad80 f   beamdraw.obj
 0001:00019f00       ?pow@@YAMMH@Z              2401af00 f i beamdraw.obj
 0001:00019f20       ?Begin@CMeshBuilder@@QAEXPAVIMesh@@W4MaterialPrimitiveType_t@@H@Z 2401af20 f i beamdraw.obj
 0001:0001a000       ?Start@CBeamSegDraw@@QAEXHPAVIMaterial@@PAVCMeshBuilder@@H@Z 2401b000 f   beamdraw.obj
 0001:0001a130       ?NextSeg@CBeamSegDraw@@UAEXPAVCBeamSeg@@@Z 2401b130 f   beamdraw.obj
 0001:0001a280       ?NextSeg@CBeamSegDrawArbitrary@@UAEXPAVCBeamSeg@@@Z 2401b280 f   beamdraw.obj
 0001:0001a410       ?Draw_SetSpriteTexture@@YAPAVCEngineSprite@@PBUmodel_t@@HH@Z 2401b410 f   beamdraw.obj
 0001:0001a4a0       ?DrawHalo@@YAXPAVIMaterial@@ABVVector@@MPBM@Z 2401b4a0 f   beamdraw.obj
 0001:0001ab60       ?DrawSpriteModel@@YAXPAVIClientEntity@@PAVCEngineSprite@@ABVVector@@MMHHHHH222@Z 2401bb60 f   beamdraw.obj
 0001:0001ac70       ?DrawSprite@@YAXABVVector@@MMUcolor32_s@@@Z 2401bc70 f   beamdraw.obj
 0001:0001b190       ??0CBeamSegDraw@@QAE@XZ    2401c190 f i beamdraw.obj
 0001:0001b1d0       ?DrawTeslaSegs@@YAXHPAMPBUmodel_t@@MHABVVector@@2MMMMMHH0M@Z 2401c1d0 f   beamdraw.obj
 0001:0001b820       ?DrawSplineSegs@@YAXHPAMPBUmodel_t@@1MMHHPAVVector@@MMMMMHH0M@Z 2401c820 f   beamdraw.obj
 0001:0001c0c0       ?BeamDrawHalo@@YAXPBUmodel_t@@MHABVVector@@MPAM@Z 2401d0c0 f   beamdraw.obj
 0001:0001c120       ?DrawDisk@@YAXHPAMPBUmodel_t@@MHABVVector@@2MMMMH0@Z 2401d120 f   beamdraw.obj
 0001:0001c480       ?DrawCylinder@@YAXHPAMPBUmodel_t@@MHABVVector@@2MMMMH0@Z 2401d480 f   beamdraw.obj
 0001:0001c850       ?DrawRing@@YAXHPAMP6AX0HM@ZPBUmodel_t@@MHABVVector@@3MMMMH0@Z 2401d850 f   beamdraw.obj
 0001:0001d020       ?DrawBeamFollow@@YAXPBUmodel_t@@PAUBeamTrail_t@@HHAAVVector@@22MABV3@HMMMPAM@Z 2401e020 f   beamdraw.obj
 0001:0001d750       ?DrawBeamQuadratic@@YAXABVVector@@00M0M@Z 2401e750 f   beamdraw.obj
 0001:0001da00       ?DrawSegs@@YAXHPAMPBUmodel_t@@MHABVVector@@2MMMMMHH0M@Z 2401ea00 f   beamdraw.obj
 0001:0001df10       _sqrtf                     2401ef10 f i bitbuf.obj
 0001:0001df20       ?abs@@YAMM@Z               2401ef20 f i bitbuf.obj
 0001:0001df30       ?sqrt@@YAMM@Z              2401ef30 f i bitbuf.obj
 0001:0001df40       ?IsOverflowed@bf_write@@QBE_NXZ 2401ef40 f i bitbuf.obj
 0001:0001df50       ?SetOverflowFlag@bf_write@@QAEXXZ 2401ef50 f i bitbuf.obj
 0001:0001df60       ?WriteOneBitNoCheck@bf_write@@QAEXH@Z 2401ef60 f i bitbuf.obj
 0001:0001dfa0       ?WriteUBitLong@bf_write@@QAEXIH_N@Z 2401efa0 f i bitbuf.obj
 0001:0001e050       ?IsOverflowed@bf_read@@QBE_NXZ 2401f050 f i bitbuf.obj
 0001:0001e060       ?SetOverflowFlag@bf_read@@QAEXXZ 2401f060 f i bitbuf.obj
 0001:0001e070       ?CheckForOverflow@bf_read@@IAE_NH@Z 2401f070 f i bitbuf.obj
 0001:0001e090       ?ReadOneBitNoCheck@bf_read@@IAEHXZ 2401f090 f i bitbuf.obj
 0001:0001e0d0       ?ReadOneBit@bf_read@@QAEHXZ 2401f0d0 f i bitbuf.obj
 0001:0001e120       ?ReadUBitLong@bf_read@@QAEIH@Z 2401f120 f i bitbuf.obj
 0001:0001e1a0       ?Q_memcpy@@YAXPAXPBXH@Z    2401f1a0 f i bitbuf.obj
 0001:0001e1c0       ?InternalBitBufErrorHandler@@YAXW4BitBufErrorType@@PBD@Z 2401f1c0 f   bitbuf.obj
 0001:0001e1d0       ?SetBitBufErrorHandler@@YAXP6AXW4BitBufErrorType@@PBD@Z@Z 2401f1d0 f   bitbuf.obj
 0001:0001e1e0       ??0CBitWriteMasksInit@@QAE@XZ 2401f1e0 f i bitbuf.obj
 0001:0001e2b0       ??0bf_write@@QAE@XZ        2401f2b0 f   bitbuf.obj
 0001:0001e2d0       ?StartWriting@bf_write@@QAEXPAXHHH@Z 2401f2d0 f   bitbuf.obj
 0001:0001e310       ?Reset@bf_write@@QAEXXZ    2401f310 f   bitbuf.obj
 0001:0001e320       ?SetAssertOnOverflow@bf_write@@QAEX_N@Z 2401f320 f   bitbuf.obj
 0001:0001e330       ?GetDebugName@bf_write@@QAEPBDXZ 2401f330 f   bitbuf.obj
 0001:0001e340       ?SetDebugName@bf_write@@QAEXPBD@Z 2401f340 f   bitbuf.obj
 0001:0001e350       ?SeekToBit@bf_write@@QAEXH@Z 2401f350 f   bitbuf.obj
 0001:0001e360       ?WriteBits@bf_write@@QAE_NPBXH@Z 2401f360 f   bitbuf.obj
 0001:0001e480       ?WriteBitsFromBuffer@bf_write@@QAE_NPAVbf_read@@H@Z 2401f480 f   bitbuf.obj
 0001:0001e560       ?WriteBitAngle@bf_write@@QAEXMH@Z 2401f560 f   bitbuf.obj
 0001:0001e5d0       ?WriteBitFloat@bf_write@@QAEXM@Z 2401f5d0 f   bitbuf.obj
 0001:0001e5f0       ?WriteByte@bf_write@@QAEXH@Z 2401f5f0 f   bitbuf.obj
 0001:0001e610       ?WriteWord@bf_write@@QAEXH@Z 2401f610 f   bitbuf.obj
 0001:0001e630       ?WriteFloat@bf_write@@QAEXM@Z 2401f630 f   bitbuf.obj
 0001:0001e640       ?WriteBytes@bf_write@@QAE_NPBXH@Z 2401f640 f   bitbuf.obj
 0001:0001e660       ??0bf_read@@QAE@XZ         2401f660 f   bitbuf.obj
 0001:0001e680       ?StartReading@bf_read@@QAEXPBXHHH@Z 2401f680 f   bitbuf.obj
 0001:0001e6c0       ?Reset@bf_read@@QAEXXZ     2401f6c0 f   bitbuf.obj
 0001:0001e6d0       ?SetAssertOnOverflow@bf_read@@QAEX_N@Z 2401f6d0 f   bitbuf.obj
 0001:0001e6e0       ?GetDebugName@bf_read@@QAEPBDXZ 2401f6e0 f   bitbuf.obj
 0001:0001e6f0       ?SetDebugName@bf_read@@QAEXPBD@Z 2401f6f0 f   bitbuf.obj
 0001:0001e700       ?CheckReadUBitLong@bf_read@@IAEIH@Z 2401f700 f   bitbuf.obj
 0001:0001e760       ?ReadBits@bf_read@@QAE_NPAXH@Z 2401f760 f   bitbuf.obj
 0001:0001e940       ?ReadBitAngle@bf_read@@QAEMH@Z 2401f940 f   bitbuf.obj
 0001:0001e970       ?PeekUBitLong@bf_read@@QAEIH@Z 2401f970 f   bitbuf.obj
 0001:0001ea40       ?ReadSBitLong@bf_read@@QAEHH@Z 2401fa40 f   bitbuf.obj
 0001:0001eab0       ?ReadUBitVar@bf_read@@QAEIXZ 2401fab0 f   bitbuf.obj
 0001:0001eb30       ?ReadBitLong@bf_read@@QAEIH_N@Z 2401fb30 f   bitbuf.obj
 0001:0001eb60       ?ReadBitCoord@bf_read@@QAEMXZ 2401fb60 f   bitbuf.obj
 0001:0001ec90       ?ReadBitVec3Coord@bf_read@@QAEXAAVVector@@@Z 2401fc90 f   bitbuf.obj
 0001:0001eda0       ?ReadBitNormal@bf_read@@QAEMXZ 2401fda0 f   bitbuf.obj
 0001:0001ee20       ?ReadBitVec3Normal@bf_read@@QAEXAAVVector@@@Z 2401fe20 f   bitbuf.obj
 0001:0001ef70       ?ReadBitAngles@bf_read@@QAEXAAVQAngle@@@Z 2401ff70 f   bitbuf.obj
 0001:0001efa0       ?ReadChar@bf_read@@QAEHXZ  2401ffa0 f   bitbuf.obj
 0001:0001efb0       ?ReadByte@bf_read@@QAEHXZ  2401ffb0 f   bitbuf.obj
 0001:0001efc0       ?ReadShort@bf_read@@QAEHXZ 2401ffc0 f   bitbuf.obj
 0001:0001efd0       ?ReadWord@bf_read@@QAEHXZ  2401ffd0 f   bitbuf.obj
 0001:0001efe0       ?ReadLong@bf_read@@QAEJXZ  2401ffe0 f   bitbuf.obj
 0001:0001eff0       ?ReadFloat@bf_read@@QAEMXZ 2401fff0 f   bitbuf.obj
 0001:0001f010       ?ReadBytes@bf_read@@QAE_NPAXH@Z 24020010 f   bitbuf.obj
 0001:0001f030       ?ReadString@bf_read@@QAE_NPADH_NPAH@Z 24020030 f   bitbuf.obj
 0001:0001f100       ?ReadAndAllocateString@bf_read@@QAEPADPA_N@Z 24020100 f   bitbuf.obj
 0001:0001f170       ?Seek@bf_read@@QAE_NH@Z    24020170 f   bitbuf.obj
 0001:0001f1a0       ?CheckForOverflow@bf_write@@QAE_NH@Z 240201a0 f i bitbuf.obj
 0001:0001f1c0       ?WriteOneBit@bf_write@@QAEXH@Z 240201c0 f i bitbuf.obj
 0001:0001f210       ??0bf_write@@QAE@PBDPAXHH@Z 24020210 f   bitbuf.obj
 0001:0001f260       ??0bf_write@@QAE@PAXHH@Z   24020260 f   bitbuf.obj
 0001:0001f2a0       ?WriteSBitLong@bf_write@@QAEXHH@Z 240202a0 f   bitbuf.obj
 0001:0001f330       ?WriteUBitVar@bf_write@@QAEXI@Z 24020330 f   bitbuf.obj
 0001:0001f3b0       ?WriteBitLong@bf_write@@QAEXIH_N@Z 240203b0 f   bitbuf.obj
 0001:0001f3e0       ?WriteBitCoord@bf_write@@QAEXM@Z 240203e0 f   bitbuf.obj
 0001:0001f530       ?WriteBitVec3Coord@bf_write@@QAEXABVVector@@@Z 24020530 f   bitbuf.obj
 0001:0001f6a0       ?WriteBitNormal@bf_write@@QAEXM@Z 240206a0 f   bitbuf.obj
 0001:0001f750       ?WriteBitVec3Normal@bf_write@@QAEXABVVector@@@Z 24020750 f   bitbuf.obj
 0001:0001f8c0       ?WriteBitAngles@bf_write@@QAEXABVQAngle@@@Z 240208c0 f   bitbuf.obj
 0001:0001f8f0       ?WriteChar@bf_write@@QAEXH@Z 240208f0 f   bitbuf.obj
 0001:0001f900       ?WriteShort@bf_write@@QAEXH@Z 24020900 f   bitbuf.obj
 0001:0001f910       ?WriteLong@bf_write@@QAEXJ@Z 24020910 f   bitbuf.obj
 0001:0001f920       ?WriteString@bf_write@@QAE_NPBD@Z 24020920 f   bitbuf.obj
 0001:0001f9a0       ??0bf_read@@QAE@PBXHH@Z    240209a0 f   bitbuf.obj
 0001:0001f9e0       ??0bf_read@@QAE@PBDPBXHH@Z 240209e0 f   bitbuf.obj
 0001:0001fa30       ?ExciseBits@bf_read@@QAEXHH@Z 24020a30 f   bitbuf.obj
 0001:0001fb60       ?Init@CBoneMergeCache@@QAEXPAVC_BaseAnimating@@@Z 24020b60 f   bone_merge_cache.obj
 0001:0001fb80       ?IsExternallyAllocated@?$CUtlMemory@E@@QBE_NXZ 24020b80 f i bone_merge_cache.obj
 0001:0001fb90       ?Count@?$CUtlVector@EV?$CUtlMemory@E@@@@QBEHXZ 24020b90 f i bone_merge_cache.obj
 0001:0001fba0       ?Count@?$CUtlVector@VCMergedBone@CBoneMergeCache@@V?$CUtlMemory@VCMergedBone@CBoneMergeCache@@@@@@QBEHXZ 24020ba0 f i bone_merge_cache.obj
 0001:0001fbb0       ??0?$CUtlMemory@E@@QAE@HH@Z 24020bb0 f i bone_merge_cache.obj
 0001:0001fbe0       ?MatrixPosition@@YAXABUmatrix3x4_t@@AAVVector@@@Z 24020be0 f i bone_merge_cache.obj
 0001:0001fc00       ?MatrixAngles@@YAXABUmatrix3x4_t@@AAVQAngle@@AAVVector@@@Z 24020c00 f i bone_merge_cache.obj
 0001:0001fc30       ??0?$CUtlMemory@VCMergedBone@CBoneMergeCache@@@@QAE@HH@Z 24020c30 f i bone_merge_cache.obj
 0001:0001fc70       ?Base@?$CUtlMemory@VCMergedBone@CBoneMergeCache@@@@QAEPAVCMergedBone@CBoneMergeCache@@XZ 24020c70 f i bone_merge_cache.obj
 0001:0001fc80       ??$Destruct@E@@YAXPAE@Z    24020c80 f i bone_merge_cache.obj
 0001:0001fc90       ??$CopyConstruct@VCMergedBone@CBoneMergeCache@@@@YAXPAVCMergedBone@CBoneMergeCache@@ABV01@@Z 24020c90 f i bone_merge_cache.obj
 0001:0001fcb0       ??$Destruct@VCMergedBone@CBoneMergeCache@@@@YAXPAVCMergedBone@CBoneMergeCache@@@Z 24020cb0 f i bone_merge_cache.obj
 0001:0001fcc0       ?IsExternallyAllocated@?$CUtlMemory@VCMergedBone@CBoneMergeCache@@@@QBE_NXZ 24020cc0 f i bone_merge_cache.obj
 0001:0001fcd0       ?NumAllocated@?$CUtlMemory@VCMergedBone@CBoneMergeCache@@@@QBEHXZ 24020cd0 f i bone_merge_cache.obj
 0001:0001fce0       ?Grow@?$CUtlMemory@VCMergedBone@CBoneMergeCache@@@@QAEXH@Z 24020ce0 f i bone_merge_cache.obj
 0001:0001fd50       ??$Construct@E@@YAXPAE@Z   24020d50 f i bone_merge_cache.obj
 0001:0001fd60       ?Grow@?$CUtlMemory@E@@QAEXH@Z 24020d60 f i bone_merge_cache.obj
 0001:0001fdd0       ?pszName@mstudiobone_t@@QBEQADXZ 24020dd0 f i bone_merge_cache.obj
 0001:0001fde0       ?pBone@studiohdr_t@@QBEPAUmstudiobone_t@@H@Z 24020de0 f i bone_merge_cache.obj
 0001:0001fe10       ?GetBone@CBoneAccessor@@QBEABUmatrix3x4_t@@H@Z 24020e10 f i bone_merge_cache.obj
 0001:0001fe20       ?GetBoneForWrite@CBoneAccessor@@QAEAAUmatrix3x4_t@@H@Z 24020e20 f i bone_merge_cache.obj
 0001:0001fe30       ?GetBone@C_BaseAnimating@@QBEABUmatrix3x4_t@@H@Z 24020e30 f i bone_merge_cache.obj
 0001:0001fe50       ?GetBoneForWrite@C_BaseAnimating@@QAEAAUmatrix3x4_t@@H@Z 24020e50 f i bone_merge_cache.obj
 0001:0001fe70       ?Base@?$CUtlMemory@E@@QAEPAEXZ 24020e70 f i bone_merge_cache.obj
 0001:0001fe80       ?NumAllocated@?$CUtlMemory@E@@QBEHXZ 24020e80 f i bone_merge_cache.obj
 0001:0001fe90       ?Purge@?$CUtlMemory@E@@QAEXXZ 24020e90 f i bone_merge_cache.obj
 0001:0001fec0       ?Base@?$CUtlVector@EV?$CUtlMemory@E@@@@QAEPAEXZ 24020ec0 f i bone_merge_cache.obj
 0001:0001fed0       ??A?$CUtlVector@EV?$CUtlMemory@E@@@@QAEAAEH@Z 24020ed0 f i bone_merge_cache.obj
 0001:0001fee0       ?Base@?$CUtlVector@VCMergedBone@CBoneMergeCache@@V?$CUtlMemory@VCMergedBone@CBoneMergeCache@@@@@@QAEPAVCMergedBone@CBoneMergeCache@@XZ 24020ee0 f i bone_merge_cache.obj
 0001:0001fef0       ??1?$CUtlMemory@E@@QAE@XZ  24020ef0 f i bone_merge_cache.obj
 0001:0001ff20       ?ResetDbgInfo@?$CUtlVector@EV?$CUtlMemory@E@@@@IAEXXZ 24020f20 f i bone_merge_cache.obj
 0001:0001ff30       ?ResetDbgInfo@?$CUtlVector@VCMergedBone@CBoneMergeCache@@V?$CUtlMemory@VCMergedBone@CBoneMergeCache@@@@@@IAEXXZ 24020f30 f i bone_merge_cache.obj
 0001:0001ff40       ?Purge@?$CUtlMemory@VCMergedBone@CBoneMergeCache@@@@QAEXXZ 24020f40 f i bone_merge_cache.obj
 0001:0001ff70       ?Element@?$CUtlVector@EV?$CUtlMemory@E@@@@QAEAAEH@Z 24020f70 f i bone_merge_cache.obj
 0001:0001ff80       ?Element@?$CUtlVector@VCMergedBone@CBoneMergeCache@@V?$CUtlMemory@VCMergedBone@CBoneMergeCache@@@@@@QAEAAVCMergedBone@CBoneMergeCache@@H@Z 24020f80 f i bone_merge_cache.obj
 0001:0001ff90       ?GrowVector@?$CUtlVector@VCMergedBone@CBoneMergeCache@@V?$CUtlMemory@VCMergedBone@CBoneMergeCache@@@@@@IAEXH@Z 24020f90 f i bone_merge_cache.obj
 0001:0001ffc0       ?ShiftElementsRight@?$CUtlVector@VCMergedBone@CBoneMergeCache@@V?$CUtlMemory@VCMergedBone@CBoneMergeCache@@@@@@IAEXHH@Z 24020fc0 f i bone_merge_cache.obj
 0001:00020000       ?GrowVector@?$CUtlVector@EV?$CUtlMemory@E@@@@IAEXH@Z 24021000 f i bone_merge_cache.obj
 0001:00020030       ?ShiftElementsRight@?$CUtlVector@EV?$CUtlMemory@E@@@@IAEXHH@Z 24021030 f i bone_merge_cache.obj
 0001:00020060       ??0?$CUtlVector@EV?$CUtlMemory@E@@@@QAE@HH@Z 24021060 f i bone_merge_cache.obj
 0001:000200a0       ??A?$CUtlVector@VCMergedBone@CBoneMergeCache@@V?$CUtlMemory@VCMergedBone@CBoneMergeCache@@@@@@QAEAAVCMergedBone@CBoneMergeCache@@H@Z 240210a0 f i bone_merge_cache.obj
 0001:000200b0       ?RemoveAll@?$CUtlVector@EV?$CUtlMemory@E@@@@QAEXXZ 240210b0 f i bone_merge_cache.obj
 0001:000200c0       ?InsertBefore@?$CUtlVector@VCMergedBone@CBoneMergeCache@@V?$CUtlMemory@VCMergedBone@CBoneMergeCache@@@@@@QAEHHABVCMergedBone@CBoneMergeCache@@@Z 240210c0 f i bone_merge_cache.obj
 0001:00020130       ?RemoveAll@?$CUtlVector@VCMergedBone@CBoneMergeCache@@V?$CUtlMemory@VCMergedBone@CBoneMergeCache@@@@@@QAEXXZ 24021130 f i bone_merge_cache.obj
 0001:00020140       ??1?$CUtlMemory@VCMergedBone@CBoneMergeCache@@@@QAE@XZ 24021140 f i bone_merge_cache.obj
 0001:00020170       ?InsertMultipleBefore@?$CUtlVector@EV?$CUtlMemory@E@@@@QAEHHHPBE@Z 24021170 f i bone_merge_cache.obj
 0001:00020200       ?Purge@?$CUtlVector@EV?$CUtlMemory@E@@@@QAEXXZ 24021200 f i bone_merge_cache.obj
 0001:00020240       ??0?$CUtlVector@VCMergedBone@CBoneMergeCache@@V?$CUtlMemory@VCMergedBone@CBoneMergeCache@@@@@@QAE@HH@Z 24021240 f i bone_merge_cache.obj
 0001:00020280       ?AddToTail@?$CUtlVector@VCMergedBone@CBoneMergeCache@@V?$CUtlMemory@VCMergedBone@CBoneMergeCache@@@@@@QAEHABVCMergedBone@CBoneMergeCache@@@Z 24021280 f i bone_merge_cache.obj
 0001:000202a0       ?Purge@?$CUtlVector@VCMergedBone@CBoneMergeCache@@V?$CUtlMemory@VCMergedBone@CBoneMergeCache@@@@@@QAEXXZ 240212a0 f i bone_merge_cache.obj
 0001:000202e0       ?AddMultipleToTail@?$CUtlVector@EV?$CUtlMemory@E@@@@QAEHHPBE@Z 240212e0 f i bone_merge_cache.obj
 0001:00020300       ??1?$CUtlVector@EV?$CUtlMemory@E@@@@QAE@XZ 24021300 f i bone_merge_cache.obj
 0001:00020360       ??1?$CUtlVector@VCMergedBone@CBoneMergeCache@@V?$CUtlMemory@VCMergedBone@CBoneMergeCache@@@@@@QAE@XZ 24021360 f i bone_merge_cache.obj
 0001:000203c0       ?SetCount@?$CUtlVector@EV?$CUtlMemory@E@@@@QAEXH@Z 240213c0 f i bone_merge_cache.obj
 0001:00020410       ??0CBoneMergeCache@@QAE@XZ 24021410 f   bone_merge_cache.obj
 0001:00020450       ?SetSize@?$CUtlVector@EV?$CUtlMemory@E@@@@QAEXH@Z 24021450 f i bone_merge_cache.obj
 0001:000204a0       ?UpdateCache@CBoneMergeCache@@QAEXXZ 240214a0 f   bone_merge_cache.obj
 0001:00020660       ?MergeMatchingBones@CBoneMergeCache@@QAEXH@Z 24021660 f   bone_merge_cache.obj
 0001:00020710       ?GetAimEntOrigin@CBoneMergeCache@@QAE_NPAVVector@@PAVQAngle@@@Z 24021710 f   bone_merge_cache.obj
 0001:000207f0       _acosf                     240217f0 f i bone_setup.obj
 0001:00020800       _floorf                    24021800 f i bone_setup.obj
 0001:00020820       ?acos@@YAMM@Z              24021820 f i bone_setup.obj
 0001:00020830       ?floor@@YAMM@Z             24021830 f i bone_setup.obj
 0001:00020850       ?Cross@Vector@@QBE?AV1@ABV1@@Z 24021850 f i bone_setup.obj
 0001:000208b0       ??0Quaternion@@QAE@XZ      240218b0 f i bone_setup.obj
 0001:000208c0       ?Init@Quaternion@@QAEXMMMM@Z 240218c0 f i bone_setup.obj
 0001:000208e0       ??AQuaternion@@QAEAAMH@Z   240218e0 f i bone_setup.obj
 0001:000208f0       ??AQuaternion@@QBEMH@Z     240218f0 f i bone_setup.obj
 0001:00020900       ??0RadianEuler@@QAE@XZ     24021900 f i bone_setup.obj
 0001:00020910       ?Init@RadianEuler@@QAEXMMM@Z 24021910 f i bone_setup.obj
 0001:00020930       ??0RadianEuler@@QAE@ABVQuaternion@@@Z 24021930 f i bone_setup.obj
 0001:00020950       ??Amatrix3x4_t@@QAEPAMH@Z  24021950 f i bone_setup.obj
 0001:00020960       ??Amatrix3x4_t@@QBEPBMH@Z  24021960 f i bone_setup.obj
 0001:00020970       ?VectorRotate@@YAXABVVector@@ABUmatrix3x4_t@@AAV1@@Z 24021970 f i bone_setup.obj
 0001:00020980       ?VectorIRotate@@YAXABVVector@@ABUmatrix3x4_t@@AAV1@@Z 24021980 f i bone_setup.obj
 0001:00020990       ?VectorITransform@@YAXABVVector@@ABUmatrix3x4_t@@AAV1@@Z 24021990 f i bone_setup.obj
 0001:000209a0       ??BQuaternion48@@QAE?AVQuaternion@@XZ 240219a0 f i bone_setup.obj
 0001:00020a90       ?Convert16bitFloatTo32bits@float16@@AAEMG@Z 24021a90 f i bone_setup.obj
 0001:00020ae0       ?Q_stricmp@@YAHPBD0@Z      24021ae0 f i bone_setup.obj
 0001:00020af0       ?pTrigger@mstudioquatinterpbone_t@@QBEPAUmstudioquatinterpinfo_t@@H@Z 24021af0 f i bone_setup.obj
 0001:00020b10       ?pProcedure@mstudiobone_t@@QBEPAXXZ 24021b10 f i bone_setup.obj
 0001:00020b20       ?pszName@mstudioattachment_t@@QBEQADXZ 24021b20 f i bone_setup.obj
 0001:00020b30       ?pAnimvalue@mstudiocompressedikerror_t@@QBEPATmstudioanimvalue_t@@H@Z 24021b30 f i bone_setup.obj
 0001:00020b50       ?pCompressedError@mstudioikrule_t@@QBEPAUmstudiocompressedikerror_t@@XZ 24021b50 f i bone_setup.obj
 0001:00020b60       ?pError@mstudioikrule_t@@QBEPAUmstudioikerror_t@@H@Z 24021b60 f i bone_setup.obj
 0001:00020b90       ?pszAttachment@mstudioikrule_t@@QBEQADXZ 24021b90 f i bone_setup.obj
 0001:00020ba0       ?pAnimvalue@mstudioanim_valueptr_t@@QBEPATmstudioanimvalue_t@@H@Z 24021ba0 f i bone_setup.obj
 0001:00020bc0       ?pData@mstudioanim_t@@QBEPAEXZ 24021bc0 f i bone_setup.obj
 0001:00020bd0       ?pRotV@mstudioanim_t@@QBEPAUmstudioanim_valueptr_t@@XZ 24021bd0 f i bone_setup.obj
 0001:00020be0       ?pPosV@mstudioanim_t@@QBEPAUmstudioanim_valueptr_t@@XZ 24021be0 f i bone_setup.obj
 0001:00020c00       ?pQuat@mstudioanim_t@@QBEPAVQuaternion48@@XZ 24021c00 f i bone_setup.obj
 0001:00020c10       ?pPos@mstudioanim_t@@QBEPAVVector48@@XZ 24021c10 f i bone_setup.obj
 0001:00020c20       ?pNext@mstudioanim_t@@QBEPAU1@XZ 24021c20 f i bone_setup.obj
 0001:00020c40       ?pMovement@mstudioanimdesc_t@@QBEQAUmstudiomovement_t@@H@Z 24021c40 f i bone_setup.obj
 0001:00020c60       ?pIKRule@mstudioanimdesc_t@@QBEPAUmstudioikrule_t@@H@Z 24021c60 f i bone_setup.obj
 0001:00020c80       ?anim@mstudioseqdesc_t@@QBEHHH@Z 24021c80 f i bone_setup.obj
 0001:00020cc0       ?pAutolayer@mstudioseqdesc_t@@QBEPAUmstudioautolayer_t@@H@Z 24021cc0 f i bone_setup.obj
 0001:00020ce0       ?pBoneweight@mstudioseqdesc_t@@QBEPAMH@Z 24021ce0 f i bone_setup.obj
 0001:00020d00       ?weight@mstudioseqdesc_t@@QBEMH@Z 24021d00 f i bone_setup.obj
 0001:00020d20       ?pPoseKey@mstudioseqdesc_t@@QBEPAMHH@Z 24021d20 f i bone_setup.obj
 0001:00020d40       ?poseKey@mstudioseqdesc_t@@QBEMHH@Z 24021d40 f i bone_setup.obj
 0001:00020d60       ?pIKLock@mstudioseqdesc_t@@QBEPAUmstudioiklock_t@@H@Z 24021d60 f i bone_setup.obj
 0001:00020d80       ?KeyValueText@mstudioseqdesc_t@@QBEPBDXZ 24021d80 f i bone_setup.obj
 0001:00020da0       ?pLink@mstudioikchain_t@@QBEPAUmstudioiklink_t@@H@Z 24021da0 f i bone_setup.obj
 0001:00020dc0       ?pHitbox@mstudiohitboxset_t@@QBEPAUmstudiobbox_t@@H@Z 24021dc0 f i bone_setup.obj
 0001:00020de0       ?pBonecontroller@studiohdr_t@@QBEPAUmstudiobonecontroller_t@@H@Z 24021de0 f i bone_setup.obj
 0001:00020e00       ?pIKChain@studiohdr_t@@QBEPAUmstudioikchain_t@@H@Z 24021e00 f i bone_setup.obj
 0001:00020e20       ?pszSurfaceProp@studiohdr_t@@QBEQADXZ 24021e20 f i bone_setup.obj
 0001:00020e30       ?GetBoneTableSortedByName@studiohdr_t@@QBEPBEXZ 24021e30 f i bone_setup.obj
 0001:00020e40       ??0ikcontextikrule_t@@QAE@XZ 24021e40 f i bone_setup.obj
 0001:00020e50       ?GetData@CBoneCache@@QAEPAV1@XZ 24021e50 f i bone_setup.obj
 0001:00020e60       ?Size@CBoneCache@@QAEIXZ   24021e60 f i bone_setup.obj
 0001:00020e70       ?EstimatedSize@CBoneCache@@SAIABUbonecacheparams_t@@@Z 24021e70 f   bone_setup.obj
 0001:00020e90       ?DestroyResource@CBoneCache@@QAEXXZ 24021e90 f   bone_setup.obj
 0001:00020ea0       ??0CBoneCache@@QAE@XZ      24021ea0 f   bone_setup.obj
 0001:00020eb0       ?IsValid@CBoneCache@@QAE_NMM@Z 24021eb0 f   bone_setup.obj
 0001:00020ed0       ?BoneArray@CBoneCache@@AAEPAUmatrix3x4_t@@XZ 24021ed0 f   bone_setup.obj
 0001:00020ee0       ?StudioToCached@CBoneCache@@AAEPAFXZ 24021ee0 f   bone_setup.obj
 0001:00020ef0       ?CachedToStudio@CBoneCache@@AAEPAFXZ 24021ef0 f   bone_setup.obj
 0001:00020f00       ?Studio_DestroyBoneCache@@YAXPAUmemhandle_t__@@@Z 24021f00 f   bone_setup.obj
 0001:00020f10       ?ExtractAnimValue@@YAXPBUstudiohdr_t@@HPATmstudioanimvalue_t@@MAAM2@Z 24021f10 f   bone_setup.obj
 0001:00021010       ?CalcBoneQuaternion@@YAXPBUstudiohdr_t@@HMPBUmstudiobone_t@@PBUmstudioanim_t@@AAVQuaternion@@@Z 24022010 f   bone_setup.obj
 0001:00021220       ?QuaternionSM@@YAXMABVQuaternion@@0AAV1@@Z 24022220 f   bone_setup.obj
 0001:00021280       ?QuaternionMA@@YAXABVQuaternion@@M0AAV1@@Z 24022280 f   bone_setup.obj
 0001:000212e0       ?QuaternionAccumulate@@YAXABVQuaternion@@M0AAV1@@Z 240222e0 f   bone_setup.obj
 0001:00021340       ?Studio_LocalPoseParameter@@YAXPBUstudiohdr_t@@QBMHHAAMAAH@Z 24022340 f   bone_setup.obj
 0001:00021570       ?Studio_CalcBoneToBoneTransform@@YAXPBUstudiohdr_t@@HHAAUmatrix3x4_t@@@Z 24022570 f   bone_setup.obj
 0001:000215e0       ?InitPose@@YAXPBUstudiohdr_t@@QAVVector@@QAVQuaternion@@@Z 240225e0 f   bone_setup.obj
 0001:00021660       ?PoseIsAllZeros@@YA_NPBUstudiohdr_t@@HAAUmstudioseqdesc_t@@HH@Z 24022660 f i bone_setup.obj
 0001:000216c0       ?AddSequenceLayers@@YAXPBUstudiohdr_t@@PAVCIKContext@@QAVVector@@QAVQuaternion@@HMQBMHMM@Z 240226c0 f   bone_setup.obj
 0001:00021890       ?CalcBoneAdj@@YAXPBUstudiohdr_t@@QAVVector@@QAVQuaternion@@QBMH@Z 24022890 f   bone_setup.obj
 0001:00021a90       ?CalcBoneDerivatives@@YAXAAVVector@@0ABUmatrix3x4_t@@1M@Z 24022a90 f   bone_setup.obj
 0001:00021b80       ?CalcBoneVelocityFromDerivative@@YAXABVQAngle@@AAVVector@@1ABUmatrix3x4_t@@@Z 24022b80 f   bone_setup.obj
 0001:00021c20       ?findD@ik@@SAMMMM@Z        24022c20 f i bone_setup.obj
 0001:00021c50       ?findE@ik@@SAMMM@Z         24022c50 f i bone_setup.obj
 0001:00021c70       ?dot@ik@@SAMQBM0@Z         24022c70 f i bone_setup.obj
 0001:00021c90       ?length@ik@@SAMQBM@Z       24022c90 f i bone_setup.obj
 0001:00021cc0       ?normalize@ik@@SAXQAM@Z    24022cc0 f i bone_setup.obj
 0001:00021d00       ?cross@ik@@SAXQBM0QAM@Z    24022d00 f i bone_setup.obj
 0001:00021d40       ?rot@ik@@SAXQAY02$$CBMQBMQAM@Z 24022d40 f i bone_setup.obj
 0001:00021da0       ?Studio_AlignIKMatrix@@YAXAAUmatrix3x4_t@@ABVVector@@@Z 24022da0 f   bone_setup.obj
 0001:00021ef0       ?Studio_IKRuleWeight@@YAMAAUmstudioikrule_t@@M@Z 24022ef0 f   bone_setup.obj
 0001:00021fc0       ?Studio_IKRuleWeight@@YAMAAUikcontextikrule_t@@M@Z 24022fc0 f   bone_setup.obj
 0001:00022090       ?Studio_IKShouldLatch@@YA_NAAUikcontextikrule_t@@M@Z 24023090 f   bone_setup.obj
 0001:000220f0       ?Studio_IKTail@@YAMAAUikcontextikrule_t@@M@Z 240230f0 f   bone_setup.obj
 0001:00022160       ?Studio_IKAnimationError@@YAXPBUstudiohdr_t@@PAUmstudioikrule_t@@PBUmstudioanimdesc_t@@MAAVVector@@AAVQuaternion@@AAM@Z 24023160 f   bone_setup.obj
 0001:000225f0       ??4ikcontextikrule_t@@QAEAAU0@ABU0@@Z 240235f0 f i bone_setup.obj
 0001:000226c0       ?SolveBone@@YAXPBUstudiohdr_t@@HPAUmatrix3x4_t@@QAVVector@@QAVQuaternion@@@Z 240236c0 f   bone_setup.obj
 0001:00022750       ?SetPos@CIKTarget@@QAEXABVVector@@@Z 24023750 f   bone_setup.obj
 0001:00022770       ?SetAngles@CIKTarget@@QAEXABVQAngle@@@Z 24023770 f   bone_setup.obj
 0001:00022790       ?SetQuaternion@CIKTarget@@QAEXABVQuaternion@@@Z 24023790 f   bone_setup.obj
 0001:000227b0       ?SetNormal@CIKTarget@@QAEXABVVector@@@Z 240237b0 f   bone_setup.obj
 0001:000228b0       ?SetPosWithNormalOffset@CIKTarget@@QAEXABVVector@@0@Z 240238b0 f   bone_setup.obj
 0001:00022920       ?IsActive@CIKTarget@@QAE_NXZ 24023920 f   bone_setup.obj
 0001:00022940       ?IKFailed@CIKTarget@@QAEXXZ 24023940 f   bone_setup.obj
 0001:000229c0       ??0ikchainresult_t@@QAE@XZ 240239c0 f i bone_setup.obj
 0001:000229d0       ?Studio_BuildMatrices@@YAXPBUstudiohdr_t@@ABVQAngle@@ABVVector@@QBV3@QBVQuaternion@@HQAUmatrix3x4_t@@H@Z 240239d0 f   bone_setup.obj
 0001:00022b20       ?DoAxisInterpBone@@YAXPAUmstudiobone_t@@HAAVCBoneAccessor@@@Z 24023b20 f   bone_setup.obj
 0001:00022dc0       ?DoQuatInterpBone@@YAXPAUmstudiobone_t@@HAAVCBoneAccessor@@@Z 24023dc0 f   bone_setup.obj
 0001:00023120       ?CalcProceduralBone@@YA_NPBUstudiohdr_t@@HAAVCBoneAccessor@@@Z 24024120 f   bone_setup.obj
 0001:000231d0       ?Studio_SetController@@YAMPBUstudiohdr_t@@HMAAM@Z 240241d0 f   bone_setup.obj
 0001:00023390       ?Studio_GetController@@YAMPBUstudiohdr_t@@HM@Z 24024390 f   bone_setup.obj
 0001:000233c0       ?Studio_SetPoseParameter@@YAMPBUstudiohdr_t@@HMAAM@Z 240243c0 f   bone_setup.obj
 0001:000234a0       ?Studio_GetPoseParameter@@YAMPBUstudiohdr_t@@HM@Z 240244a0 f   bone_setup.obj
 0001:000234e0       ?Studio_SeqAnims@@YAXPBUstudiohdr_t@@HQBMQAPAUmstudioanimdesc_t@@PAM@Z 240244e0 f   bone_setup.obj
 0001:00023700       ?Studio_MaxFrame@@YAHPBUstudiohdr_t@@HQBM@Z 24024700 f   bone_setup.obj
 0001:000237f0       ?Studio_FPS@@YAMPBUstudiohdr_t@@HQBM@Z 240247f0 f   bone_setup.obj
 0001:000238a0       ?Studio_CPS@@YAMPBUstudiohdr_t@@HQBM@Z 240248a0 f   bone_setup.obj
 0001:00023990       ?Studio_Duration@@YAMPBUstudiohdr_t@@HQBM@Z 24024990 f   bone_setup.obj
 0001:00023ab0       ?Studio_AnimPosition@@YA_NPAUmstudioanimdesc_t@@MAAVVector@@AAVQAngle@@@Z 24024ab0 f   bone_setup.obj
 0001:00023d50       ?Studio_AnimVelocity@@YA_NPAUmstudioanimdesc_t@@MAAVVector@@@Z 24024d50 f   bone_setup.obj
 0001:00023e60       ?Studio_AnimMovement@@YA_NPAUmstudioanimdesc_t@@MMAAVVector@@AAVQAngle@@@Z 24024e60 f   bone_setup.obj
 0001:00023f10       ?Studio_FindAnimDistance@@YAMPAUmstudioanimdesc_t@@M@Z 24024f10 f   bone_setup.obj
 0001:00024000       ?Studio_SeqMovement@@YA_NPBUstudiohdr_t@@HMMQBMAAVVector@@AAVQAngle@@@Z 24025000 f   bone_setup.obj
 0001:00024250       ?Studio_SeqVelocity@@YA_NPBUstudiohdr_t@@HMQBMAAVVector@@@Z 24025250 f   bone_setup.obj
 0001:00024360       ?Studio_FindSeqDistance@@YAMPBUstudiohdr_t@@HQBMM@Z 24025360 f   bone_setup.obj
 0001:000243e0       ?Studio_FindAttachment@@YAHPBUstudiohdr_t@@PBD@Z 240253e0 f   bone_setup.obj
 0001:00024440       ?Studio_BoneIndexByName@@YAHPBUstudiohdr_t@@PBD@Z 24025440 f   bone_setup.obj
 0001:000244d0       ?Studio_GetDefaultSurfaceProps@@YAPBDPAUstudiohdr_t@@@Z 240254d0 f   bone_setup.obj
 0001:000244e0       ?Studio_GetMass@@YAMPAUstudiohdr_t@@@Z 240254e0 f   bone_setup.obj
 0001:000244f0       ?Studio_GetKeyValueText@@YAPBDPBUstudiohdr_t@@H@Z 240254f0 f   bone_setup.obj
 0001:00024540       ??0?$CResourceManager@VCBoneCache@@Ubonecacheparams_t@@PAV1@@@QAE@I@Z 24025540 f i bone_setup.obj
 0001:00024560       ??1?$CResourceManager@VCBoneCache@@Ubonecacheparams_t@@PAV1@@@UAE@XZ 24025560 f i bone_setup.obj
 0001:00024580       ??_G?$CResourceManager@VCBoneCache@@Ubonecacheparams_t@@PAV1@@@UAEPAXI@Z 24025580 f i bone_setup.obj
 0001:00024580       ??_E?$CResourceManager@VCBoneCache@@Ubonecacheparams_t@@PAV1@@@UAEPAXI@Z 24025580 f i bone_setup.obj
 0001:000245b0       ?StoragePointer@?$CResourceManager@VCBoneCache@@Ubonecacheparams_t@@PAV1@@@AAEPAVCBoneCache@@PAX@Z 240255b0 f i bone_setup.obj
 0001:000245c0       ?Size@?$CUtlVector@HV?$CUtlMemory@H@@@@QBEHXZ 240255c0 f i bone_setup.obj
 0001:000245d0       ??0?$CBitVec@$0IA@@@QAE@XZ 240255d0 f i bone_setup.obj
 0001:000245e0       ?Get@?$CBitVec@$0IA@@@QBEKK@Z 240255e0 f i bone_setup.obj
 0001:00024600       ?Set@?$CBitVec@$0IA@@@QAEXK@Z 24025600 f i bone_setup.obj
 0001:00024620       ?Base@?$CUtlMemory@VCIKTarget@@@@QAEPAVCIKTarget@@XZ 24025620 f i bone_setup.obj
 0001:00024630       ?Count@?$CUtlVector@VCIKTarget@@V?$CUtlMemory@VCIKTarget@@@@@@QBEHXZ 24025630 f i bone_setup.obj
 0001:00024640       ?Count@?$CUtlVector@V?$CUtlVector@Uikcontextikrule_t@@V?$CUtlMemory@Uikcontextikrule_t@@@@@@V?$CUtlMemory@V?$CUtlVector@Uikcontextikrule_t@@V?$CUtlMemory@Uikcontextikrule_t@@@@@@@@@@QBEHXZ 24025640 f i bone_setup.obj
 0001:00024650       ?Count@?$CUtlVector@Uikcontextikrule_t@@V?$CUtlMemory@Uikcontextikrule_t@@@@@@QBEHXZ 24025650 f i bone_setup.obj
 0001:00024660       ??$Construct@VCBoneCache@@@@YAXPAVCBoneCache@@@Z 24025660 f i bone_setup.obj
 0001:00024680       ??$Lerp@VVector@@@@YA?AVVector@@MABV0@0@Z 24025680 f i bone_setup.obj
 0001:00024740       ??0?$CUtlMemory@H@@QAE@HH@Z 24025740 f i bone_setup.obj
 0001:00024780       ?Base@?$CUtlMemory@H@@QBEPBHXZ 24025780 f i bone_setup.obj
 0001:00024790       ?Base@?$CUtlMemory@H@@QAEPAHXZ 24025790 f i bone_setup.obj
 0001:000247a0       ??$Destruct@H@@YAXPAH@Z    240257a0 f i bone_setup.obj
 0001:000247b0       ??0?$CUtlMemory@VCIKTarget@@@@QAE@HH@Z 240257b0 f i bone_setup.obj
 0001:000247f0       ??0?$CUtlMemory@V?$CUtlVector@Uikcontextikrule_t@@V?$CUtlMemory@Uikcontextikrule_t@@@@@@@@QAE@HH@Z 240257f0 f i bone_setup.obj
 0001:00024830       ?Base@?$CUtlMemory@V?$CUtlVector@Uikcontextikrule_t@@V?$CUtlMemory@Uikcontextikrule_t@@@@@@@@QAEPAV?$CUtlVector@Uikcontextikrule_t@@V?$CUtlMemory@Uikcontextikrule_t@@@@@@XZ 24025830 f i bone_setup.obj
 0001:00024840       ??0?$CUtlMemory@Uikcontextikrule_t@@@@QAE@HH@Z 24025840 f i bone_setup.obj
 0001:00024880       ?Base@?$CUtlMemory@Uikcontextikrule_t@@@@QAEPAUikcontextikrule_t@@XZ 24025880 f i bone_setup.obj
 0001:00024890       ??$Destruct@Uikcontextikrule_t@@@@YAXPAUikcontextikrule_t@@@Z 24025890 f i bone_setup.obj
 0001:000248a0       ?Base@?$CUtlMemory@Uvirtualsequence_t@@@@QAEPAUvirtualsequence_t@@XZ 240258a0 f i bone_setup.obj
 0001:000248b0       ?Base@?$CUtlMemory@Uvirtualgeneric_t@@@@QAEPAUvirtualgeneric_t@@XZ 240258b0 f i bone_setup.obj
 0001:000248c0       ?Base@?$CUtlMemory@Vvirtualgroup_t@@@@QAEPAVvirtualgroup_t@@XZ 240258c0 f i bone_setup.obj
 0001:000248d0       ??$CopyConstruct@H@@YAXPAHABH@Z 240258d0 f i bone_setup.obj
 0001:000248f0       ?IsExternallyAllocated@?$CUtlMemory@VCIKTarget@@@@QBE_NXZ 240258f0 f i bone_setup.obj
 0001:00024900       ??$Construct@Uikcontextikrule_t@@@@YAXPAUikcontextikrule_t@@@Z 24025900 f i bone_setup.obj
 0001:00024910       ?NumAllocated@?$CUtlMemory@H@@QBEHXZ 24025910 f i bone_setup.obj
 0001:00024920       ?IsExternallyAllocated@?$CUtlMemory@H@@QBE_NXZ 24025920 f i bone_setup.obj
 0001:00024930       ??$Destruct@VCIKTarget@@@@YAXPAVCIKTarget@@@Z 24025930 f i bone_setup.obj
 0001:00024940       ?IsExternallyAllocated@?$CUtlMemory@V?$CUtlVector@Uikcontextikrule_t@@V?$CUtlMemory@Uikcontextikrule_t@@@@@@@@QBE_NXZ 24025940 f i bone_setup.obj
 0001:00024950       ?NumAllocated@?$CUtlMemory@Uikcontextikrule_t@@@@QBEHXZ 24025950 f i bone_setup.obj
 0001:00024960       ?IsExternallyAllocated@?$CUtlMemory@Uikcontextikrule_t@@@@QBE_NXZ 24025960 f i bone_setup.obj
 0001:00024970       ??4x2@CIKTarget@@QAEAAU01@ABU01@@Z 24025970 f i bone_setup.obj
 0001:000249b0       ??4x3@CIKTarget@@QAEAAU01@ABU01@@Z 240259b0 f i bone_setup.obj
 0001:000249f0       ??4x4@CIKTarget@@QAEAAU01@ABU01@@Z 240259f0 f i bone_setup.obj
 0001:00024a60       ??4x5@CIKTarget@@QAEAAU01@ABU01@@Z 24025a60 f i bone_setup.obj
 0001:00024aa0       ??4x1@CIKTarget@@QAEAAU01@ABU01@@Z 24025aa0 f i bone_setup.obj
 0001:00024b30       ??0x2@CIKTarget@@QAE@XZ    24025b30 f i bone_setup.obj
 0001:00024b40       ??0x3@CIKTarget@@QAE@XZ    24025b40 f i bone_setup.obj
 0001:00024b50       ??0x4@CIKTarget@@QAE@XZ    24025b50 f i bone_setup.obj
 0001:00024b60       ??0x5@CIKTarget@@QAE@XZ    24025b60 f i bone_setup.obj
 0001:00024b70       ??0x1@CIKTarget@@QAE@XZ    24025b70 f i bone_setup.obj
 0001:00024b80       ?NumAllocated@?$CUtlMemory@VCIKTarget@@@@QBEHXZ 24025b80 f i bone_setup.obj
 0001:00024b90       ?Grow@?$CUtlMemory@VCIKTarget@@@@QAEXH@Z 24025b90 f i bone_setup.obj
 0001:00024c20       ?NumAllocated@?$CUtlMemory@V?$CUtlVector@Uikcontextikrule_t@@V?$CUtlMemory@Uikcontextikrule_t@@@@@@@@QBEHXZ 24025c20 f i bone_setup.obj
 0001:00024c30       ?Grow@?$CUtlMemory@V?$CUtlVector@Uikcontextikrule_t@@V?$CUtlMemory@Uikcontextikrule_t@@@@@@@@QAEXH@Z 24025c30 f i bone_setup.obj
 0001:00024cb0       ?Base@?$CUtlMemory@Uikcontextikrule_t@@@@QBEPBUikcontextikrule_t@@XZ 24025cb0 f i bone_setup.obj
 0001:00024cc0       ??Bfloat16@@QAEMXZ         24025cc0 f i bone_setup.obj
 0001:00024d20       ??BVector48@@QAE?AVVector@@XZ 24025d20 f i bone_setup.obj
 0001:00024e50       ?MarkBone@CBoneBitList@@QAEXH@Z 24025e50 f i bone_setup.obj
 0001:00024e70       ?IsBoneMarked@CBoneBitList@@QAE_NH@Z 24025e70 f i bone_setup.obj
 0001:00024e90       ?UpdateBones@CBoneCache@@QAEXPBUmatrix3x4_t@@HM@Z 24025e90 f   bone_setup.obj
 0001:00024f00       ?GetCachedBone@CBoneCache@@QAEPAUmatrix3x4_t@@H@Z 24025f00 f   bone_setup.obj
 0001:00024f30       ?ReadCachedBones@CBoneCache@@QAEXPAUmatrix3x4_t@@@Z 24025f30 f   bone_setup.obj
 0001:00024f80       ?ReadCachedBonePointers@CBoneCache@@QAEXPAPAUmatrix3x4_t@@H@Z 24025f80 f   bone_setup.obj
 0001:00024fd0       ??0CBoneBitList@@QAE@XZ    24025fd0 f i bone_setup.obj
 0001:00024fe0       ?CalcBonePosition@@YAXPBUstudiohdr_t@@HMPBUmstudiobone_t@@PBUmstudioanim_t@@AAVVector@@@Z 24025fe0 f   bone_setup.obj
 0001:00025120       ?SetupSingleBoneMatrix@@YAXPAUstudiohdr_t@@HHHAAUmatrix3x4_t@@@Z 24026120 f   bone_setup.obj
 0001:00025290       ?defineM@ik@@SAXQBM0@Z     24026290 f i bone_setup.obj
 0001:00025440       ?Studio_IKSequenceError@@YA_NPBUstudiohdr_t@@HMHQBMAAUikcontextikrule_t@@@Z 24026440 f   bone_setup.obj
 0001:00025980       ?BuildBoneChain@@YAXPBUstudiohdr_t@@AAUmatrix3x4_t@@QAVVector@@QAVQuaternion@@HPAU2@AAVCBoneBitList@@@Z 24026980 f   bone_setup.obj
 0001:00025d40       ?SweepBoxToStudio@@YA_NABURay_t@@PAUstudiohdr_t@@PAUmstudiohitboxset_t@@PAPAUmatrix3x4_t@@HAAVCGameTrace@@@Z 24026d40 f   bone_setup.obj
 0001:00025f80       ?TraceToStudio@@YA_NABURay_t@@PAUstudiohdr_t@@PAUmstudiohitboxset_t@@PAPAUmatrix3x4_t@@HAAVCGameTrace@@@Z 24026f80 f   bone_setup.obj
 0001:00026160       ?Base@?$CUtlVector@VCIKTarget@@V?$CUtlMemory@VCIKTarget@@@@@@QAEPAVCIKTarget@@XZ 24027160 f i bone_setup.obj
 0001:00026170       ?GetResource_NoLock@?$CResourceManager@VCBoneCache@@Ubonecacheparams_t@@PAV1@@@QAEPAVCBoneCache@@PAUmemhandle_t__@@@Z 24027170 f i bone_setup.obj
 0001:00026180       ?DestroyResourceStorage@?$CResourceManager@VCBoneCache@@Ubonecacheparams_t@@PAV1@@@EAEXPAX@Z 24027180 f i bone_setup.obj
 0001:00026190       ?GetRealSize@?$CResourceManager@VCBoneCache@@Ubonecacheparams_t@@PAV1@@@EAEIPAX@Z 24027190 f i bone_setup.obj
 0001:000261a0       ??A?$CUtlVector@VCIKTarget@@V?$CUtlMemory@VCIKTarget@@@@@@QAEAAVCIKTarget@@H@Z 240271a0 f i bone_setup.obj
 0001:000261c0       ?Base@?$CUtlVector@HV?$CUtlMemory@H@@@@QAEPAHXZ 240271c0 f i bone_setup.obj
 0001:000261d0       ?Base@?$CUtlVector@HV?$CUtlMemory@H@@@@QBEPBHXZ 240271d0 f i bone_setup.obj
 0001:000261e0       ?Base@?$CUtlVector@Uvirtualsequence_t@@V?$CUtlMemory@Uvirtualsequence_t@@@@@@QAEPAUvirtualsequence_t@@XZ 240271e0 f i bone_setup.obj
 0001:000261f0       ?Base@?$CUtlVector@Uvirtualgeneric_t@@V?$CUtlMemory@Uvirtualgeneric_t@@@@@@QAEPAUvirtualgeneric_t@@XZ 240271f0 f i bone_setup.obj
 0001:00026200       ?Base@?$CUtlVector@Vvirtualgroup_t@@V?$CUtlMemory@Vvirtualgroup_t@@@@@@QAEPAVvirtualgroup_t@@XZ 24027200 f i bone_setup.obj
 0001:00026210       ?Base@?$CUtlVector@V?$CUtlVector@Uikcontextikrule_t@@V?$CUtlMemory@Uikcontextikrule_t@@@@@@V?$CUtlMemory@V?$CUtlVector@Uikcontextikrule_t@@V?$CUtlMemory@Uikcontextikrule_t@@@@@@@@@@QAEPAV?$CUtlVector@Uikcontextikrule_t@@V?$CUtlMemory@Uikcontextikrule_t@@@@@@XZ 24027210 f i bone_setup.obj
 0001:00026220       ?Base@?$CUtlVector@Uikcontextikrule_t@@V?$CUtlMemory@Uikcontextikrule_t@@@@@@QAEPAUikcontextikrule_t@@XZ 24027220 f i bone_setup.obj
 0001:00026230       ?Element@?$CUtlVector@HV?$CUtlMemory@H@@@@QAEAAHH@Z 24027230 f i bone_setup.obj
 0001:00026240       ?ResetDbgInfo@?$CUtlVector@HV?$CUtlMemory@H@@@@IAEXXZ 24027240 f i bone_setup.obj
 0001:00026250       ?EnsureCapacity@?$CUtlMemory@VCIKTarget@@@@QAEXH@Z 24027250 f i bone_setup.obj
 0001:000262b0       ?ResetDbgInfo@?$CUtlVector@VCIKTarget@@V?$CUtlMemory@VCIKTarget@@@@@@IAEXXZ 240272b0 f i bone_setup.obj
 0001:000262c0       ?ResetDbgInfo@?$CUtlVector@V?$CUtlVector@Uikcontextikrule_t@@V?$CUtlMemory@Uikcontextikrule_t@@@@@@V?$CUtlMemory@V?$CUtlVector@Uikcontextikrule_t@@V?$CUtlMemory@Uikcontextikrule_t@@@@@@@@@@IAEXXZ 240272c0 f i bone_setup.obj
 0001:000262d0       ?ResetDbgInfo@?$CUtlVector@Uikcontextikrule_t@@V?$CUtlMemory@Uikcontextikrule_t@@@@@@IAEXXZ 240272d0 f i bone_setup.obj
 0001:000262e0       ?ShiftElementsRight@?$CUtlVector@HV?$CUtlMemory@H@@@@IAEXHH@Z 240272e0 f i bone_setup.obj
 0001:00026320       ?Purge@?$CUtlMemory@H@@QAEXXZ 24027320 f i bone_setup.obj
 0001:00026350       ?Purge@?$CUtlMemory@VCIKTarget@@@@QAEXXZ 24027350 f i bone_setup.obj
 0001:00026380       ?Purge@?$CUtlMemory@V?$CUtlVector@Uikcontextikrule_t@@V?$CUtlMemory@Uikcontextikrule_t@@@@@@@@QAEXXZ 24027380 f i bone_setup.obj
 0001:000263b0       ?Purge@?$CUtlMemory@Uikcontextikrule_t@@@@QAEXXZ 240273b0 f i bone_setup.obj
 0001:000263e0       ?Grow@?$CUtlMemory@H@@QAEXH@Z 240273e0 f i bone_setup.obj
 0001:00026450       ?Element@?$CUtlVector@VCIKTarget@@V?$CUtlMemory@VCIKTarget@@@@@@QAEAAVCIKTarget@@H@Z 24027450 f i bone_setup.obj
 0001:00026470       ?Grow@?$CUtlMemory@Uikcontextikrule_t@@@@QAEXH@Z 24027470 f i bone_setup.obj
 0001:000264f0       ??4CIKTarget@@QAEAAV0@ABV0@@Z 240274f0 f i bone_setup.obj
 0001:000265f0       ?GrowVector@?$CUtlVector@VCIKTarget@@V?$CUtlMemory@VCIKTarget@@@@@@IAEXH@Z 240275f0 f i bone_setup.obj
 0001:00026620       ?ShiftElementsRight@?$CUtlVector@VCIKTarget@@V?$CUtlMemory@VCIKTarget@@@@@@IAEXHH@Z 24027620 f i bone_setup.obj
 0001:00026680       ?GrowVector@?$CUtlVector@V?$CUtlVector@Uikcontextikrule_t@@V?$CUtlMemory@Uikcontextikrule_t@@@@@@V?$CUtlMemory@V?$CUtlVector@Uikcontextikrule_t@@V?$CUtlMemory@Uikcontextikrule_t@@@@@@@@@@IAEXH@Z 24027680 f i bone_setup.obj
 0001:000266b0       ??0CIKTarget@@QAE@XZ       240276b0 f i bone_setup.obj
 0001:000266c0       ?Base@?$CUtlVector@Uikcontextikrule_t@@V?$CUtlMemory@Uikcontextikrule_t@@@@@@QBEPBUikcontextikrule_t@@XZ 240276c0 f i bone_setup.obj
 0001:000266d0       ?Init@CBoneCache@@QAEXABUbonecacheparams_t@@IPAF1H@Z 240276d0 f   bone_setup.obj
 0001:00026760       ?Studio_GetBoneCache@@YAPAVCBoneCache@@PAUmemhandle_t__@@@Z 24027760 f   bone_setup.obj
 0001:00026770       ?Studio_InvalidateBoneCache@@YAXPAUmemhandle_t__@@@Z 24027770 f   bone_setup.obj
 0001:00026790       ?BuildBoneChain@@YAXPBUstudiohdr_t@@AAUmatrix3x4_t@@QAVVector@@QAVQuaternion@@HPAU2@@Z 24027790 f   bone_setup.obj
 0001:000267d0       ?solve@ik@@SA_NMMQBM0QAM@Z 240277d0 f i bone_setup.obj
 0001:00026920       ?Studio_SolveIK@@YA_NHHHAAVVector@@00PAUmatrix3x4_t@@@Z 24027920 f   bone_setup.obj
 0001:00026df0       ?BuildBoneChain@CIKContext@@AAEXQAVVector@@QAVQuaternion@@HPAUmatrix3x4_t@@AAVCBoneBitList@@@Z 24027df0 f   bone_setup.obj
 0001:00026e20       ?ClearTargets@CIKContext@@QAEXXZ 24027e20 f   bone_setup.obj
 0001:00026e50       ??A?$CUtlVector@HV?$CUtlMemory@H@@@@QBEABHH@Z 24027e50 f i bone_setup.obj
 0001:00026e60       ??A?$CUtlVector@HV?$CUtlMemory@H@@@@QAEAAHH@Z 24027e60 f i bone_setup.obj
 0001:00026e70       ?RemoveAll@?$CUtlVector@HV?$CUtlMemory@H@@@@QAEXXZ 24027e70 f i bone_setup.obj
 0001:00026e80       ??A?$CUtlVector@Uvirtualsequence_t@@V?$CUtlMemory@Uvirtualsequence_t@@@@@@QAEAAUvirtualsequence_t@@H@Z 24027e80 f i bone_setup.obj
 0001:00026e90       ??A?$CUtlVector@Uvirtualgeneric_t@@V?$CUtlMemory@Uvirtualgeneric_t@@@@@@QAEAAUvirtualgeneric_t@@H@Z 24027e90 f i bone_setup.obj
 0001:00026ea0       ??A?$CUtlVector@Vvirtualgroup_t@@V?$CUtlMemory@Vvirtualgroup_t@@@@@@QAEAAVvirtualgroup_t@@H@Z 24027ea0 f i bone_setup.obj
 0001:00026eb0       ?EnsureCapacity@?$CUtlVector@VCIKTarget@@V?$CUtlMemory@VCIKTarget@@@@@@QAEXH@Z 24027eb0 f i bone_setup.obj
 0001:00026ed0       ?Element@?$CUtlVector@V?$CUtlVector@Uikcontextikrule_t@@V?$CUtlMemory@Uikcontextikrule_t@@@@@@V?$CUtlMemory@V?$CUtlVector@Uikcontextikrule_t@@V?$CUtlMemory@Uikcontextikrule_t@@@@@@@@@@QAEAAV?$CUtlVector@Uikcontextikrule_t@@V?$CUtlMemory@Uikcontextikrule_t@@@@@@H@Z 24027ed0 f i bone_setup.obj
 0001:00026ee0       ??A?$CUtlVector@Uikcontextikrule_t@@V?$CUtlMemory@Uikcontextikrule_t@@@@@@QAEAAUikcontextikrule_t@@H@Z 24027ee0 f i bone_setup.obj
 0001:00026f00       ?Element@?$CUtlVector@Uikcontextikrule_t@@V?$CUtlMemory@Uikcontextikrule_t@@@@@@QAEAAUikcontextikrule_t@@H@Z 24027f00 f i bone_setup.obj
 0001:00026f20       ?RemoveAll@?$CUtlVector@Uikcontextikrule_t@@V?$CUtlMemory@Uikcontextikrule_t@@@@@@QAEXXZ 24027f20 f i bone_setup.obj
 0001:00026f30       ?Purge@?$CUtlVector@HV?$CUtlMemory@H@@@@QAEXXZ 24027f30 f i bone_setup.obj
 0001:00026f70       ??1?$CUtlMemory@H@@QAE@XZ  24027f70 f i bone_setup.obj
 0001:00026fa0       ??1?$CUtlMemory@VCIKTarget@@@@QAE@XZ 24027fa0 f i bone_setup.obj
 0001:00026fd0       ??1?$CUtlMemory@V?$CUtlVector@Uikcontextikrule_t@@V?$CUtlMemory@Uikcontextikrule_t@@@@@@@@QAE@XZ 24027fd0 f i bone_setup.obj
 0001:00027000       ?Purge@?$CUtlVector@Uikcontextikrule_t@@V?$CUtlMemory@Uikcontextikrule_t@@@@@@QAEXXZ 24028000 f i bone_setup.obj
 0001:00027040       ??1?$CUtlMemory@Uikcontextikrule_t@@@@QAE@XZ 24028040 f i bone_setup.obj
 0001:00027070       ?GrowVector@?$CUtlVector@HV?$CUtlMemory@H@@@@IAEXH@Z 24028070 f i bone_setup.obj
 0001:000270a0       ?RemoveAll@?$CUtlVector@VCIKTarget@@V?$CUtlMemory@VCIKTarget@@@@@@QAEXXZ 240280a0 f i bone_setup.obj
 0001:000270b0       ?GrowVector@?$CUtlVector@Uikcontextikrule_t@@V?$CUtlMemory@Uikcontextikrule_t@@@@@@IAEXH@Z 240280b0 f i bone_setup.obj
 0001:000270e0       ?ShiftElementsRight@?$CUtlVector@Uikcontextikrule_t@@V?$CUtlMemory@Uikcontextikrule_t@@@@@@IAEXHH@Z 240280e0 f i bone_setup.obj
 0001:00027130       ??$Construct@VCIKTarget@@@@YAXPAVCIKTarget@@@Z 24028130 f i bone_setup.obj
 0001:00027140       ?ShiftElementsRight@?$CUtlVector@V?$CUtlVector@Uikcontextikrule_t@@V?$CUtlMemory@Uikcontextikrule_t@@@@@@V?$CUtlMemory@V?$CUtlVector@Uikcontextikrule_t@@V?$CUtlMemory@Uikcontextikrule_t@@@@@@@@@@IAEXHH@Z 24028140 f i bone_setup.obj
 0001:00027180       ?pAnimGroup@virtualmodel_t@@QAEPAVvirtualgroup_t@@H@Z 24028180 f i bone_setup.obj
 0001:000271a0       ?pSeqGroup@virtualmodel_t@@QAEPAVvirtualgroup_t@@H@Z 240281a0 f i bone_setup.obj
 0001:000271c0       ?CreateResource@CBoneCache@@SAPAV1@ABUbonecacheparams_t@@@Z 240281c0 f   bone_setup.obj
 0001:00027780       ?SlerpBones@@YAXPBUstudiohdr_t@@QAVQuaternion@@QAVVector@@HQBV2@QBV3@MH@Z 24028780 f   bone_setup.obj
 0001:00027ac0       ?BlendBones@@YAXPBUstudiohdr_t@@QAVQuaternion@@QAVVector@@HQBV2@QBV3@MH@Z 24028ac0 f   bone_setup.obj
 0001:00027d60       ?ScaleBones@@YAXPBUstudiohdr_t@@QAVQuaternion@@QAVVector@@HMH@Z 24028d60 f   bone_setup.obj
 0001:00027e70       ?CalcPoseSingle@@YA_NPBUstudiohdr_t@@QAVVector@@QAVQuaternion@@HMQBMHM@Z 24028e70 f   bone_setup.obj
 0001:000285b0       ?Studio_SolveIK@@YA_NHHHAAVVector@@PAUmatrix3x4_t@@@Z 240295b0 f   bone_setup.obj
 0001:00028870       ?UpdateTargets@CIKContext@@QAEXQAVVector@@QAVQuaternion@@QAUmatrix3x4_t@@AAVCBoneBitList@@@Z 24029870 f   bone_setup.obj
 0001:00029700       ?CreateResource@?$CResourceManager@VCBoneCache@@Ubonecacheparams_t@@PAV1@@@QAEPAUmemhandle_t__@@ABUbonecacheparams_t@@@Z 2402a700 f i bone_setup.obj
 0001:00029750       ??0?$CUtlVector@HV?$CUtlMemory@H@@@@QAE@HH@Z 2402a750 f i bone_setup.obj
 0001:00029790       ??1?$CUtlVector@HV?$CUtlMemory@H@@@@QAE@XZ 2402a790 f i bone_setup.obj
 0001:000297f0       ??0?$CUtlVector@VCIKTarget@@V?$CUtlMemory@VCIKTarget@@@@@@QAE@HH@Z 2402a7f0 f i bone_setup.obj
 0001:00029840       ??0?$CUtlVector@V?$CUtlVector@Uikcontextikrule_t@@V?$CUtlMemory@Uikcontextikrule_t@@@@@@V?$CUtlMemory@V?$CUtlVector@Uikcontextikrule_t@@V?$CUtlMemory@Uikcontextikrule_t@@@@@@@@@@QAE@HH@Z 2402a840 f i bone_setup.obj
 0001:00029880       ??0?$CUtlVector@Uikcontextikrule_t@@V?$CUtlMemory@Uikcontextikrule_t@@@@@@QAE@HH@Z 2402a880 f i bone_setup.obj
 0001:000298d0       ??1?$CUtlVector@Uikcontextikrule_t@@V?$CUtlMemory@Uikcontextikrule_t@@@@@@QAE@XZ 2402a8d0 f i bone_setup.obj
 0001:00029930       ?InsertBefore@?$CUtlVector@HV?$CUtlMemory@H@@@@QAEHHABH@Z 2402a930 f i bone_setup.obj
 0001:000299a0       ?Purge@?$CUtlVector@VCIKTarget@@V?$CUtlMemory@VCIKTarget@@@@@@QAEXXZ 2402a9a0 f i bone_setup.obj
 0001:000299e0       ?InsertBefore@?$CUtlVector@Uikcontextikrule_t@@V?$CUtlMemory@Uikcontextikrule_t@@@@@@QAEHH@Z 2402a9e0 f i bone_setup.obj
 0001:00029a40       ?InsertMultipleBefore@?$CUtlVector@Uikcontextikrule_t@@V?$CUtlMemory@Uikcontextikrule_t@@@@@@QAEHHHPBUikcontextikrule_t@@@Z 2402aa40 f i bone_setup.obj
 0001:00029ad0       ??_G?$CUtlVector@Uikcontextikrule_t@@V?$CUtlMemory@Uikcontextikrule_t@@@@@@QAEPAXI@Z 2402aad0 f i bone_setup.obj
 0001:00029af0       ?InsertMultipleBefore@?$CUtlVector@VCIKTarget@@V?$CUtlMemory@VCIKTarget@@@@@@QAEHHHPBVCIKTarget@@@Z 2402aaf0 f i bone_setup.obj
 0001:00029b80       ??$Construct@V?$CUtlVector@Uikcontextikrule_t@@V?$CUtlMemory@Uikcontextikrule_t@@@@@@@@YAXPAV?$CUtlVector@Uikcontextikrule_t@@V?$CUtlMemory@Uikcontextikrule_t@@@@@@@Z 2402ab80 f i bone_setup.obj
 0001:00029ba0       ?Studio_CreateBoneCache@@YAPAUmemhandle_t__@@AAUbonecacheparams_t@@@Z 2402aba0 f   bone_setup.obj
 0001:00029c00       ?Studio_SolveIK@@YA_NPAUmstudioikchain_t@@AAVVector@@PAUmatrix3x4_t@@@Z 2402ac00 f   bone_setup.obj
 0001:00029cf0       ?SolveDependencies@CIKContext@@QAEXQAVVector@@QAVQuaternion@@QAUmatrix3x4_t@@AAVCBoneBitList@@@Z 2402acf0 f   bone_setup.obj
 0001:0002a570       ?SolveAutoplayLocks@CIKContext@@QAEXQAVVector@@QAVQuaternion@@@Z 2402b570 f   bone_setup.obj
 0001:0002a8a0       ?SolveSequenceLocks@CIKContext@@QAEXAAUmstudioseqdesc_t@@QAVVector@@QAVQuaternion@@@Z 2402b8a0 f   bone_setup.obj
 0001:0002abe0       ?AddToTail@?$CUtlVector@HV?$CUtlMemory@H@@@@QAEHABH@Z 2402bbe0 f i bone_setup.obj
 0001:0002ac00       ??1?$CUtlVector@VCIKTarget@@V?$CUtlMemory@VCIKTarget@@@@@@QAE@XZ 2402bc00 f i bone_setup.obj
 0001:0002ac60       ?AddToTail@?$CUtlVector@Uikcontextikrule_t@@V?$CUtlMemory@Uikcontextikrule_t@@@@@@QAEHXZ 2402bc60 f i bone_setup.obj
 0001:0002ac70       ?AddMultipleToTail@?$CUtlVector@Uikcontextikrule_t@@V?$CUtlMemory@Uikcontextikrule_t@@@@@@QAEHHPBUikcontextikrule_t@@@Z 2402bc70 f i bone_setup.obj
 0001:0002ac90       ??$Destruct@V?$CUtlVector@Uikcontextikrule_t@@V?$CUtlMemory@Uikcontextikrule_t@@@@@@@@YAXPAV?$CUtlVector@Uikcontextikrule_t@@V?$CUtlMemory@Uikcontextikrule_t@@@@@@@Z 2402bc90 f i bone_setup.obj
 0001:0002aca0       ?AddMultipleToTail@?$CUtlVector@VCIKTarget@@V?$CUtlMemory@VCIKTarget@@@@@@QAEHHPBVCIKTarget@@@Z 2402bca0 f i bone_setup.obj
 0001:0002acc0       ?SetCount@?$CUtlVector@Uikcontextikrule_t@@V?$CUtlMemory@Uikcontextikrule_t@@@@@@QAEXH@Z 2402bcc0 f i bone_setup.obj
 0001:0002ad00       ?AddAutoplayLocks@CIKContext@@QAEXQAVVector@@QAVQuaternion@@@Z 2402bd00 f   bone_setup.obj
 0001:0002af40       ?AddSequenceLocks@CIKContext@@QAEXAAUmstudioseqdesc_t@@QAVVector@@QAVQuaternion@@@Z 2402bf40 f   bone_setup.obj
 0001:0002b160       ?Studio_FindRandomAttachment@@YAHPBUstudiohdr_t@@PBD@Z 2402c160 f   bone_setup.obj
 0001:0002b240       ?RemoveAll@?$CUtlVector@V?$CUtlVector@Uikcontextikrule_t@@V?$CUtlMemory@Uikcontextikrule_t@@@@@@V?$CUtlMemory@V?$CUtlVector@Uikcontextikrule_t@@V?$CUtlMemory@Uikcontextikrule_t@@@@@@@@@@QAEXXZ 2402c240 f i bone_setup.obj
 0001:0002b2c0       ?SetCount@?$CUtlVector@VCIKTarget@@V?$CUtlMemory@VCIKTarget@@@@@@QAEXH@Z 2402c2c0 f i bone_setup.obj
 0001:0002b300       ?Purge@?$CUtlVector@V?$CUtlVector@Uikcontextikrule_t@@V?$CUtlMemory@Uikcontextikrule_t@@@@@@V?$CUtlMemory@V?$CUtlVector@Uikcontextikrule_t@@V?$CUtlMemory@Uikcontextikrule_t@@@@@@@@@@QAEXXZ 2402c300 f i bone_setup.obj
 0001:0002b340       ?SetSize@?$CUtlVector@Uikcontextikrule_t@@V?$CUtlMemory@Uikcontextikrule_t@@@@@@QAEXH@Z 2402c340 f i bone_setup.obj
 0001:0002b380       ?SetSize@?$CUtlVector@VCIKTarget@@V?$CUtlMemory@VCIKTarget@@@@@@QAEXH@Z 2402c380 f i bone_setup.obj
 0001:0002b3c0       ??1?$CUtlVector@V?$CUtlVector@Uikcontextikrule_t@@V?$CUtlMemory@Uikcontextikrule_t@@@@@@V?$CUtlMemory@V?$CUtlVector@Uikcontextikrule_t@@V?$CUtlMemory@Uikcontextikrule_t@@@@@@@@@@QAE@XZ 2402c3c0 f i bone_setup.obj
 0001:0002b420       ?CopyArray@?$CUtlVector@Uikcontextikrule_t@@V?$CUtlMemory@Uikcontextikrule_t@@@@@@QAEXPBUikcontextikrule_t@@H@Z 2402c420 f i bone_setup.obj
 0001:0002b480       ??1CIKContext@@QAE@XZ      2402c480 f i bone_setup.obj
 0001:0002b4a0       ??0CIKContext@@QAE@XZ      2402c4a0 f   bone_setup.obj
 0001:0002b500       ?AddDependencies@CIKContext@@QAEXHMQBMM@Z 2402c500 f   bone_setup.obj
 0001:0002b890       ??4?$CUtlVector@Uikcontextikrule_t@@V?$CUtlMemory@Uikcontextikrule_t@@@@@@QAEAAV0@ABV0@@Z 2402c890 f i bone_setup.obj
 0001:0002b8b0       ?InsertMultipleBefore@?$CUtlVector@V?$CUtlVector@Uikcontextikrule_t@@V?$CUtlMemory@Uikcontextikrule_t@@@@@@V?$CUtlMemory@V?$CUtlVector@Uikcontextikrule_t@@V?$CUtlMemory@Uikcontextikrule_t@@@@@@@@@@QAEHHHPBV?$CUtlVector@Uikcontextikrule_t@@V?$CUtlMemory@Uikcontextikrule_t@@@@@@@Z 2402c8b0 f i bone_setup.obj
 0001:0002b990       ?AddMultipleToTail@?$CUtlVector@V?$CUtlVector@Uikcontextikrule_t@@V?$CUtlMemory@Uikcontextikrule_t@@@@@@V?$CUtlMemory@V?$CUtlVector@Uikcontextikrule_t@@V?$CUtlMemory@Uikcontextikrule_t@@@@@@@@@@QAEHHPBV?$CUtlVector@Uikcontextikrule_t@@V?$CUtlMemory@Uikcontextikrule_t@@@@@@@Z 2402c990 f i bone_setup.obj
 0001:0002b9b0       ?SetCount@?$CUtlVector@V?$CUtlVector@Uikcontextikrule_t@@V?$CUtlMemory@Uikcontextikrule_t@@@@@@V?$CUtlMemory@V?$CUtlVector@Uikcontextikrule_t@@V?$CUtlMemory@Uikcontextikrule_t@@@@@@@@@@QAEXH@Z 2402c9b0 f i bone_setup.obj
 0001:0002b9d0       ?SetSize@?$CUtlVector@V?$CUtlVector@Uikcontextikrule_t@@V?$CUtlMemory@Uikcontextikrule_t@@@@@@V?$CUtlMemory@V?$CUtlVector@Uikcontextikrule_t@@V?$CUtlMemory@Uikcontextikrule_t@@@@@@@@@@QAEXH@Z 2402c9d0 f i bone_setup.obj
 0001:0002b9f0       ?Init@CIKContext@@QAEXPBUstudiohdr_t@@ABVQAngle@@ABVVector@@MHH@Z 2402c9f0 f   bone_setup.obj
 0001:0002ba60       ?CalcPose@@YAXPBUstudiohdr_t@@PAVCIKContext@@QAVVector@@QAVQuaternion@@HMQBMHMM@Z 2402ca60 f   bone_setup.obj
 0001:0002bbf0       ?AccumulatePose@@YAXPBUstudiohdr_t@@PAVCIKContext@@QAVVector@@QAVQuaternion@@HMQBMHMM@Z 2402cbf0 f   bone_setup.obj
 0001:0002bdc0       ?CalcAutoplaySequences@@YAXPBUstudiohdr_t@@PAVCIKContext@@QAVVector@@QAVQuaternion@@QBMHM@Z 2402cdc0 f   bone_setup.obj
 0001:0002bea0       ?GetClassName@C_AI_BaseNPC@@UAEPBDXZ 2402cea0 f   c_ai_basenpc.obj
 0001:0002beb0       ?YouForgotToImplementOrDeclareClientClass@C_AI_BaseNPC@@UAEHXZ 2402ceb0 f   c_ai_basenpc.obj
 0001:0002bec0       ?GetClientClass@C_AI_BaseNPC@@UAEPAVClientClass@@XZ 2402cec0 f   c_ai_basenpc.obj
 0001:0002bed0       ??$ClientClassInit@Uignored@DT_AI_BaseNPC@@@@YAHPAUignored@DT_AI_BaseNPC@@@Z 2402ced0 f   c_ai_basenpc.obj
 0001:0002bfd0       ??0C_AI_BaseNPC@@QAE@XZ    2402cfd0 f   c_ai_basenpc.obj
 0001:0002c000       ?IsNPC@C_AI_BaseNPC@@UAE_NXZ 2402d000 f i c_ai_basenpc.obj
 0001:0002c010       ?AddRagdollToFadeQueue@C_AI_BaseNPC@@UAE_NXZ 2402d010 f i c_ai_basenpc.obj
 0001:0002c020       ?PhysicsSolidMaskForEntity@C_AI_BaseNPC@@UBEIXZ 2402d020 f   c_ai_basenpc.obj
 0001:0002c040       ?GetRagdollPreSequence@C_AI_BaseNPC@@UAEXPAUmatrix3x4_t@@M@Z 2402d040 f   c_ai_basenpc.obj
 0001:0002c0d0       ??_EC_AI_BaseNPC@@UAEPAXI@Z 2402d0d0 f i c_ai_basenpc.obj
 0001:0002c0d0       ??_GC_AI_BaseNPC@@UAEPAXI@Z 2402d0d0 f i c_ai_basenpc.obj
 0001:0002c0f0       ?GetRagdollCurSequence@C_AI_BaseNPC@@UAEXPAUmatrix3x4_t@@M@Z 2402d0f0 f   c_ai_basenpc.obj
 0001:0002c320       ??0IClientEffect@@QAE@XZ   2402d320 f i c_baseanimating.obj
 0001:0002c330       ??0CEngineCacheCriticalSection@@QAE@PAVIVEngineCache@@@Z 2402d330 f i c_baseanimating.obj
 0001:0002c350       ??1CEngineCacheCriticalSection@@QAE@XZ 2402d350 f i c_baseanimating.obj
 0001:0002c360       ?GetClassName@C_InfoLightingRelative@@UAEPBDXZ 2402d360 f   c_baseanimating.obj
 0001:0002c370       ?YouForgotToImplementOrDeclareClientClass@C_InfoLightingRelative@@UAEHXZ 2402d370 f   c_baseanimating.obj
 0001:0002c380       ?GetClientClass@C_InfoLightingRelative@@UAEPAVClientClass@@XZ 2402d380 f   c_baseanimating.obj
 0001:0002c390       ??$ClientClassInit@Uignored@DT_InfoLightingRelative@@@@YAHPAUignored@DT_InfoLightingRelative@@@Z 2402d390 f   c_baseanimating.obj
 0001:0002c410       ?Length2DSqr@Vector@@QBEMXZ 2402d410 f i c_baseanimating.obj
 0001:0002c430       ??$ClientClassInit@Uignored@DT_ServerAnimationData@@@@YAHPAUignored@DT_ServerAnimationData@@@Z 2402d430 f   c_baseanimating.obj
 0001:0002c4a0       ?GetClassName@C_BaseAnimating@@UAEPBDXZ 2402d4a0 f   c_baseanimating.obj
 0001:0002c4b0       ?YouForgotToImplementOrDeclareClientClass@C_BaseAnimating@@UAEHXZ 2402d4b0 f   c_baseanimating.obj
 0001:0002c4c0       ?GetClientClass@C_BaseAnimating@@UAEPAVClientClass@@XZ 2402d4c0 f   c_baseanimating.obj
 0001:0002c4d0       ??$ClientClassInit@Uignored@DT_BaseAnimating@@@@YAHPAUignored@DT_BaseAnimating@@@Z 2402d4d0 f   c_baseanimating.obj
 0001:0002c780       ?GetPredDescMap@C_BaseAnimating@@UAEPAUdatamap_t@@XZ 2402d780 f   c_baseanimating.obj
 0001:0002c790       ??$PredMapInit@VC_BaseAnimating@@@@YAPAUdatamap_t@@PAVC_BaseAnimating@@@Z 2402d790 f   c_baseanimating.obj
 0001:0002c7b0       ?GetDataDescMap@C_ClientRagdoll@@UAEPAUdatamap_t@@XZ 2402d7b0 f   c_baseanimating.obj
 0001:0002c7c0       ??0IPVSNotify@@QAE@XZ      2402d7c0 f i c_baseanimating.obj
 0001:0002c7d0       ?NormalizeInPlace@Vector@@QAEMXZ 2402d7d0 f i c_baseanimating.obj
 0001:0002c7e0       ?OnPVSStatusChanged@C_ClientRagdoll@@UAEX_N@Z 2402d7e0 f   c_baseanimating.obj
 0001:0002c800       ?SUB_Remove@C_ClientRagdoll@@UAEXXZ 2402d800 f   c_baseanimating.obj
 0001:0002c820       ?UsesFrameBufferTexture@C_BaseAnimating@@UAE_NXZ 2402d820 f   c_baseanimating.obj
 0001:0002c850       ?GetModelPtr@C_BaseAnimating@@QBEPAUstudiohdr_t@@XZ 2402d850 f   c_baseanimating.obj
 0001:0002c880       ?LookupBone@C_BaseAnimating@@QAEHPBD@Z 2402d880 f   c_baseanimating.obj
 0001:0002c8d0       ?GetBoneControllers@C_BaseAnimating@@UAEXQAM@Z 2402d8d0 f   c_baseanimating.obj
 0001:0002c930       ?GetPoseParameters@C_BaseAnimating@@UAEXQAM@Z 2402d930 f   c_baseanimating.obj
 0001:0002c9a0       ?ClampCycle@C_BaseAnimating@@QAEMM_N@Z 2402d9a0 f   c_baseanimating.obj
 0001:0002ca30       ??0RagdollInfo_t@@QAE@XZ   2402da30 f i c_baseanimating.obj
 0001:0002ca40       ?RetrieveRagdollInfo@C_BaseAnimating@@UAE_NPAVVector@@PAVQuaternion@@@Z 2402da40 f   c_baseanimating.obj
 0001:0002cb00       ?UnragdollBlend@C_BaseAnimating@@QAEXPAUstudiohdr_t@@QAVVector@@QAVQuaternion@@M@Z 2402db00 f   c_baseanimating.obj
 0001:0002cc30       ?AccumulateLayers@C_BaseAnimating@@UAEXPAUstudiohdr_t@@QAVVector@@QAVQuaternion@@QAMMH@Z 2402dc30 f   c_baseanimating.obj
 0001:0002cc40       ?CalcAttachments@C_BaseAnimating@@EAE_NXZ 2402dc40 f   c_baseanimating.obj
 0001:0002cca0       ?GetAttachment@C_BaseAnimating@@UAE_NHAAVVector@@AAVQAngle@@@Z 2402dca0 f   c_baseanimating.obj
 0001:0002cd30       ?GetSoundSpatialization@C_BaseAnimating@@UAE_NAAUSpatializationInfo_t@@@Z 2402dd30 f   c_baseanimating.obj
 0001:0002ce20       ?IsViewModel@C_BaseAnimating@@MBE_NXZ 2402de20 f   c_baseanimating.obj
 0001:0002ce30       ??0CTraceFilterSkipNPCs@@QAE@PBVIHandleEntity@@H@Z 2402de30 f i c_baseanimating.obj
 0001:0002ce50       ?DidHit@CGameTrace@@QBE_NXZ 2402de50 f i c_baseanimating.obj
 0001:0002ce80       ?GetMouth@C_BaseAnimating@@UAEPAVCMouthInfo@@XZ 2402de80 f   c_baseanimating.obj
 0001:0002ce90       ?GetTraceType@CTraceFilter@@UBE?AW4TraceType_t@@XZ 2402de90 f i c_baseanimating.obj
 0001:0002cea0       ?SetPassEntity@CTraceFilterSimple@@UAEXPAVIHandleEntity@@@Z 2402dea0 f i c_baseanimating.obj
 0001:0002ceb0       ?FindFollowedEntity@C_BaseAnimating@@QAEPAV1@XZ 2402deb0 f   c_baseanimating.obj
 0001:0002cf70       ?InvalidateBoneCache@C_BaseAnimating@@QAEXXZ 2402df70 f   c_baseanimating.obj
 0001:0002cf80       ?IsBoneCacheValid@C_BaseAnimating@@QBE_NXZ 2402df80 f   c_baseanimating.obj
 0001:0002cfa0       ??0BoneAccess@@QAE@XZ      2402dfa0 f i c_baseanimating.obj
 0001:0002cfb0       ?IsBoneAccessAllowed@C_BaseAnimating@@IBE_NXZ 2402dfb0 f   c_baseanimating.obj
 0001:0002cfd0       ?InvalidateBoneCaches@C_BaseAnimating@@SAXXZ 2402dfd0 f   c_baseanimating.obj
 0001:0002cfe0       ?DrawModel@C_BaseAnimating@@UAEHH@Z 2402dfe0 f   c_baseanimating.obj
 0001:0002d0a0       ??1CLocalPlayerFilter@@UAE@XZ 2402e0a0 f i c_baseanimating.obj
 0001:0002d0b0       ?IsRagdoll@C_BaseAnimating@@QBE_NXZ 2402e0b0 f   c_baseanimating.obj
 0001:0002d0d0       ?GetRenderOrigin@C_BaseAnimating@@UAEABVVector@@XZ 2402e0d0 f   c_baseanimating.obj
 0001:0002d0f0       ?GetRenderAngles@C_BaseAnimating@@UAEABVQAngle@@XZ 2402e0f0 f   c_baseanimating.obj
 0001:0002d110       ?OnPreDataChanged@C_BaseAnimating@@UAEXW4DataUpdateType_t@@@Z 2402e110 f   c_baseanimating.obj
 0001:0002d130       ?GetRagdollPreSequence@C_BaseAnimating@@UAEXPAUmatrix3x4_t@@M@Z 2402e130 f   c_baseanimating.obj
 0001:0002d160       ?GetRagdollCurSequence@C_BaseAnimating@@UAEXPAUmatrix3x4_t@@M@Z 2402e160 f   c_baseanimating.obj
 0001:0002d1d0       ?LookupAttachment@C_BaseAnimating@@QAEHPBD@Z 2402e1d0 f   c_baseanimating.obj
 0001:0002d220       ?LookupRandomAttachment@C_BaseAnimating@@QAEHPBD@Z 2402e220 f   c_baseanimating.obj
 0001:0002d270       ?GetSequenceCycleRate@C_BaseAnimating@@UAEMH@Z 2402e270 f   c_baseanimating.obj
 0001:0002d2d0       ?GetAnimTimeInterval@C_BaseAnimating@@QBEMXZ 2402e2d0 f   c_baseanimating.obj
 0001:0002d300       ?SetCycle@C_BaseAnimating@@QAEXM@Z 2402e300 f   c_baseanimating.obj
 0001:0002d330       ?SetSequence@C_BaseAnimating@@QAEXH@Z 2402e330 f   c_baseanimating.obj
 0001:0002d360       ?GetSequenceMoveDist@C_BaseAnimating@@QAEMH@Z 2402e360 f   c_baseanimating.obj
 0001:0002d3e0       ?GetSequenceLinearMotion@C_BaseAnimating@@QAEXHPAVVector@@@Z 2402e3e0 f   c_baseanimating.obj
 0001:0002d430       ?GetSequenceFlags@C_BaseAnimating@@QAEHH@Z 2402e430 f   c_baseanimating.obj
 0001:0002d480       ?IsSequenceLooping@C_BaseAnimating@@QAE_NH@Z 2402e480 f   c_baseanimating.obj
 0001:0002d490       ?SequenceDuration@C_BaseAnimating@@QAEMH@Z 2402e490 f   c_baseanimating.obj
 0001:0002d510       ?FindTransitionSequence@C_BaseAnimating@@QAEHHHPAH@Z 2402e510 f   c_baseanimating.obj
 0001:0002d590       ?SetBodygroup@C_BaseAnimating@@QAEXHH@Z 2402e590 f   c_baseanimating.obj
 0001:0002d5e0       ?GetBodygroup@C_BaseAnimating@@QAEHH@Z 2402e5e0 f   c_baseanimating.obj
 0001:0002d630       ?GetBodygroupName@C_BaseAnimating@@QAEPBDH@Z 2402e630 f   c_baseanimating.obj
 0001:0002d680       ?FindBodygroupByName@C_BaseAnimating@@QAEHPBD@Z 2402e680 f   c_baseanimating.obj
 0001:0002d6d0       ?GetBodygroupCount@C_BaseAnimating@@QAEHH@Z 2402e6d0 f   c_baseanimating.obj
 0001:0002d720       ?GetNumBodyGroups@C_BaseAnimating@@QAEHXZ 2402e720 f   c_baseanimating.obj
 0001:0002d770       ?SetHitboxSet@C_BaseAnimating@@QAEXH@Z 2402e770 f   c_baseanimating.obj
 0001:0002d780       ?SetHitboxSetByName@C_BaseAnimating@@QAEXPBD@Z 2402e780 f   c_baseanimating.obj
 0001:0002d7d0       ?GetHitboxSet@C_BaseAnimating@@QAEHXZ 2402e7d0 f   c_baseanimating.obj
 0001:0002d7e0       ?GetHitboxSetName@C_BaseAnimating@@QAEPBDXZ 2402e7e0 f   c_baseanimating.obj
 0001:0002d840       ?GetHitboxSetCount@C_BaseAnimating@@QAEHXZ 2402e840 f   c_baseanimating.obj
 0001:0002d890       ?SelectWeightedSequence@C_BaseAnimating@@QAEHH@Z 2402e890 f   c_baseanimating.obj
 0001:0002d8f0       ?SetPoseParameter@C_BaseAnimating@@QAEMHM@Z 2402e8f0 f   c_baseanimating.obj
 0001:0002d960       ?LookupSequence@C_BaseAnimating@@QAEHPBD@Z 2402e960 f   c_baseanimating.obj
 0001:0002d9b0       ?Clear@C_BaseAnimating@@UAEXXZ 2402e9b0 f   c_baseanimating.obj
 0001:0002d9d0       ?LookupActivity@C_BaseAnimating@@QAEHPBD@Z 2402e9d0 f   c_baseanimating.obj
 0001:0002da20       ?GetSequenceActivityName@C_BaseAnimating@@QAEPBDH@Z 2402ea20 f   c_baseanimating.obj
 0001:0002dab0       ?SetBoneController@C_BaseAnimating@@UAEMHM@Z 2402eab0 f   c_baseanimating.obj
 0001:0002db20       ?GetSequenceName@C_BaseAnimating@@QAEPBDH@Z 2402eb20 f   c_baseanimating.obj
 0001:0002dbb0       ?GetSequenceActivity@C_BaseAnimating@@QAE?AW4Activity@@H@Z 2402ebb0 f   c_baseanimating.obj
 0001:0002dc40       ?ClientEntityList@@YAAAVCClientEntityList@@XZ 2402ec40 f i c_baseanimating.obj
 0001:0002dc50       ?ClientThinkList@@YAPAVCClientThinkList@@XZ 2402ec50 f i c_baseanimating.obj
 0001:0002dc60       ??0C_BoneFollower@@QAE@XZ  2402ec60 f i c_baseanimating.obj
 0001:0002dc90       ?GetClassName@C_BoneFollower@@EAEPBDXZ 2402ec90 f   c_baseanimating.obj
 0001:0002dca0       ?YouForgotToImplementOrDeclareClientClass@C_BoneFollower@@EAEHXZ 2402eca0 f   c_baseanimating.obj
 0001:0002dcb0       ?GetClientClass@C_BoneFollower@@EAEPAVClientClass@@XZ 2402ecb0 f   c_baseanimating.obj
 0001:0002dd20       ??$ClientClassInit@Uignored@DT_BoneFollower@@@@YAHPAUignored@DT_BoneFollower@@@Z 2402ed20 f   c_baseanimating.obj
 0001:0002ddc0       ?DrawModel@C_BoneFollower@@UAEHH@Z 2402edc0 f   c_baseanimating.obj
 0001:0002de40       ?DevMsgRT@@YAXPBDZZ        2402ee40 f   c_baseanimating.obj
 0001:0002de90       ?GetPartitionHandle@CCollisionProperty@@QBEGXZ 2402ee90 f i c_baseanimating.obj
 0001:0002dea0       ??B?$CRangeCheckedVar@M$0?DC@$0DC@$00@@QBEABMXZ 2402eea0 f i c_baseanimating.obj
 0001:0002deb0       ??B?$CNetworkVarBase@MVNetworkVar_m_flModelWidthScale@C_BaseAnimating@@@@QBE?BMXZ 2402eeb0 f i c_baseanimating.obj
 0001:0002dec0       ?InvalidIndex@?$CUtlLinkedList@PAVC_RopeKeyframe@@G@@SAGXZ 2402eec0 f i c_baseanimating.obj
 0001:0002ded0       ?InvalidIndex@?$CUtlFixedLinkedList@UCInterpolatedVarEntry@?$CInterpolatedVarArray@M$0BI@@@@@SAHXZ 2402eed0 f i c_baseanimating.obj
 0001:0002dee0       ?InvalidIndex@?$CUtlFixedLinkedList@UCInterpolatedVarEntry@?$CInterpolatedVarArray@M$03@@@@SAHXZ 2402eee0 f i c_baseanimating.obj
 0001:0002def0       ?GetClientHandle@C_BaseEntity@@QBE?AVCBaseHandle@@XZ 2402eef0 f i c_baseanimating.obj
 0001:0002df00       ?IsVisible@C_BaseEntity@@QBE_NXZ 2402ef00 f i c_baseanimating.obj
 0001:0002df10       ??0?$CUtlMemory@PAD@@QAE@HH@Z 2402ef10 f i c_baseanimating.obj
 0001:0002df50       ?Base@?$CUtlMemory@PAD@@QAEPAPADXZ 2402ef50 f i c_baseanimating.obj
 0001:0002df60       ?GetModelInstance@C_BaseEntity@@QAEGXZ 2402ef60 f i c_baseanimating.obj
 0001:0002df70       ??0?$CUtlMemory@UVarMapEntry_t@@@@QAE@HH@Z 2402ef70 f i c_baseanimating.obj
 0001:0002dfb0       ?Base@?$CUtlMemory@UVarMapEntry_t@@@@QAEPAUVarMapEntry_t@@XZ 2402efb0 f i c_baseanimating.obj
 0001:0002dfc0       ??$Destruct@UVarMapEntry_t@@@@YAXPAUVarMapEntry_t@@@Z 2402efc0 f i c_baseanimating.obj
 0001:0002dfd0       ?GetRenderMode@C_BaseEntity@@QBE?AW4RenderMode_t@@XZ 2402efd0 f i c_baseanimating.obj
 0001:0002dfe0       ?pszSurfaceProp@mstudiobone_t@@QBEQADXZ 2402efe0 f i c_baseanimating.obj
 0001:0002dff0       ?SetLooping@?$CInterpolatedVarArray@M$0BI@@@QAEX_NH@Z 2402eff0 f i c_baseanimating.obj
 0001:0002e000       ?SetMaxCount@?$CInterpolatedVarArray@M$0BI@@@QAEXH@Z 2402f000 f i c_baseanimating.obj
 0001:0002e020       ?pszName@mstudioposeparamdesc_t@@QBEQADXZ 2402f020 f i c_baseanimating.obj
 0001:0002e030       ?SetLooping@?$CInterpolatedVarArray@M$03@@QAEX_NH@Z 2402f030 f i c_baseanimating.obj
 0001:0002e040       ?SetMaxCount@?$CInterpolatedVarArray@M$03@@QAEXH@Z 2402f040 f i c_baseanimating.obj
 0001:0002e060       ?SetLooping@?$CInterpolatedVarArray@M$00@@QAEX_NH@Z 2402f060 f i c_baseanimating.obj
 0001:0002e070       ??0CBoneAccessor@@QAE@XZ   2402f070 f i c_baseanimating.obj
 0001:0002e080       ??0CBoneAccessor@@QAE@PAUmatrix3x4_t@@@Z 2402f080 f i c_baseanimating.obj
 0001:0002e0a0       ?Init@CBoneAccessor@@QAEXPBVC_BaseAnimating@@PAUmatrix3x4_t@@@Z 2402f0a0 f i c_baseanimating.obj
 0001:0002e0b0       ?GetReadableBones@CBoneAccessor@@QAEHXZ 2402f0b0 f i c_baseanimating.obj
 0001:0002e0c0       ?SetReadableBones@CBoneAccessor@@QAEXH@Z 2402f0c0 f i c_baseanimating.obj
 0001:0002e0d0       ?GetWritableBones@CBoneAccessor@@QAEHXZ 2402f0d0 f i c_baseanimating.obj
 0001:0002e0e0       ?SetWritableBones@CBoneAccessor@@QAEXH@Z 2402f0e0 f i c_baseanimating.obj
 0001:0002e0f0       ?GetBoneArrayForWrite@CBoneAccessor@@QBEPAUmatrix3x4_t@@XZ 2402f0f0 f i c_baseanimating.obj
 0001:0002e100       ?GetRagdoll@CRagdoll@@QAEPAUragdoll_t@@XZ 2402f100 f i c_baseanimating.obj
 0001:0002e110       ??0CVoiceData@@QAE@XZ      2402f110 f i c_baseanimating.obj
 0001:0002e120       ??0CMouthInfo@@QAE@XZ      2402f120 f i c_baseanimating.obj
 0001:0002e160       ??$DataMapAccess@VC_BaseAnimating@@@@YAXPAVC_BaseAnimating@@PAPAUdatamap_t@@@Z 2402f160 f i c_baseanimating.obj
 0001:0002e170       ?ActivateEnvelope@CMouthInfo@@QAEXXZ 2402f170 f i c_baseanimating.obj
 0001:0002e180       ?ClearVoiceSources@CMouthInfo@@QAEXXZ 2402f180 f i c_baseanimating.obj
 0001:0002e190       ?Head@?$CUtlLinkedList@PAVC_RopeKeyframe@@G@@QBEGXZ 2402f190 f i c_baseanimating.obj
 0001:0002e1a0       ?Count@?$CUtlVector@Umatrix3x4_t@@V?$CUtlMemory@Umatrix3x4_t@@@@@@QBEHXZ 2402f1a0 f i c_baseanimating.obj
 0001:0002e1b0       ?NetworkStateChanged@NetworkVar_m_flModelWidthScale@C_BaseAnimating@@SAXPAX@Z 2402f1b0 f i c_baseanimating.obj
 0001:0002e1c0       ?NetworkStateChanged@NetworkVar_m_nMuzzleFlashParity@C_BaseAnimating@@SAXPAX@Z 2402f1c0 f i c_baseanimating.obj
 0001:0002e1d0       ?Count@?$CUtlVector@VCAttachmentData@@V?$CUtlMemory@VCAttachmentData@@@@@@QBEHXZ 2402f1d0 f i c_baseanimating.obj
 0001:0002e1e0       ?Count@?$CUtlVector@UBoneAccess@@V?$CUtlMemory@UBoneAccess@@@@@@QBEHXZ 2402f1e0 f i c_baseanimating.obj
 0001:0002e1f0       ?MouthInfo@C_BaseAnimating@@IAEAAVCMouthInfo@@XZ 2402f1f0 f i c_baseanimating.obj
 0001:0002e200       ?Count@?$CUtlVector@PAVC_BaseAnimating@@V?$CUtlMemory@PAVC_BaseAnimating@@@@@@QBEHXZ 2402f200 f i c_baseanimating.obj
 0001:0002e210       ?Base@?$CUtlMemory@Umatrix3x4_t@@@@QAEPAUmatrix3x4_t@@XZ 2402f210 f i c_baseanimating.obj
 0001:0002e220       ??$CopyConstruct@UVarMapEntry_t@@@@YAXPAUVarMapEntry_t@@ABU0@@Z 2402f220 f i c_baseanimating.obj
 0001:0002e240       ?IsErrorMaterial@@YA_NPAVIMaterial@@@Z 2402f240 f i c_baseanimating.obj
 0001:0002e260       ?ConstructList@?$CUtlFixedLinkedList@UCInterpolatedVarEntry@?$CInterpolatedVarArray@M$0BI@@@@@IAEXXZ 2402f260 f i c_baseanimating.obj
 0001:0002e280       ??A?$CUtlFixedMemory@UListElem_t@?$CUtlFixedLinkedList@UCInterpolatedVarEntry@?$CInterpolatedVarArray@M$0BI@@@@@@@QBEABUListElem_t@?$CUtlFixedLinkedList@UCInterpolatedVarEntry@?$CInterpolatedVarArray@M$0BI@@@@@H@Z 2402f280 f i c_baseanimating.obj
 0001:0002e290       ??A?$CUtlFixedMemory@UListElem_t@?$CUtlFixedLinkedList@UCInterpolatedVarEntry@?$CInterpolatedVarArray@M$0BI@@@@@@@QAEAAUListElem_t@?$CUtlFixedLinkedList@UCInterpolatedVarEntry@?$CInterpolatedVarArray@M$0BI@@@@@H@Z 2402f290 f i c_baseanimating.obj
 0001:0002e2a0       ??$Destruct@UCInterpolatedVarEntry@?$CInterpolatedVarArray@M$0BI@@@@@YAXPAUCInterpolatedVarEntry@?$CInterpolatedVarArray@M$0BI@@@@Z 2402f2a0 f i c_baseanimating.obj
 0001:0002e2b0       ?ConstructList@?$CUtlFixedLinkedList@UCInterpolatedVarEntry@?$CInterpolatedVarArray@M$03@@@@IAEXXZ 2402f2b0 f i c_baseanimating.obj
 0001:0002e2d0       ??A?$CUtlFixedMemory@UListElem_t@?$CUtlFixedLinkedList@UCInterpolatedVarEntry@?$CInterpolatedVarArray@M$03@@@@@@QBEABUListElem_t@?$CUtlFixedLinkedList@UCInterpolatedVarEntry@?$CInterpolatedVarArray@M$03@@@@H@Z 2402f2d0 f i c_baseanimating.obj
 0001:0002e2e0       ??A?$CUtlFixedMemory@UListElem_t@?$CUtlFixedLinkedList@UCInterpolatedVarEntry@?$CInterpolatedVarArray@M$03@@@@@@QAEAAUListElem_t@?$CUtlFixedLinkedList@UCInterpolatedVarEntry@?$CInterpolatedVarArray@M$03@@@@H@Z 2402f2e0 f i c_baseanimating.obj
 0001:0002e2f0       ??$Destruct@UCInterpolatedVarEntry@?$CInterpolatedVarArray@M$03@@@@YAXPAUCInterpolatedVarEntry@?$CInterpolatedVarArray@M$03@@@Z 2402f2f0 f i c_baseanimating.obj
 0001:0002e300       ?ConstructList@?$CUtlLinkedList@PAVC_RopeKeyframe@@G@@IAEXXZ 2402f300 f i c_baseanimating.obj
 0001:0002e320       ??0?$CUtlMemory@UListElem_t@?$CUtlLinkedList@PAVC_RopeKeyframe@@G@@@@QAE@HH@Z 2402f320 f i c_baseanimating.obj
 0001:0002e360       ??A?$CUtlMemory@UListElem_t@?$CUtlLinkedList@PAVC_RopeKeyframe@@G@@@@QBEABUListElem_t@?$CUtlLinkedList@PAVC_RopeKeyframe@@G@@H@Z 2402f360 f i c_baseanimating.obj
 0001:0002e370       ??A?$CUtlMemory@UListElem_t@?$CUtlLinkedList@PAVC_RopeKeyframe@@G@@@@QAEAAUListElem_t@?$CUtlLinkedList@PAVC_RopeKeyframe@@G@@H@Z 2402f370 f i c_baseanimating.obj
 0001:0002e380       ?Base@?$CUtlMemory@UListElem_t@?$CUtlLinkedList@PAVC_RopeKeyframe@@G@@@@QAEPAUListElem_t@?$CUtlLinkedList@PAVC_RopeKeyframe@@G@@XZ 2402f380 f i c_baseanimating.obj
 0001:0002e390       ??0?$CUtlMemory@Umatrix3x4_t@@@@QAE@HH@Z 2402f390 f i c_baseanimating.obj
 0001:0002e3d0       ??0?$CUtlMemory@VCAttachmentData@@@@QAE@HH@Z 2402f3d0 f i c_baseanimating.obj
 0001:0002e410       ?Base@?$CUtlMemory@VCAttachmentData@@@@QAEPAVCAttachmentData@@XZ 2402f410 f i c_baseanimating.obj
 0001:0002e420       ??0?$CUtlMemory@UBoneAccess@@@@QAE@HH@Z 2402f420 f i c_baseanimating.obj
 0001:0002e450       ?Base@?$CUtlMemory@UBoneAccess@@@@QAEPAUBoneAccess@@XZ 2402f450 f i c_baseanimating.obj
 0001:0002e460       ??$Destruct@UBoneAccess@@@@YAXPAUBoneAccess@@@Z 2402f460 f i c_baseanimating.obj
 0001:0002e470       ??0?$CUtlMemory@PAVC_BaseAnimating@@@@QAE@HH@Z 2402f470 f i c_baseanimating.obj
 0001:0002e4b0       ?Base@?$CUtlMemory@PAVC_BaseAnimating@@@@QAEPAPAVC_BaseAnimating@@XZ 2402f4b0 f i c_baseanimating.obj
 0001:0002e4c0       ??$Destruct@PAVC_BaseAnimating@@@@YAXPAPAVC_BaseAnimating@@@Z 2402f4c0 f i c_baseanimating.obj
 0001:0002e4d0       ?InternalElement@?$CUtlLinkedList@PAVC_RopeKeyframe@@G@@IAEAAUListElem_t@1@G@Z 2402f4d0 f i c_baseanimating.obj
 0001:0002e4e0       ??$Destruct@PAD@@YAXPAPAD@Z 2402f4e0 f i c_baseanimating.obj
 0001:0002e4f0       ?IsExternallyAllocated@?$CUtlMemory@PAD@@QBE_NXZ 2402f4f0 f i c_baseanimating.obj
 0001:0002e500       ?NumAllocated@?$CUtlMemory@UVarMapEntry_t@@@@QBEHXZ 2402f500 f i c_baseanimating.obj
 0001:0002e510       ?IsExternallyAllocated@?$CUtlMemory@UVarMapEntry_t@@@@QBE_NXZ 2402f510 f i c_baseanimating.obj
 0001:0002e520       ?Element@?$CUtlFixedLinkedList@UCInterpolatedVarEntry@?$CInterpolatedVarArray@M$0BI@@@@@QAEAAUCInterpolatedVarEntry@?$CInterpolatedVarArray@M$0BI@@@H@Z 2402f520 f i c_baseanimating.obj
 0001:0002e530       ?IsValidIndex@?$CUtlFixedLinkedList@UCInterpolatedVarEntry@?$CInterpolatedVarArray@M$0BI@@@@@QBE_NH@Z 2402f530 f i c_baseanimating.obj
 0001:0002e550       ?Purge@?$CUtlFixedMemory@UListElem_t@?$CUtlFixedLinkedList@UCInterpolatedVarEntry@?$CInterpolatedVarArray@M$0BI@@@@@@@QAEXXZ 2402f550 f i c_baseanimating.obj
 0001:0002e590       ?FirstElement@?$CUtlFixedMemory@UListElem_t@?$CUtlFixedLinkedList@UCInterpolatedVarEntry@?$CInterpolatedVarArray@M$0BI@@@@@@@QAEHXZ 2402f590 f i c_baseanimating.obj
 0001:0002e5a0       ?NextElement@?$CUtlFixedMemory@UListElem_t@?$CUtlFixedLinkedList@UCInterpolatedVarEntry@?$CInterpolatedVarArray@M$0BI@@@@@@@QAEHH@Z 2402f5a0 f i c_baseanimating.obj
 0001:0002e5f0       ?SetupFreeList@?$CUtlFixedMemory@UListElem_t@?$CUtlFixedLinkedList@UCInterpolatedVarEntry@?$CInterpolatedVarArray@M$0BI@@@@@@@AAEXPAUBlockHeader_t@1@@Z 2402f5f0 f i c_baseanimating.obj
 0001:0002e640       ?Element@?$CUtlFixedLinkedList@UCInterpolatedVarEntry@?$CInterpolatedVarArray@M$03@@@@QAEAAUCInterpolatedVarEntry@?$CInterpolatedVarArray@M$03@@H@Z 2402f640 f i c_baseanimating.obj
 0001:0002e650       ?IsValidIndex@?$CUtlFixedLinkedList@UCInterpolatedVarEntry@?$CInterpolatedVarArray@M$03@@@@QBE_NH@Z 2402f650 f i c_baseanimating.obj
 0001:0002e670       ?Purge@?$CUtlFixedMemory@UListElem_t@?$CUtlFixedLinkedList@UCInterpolatedVarEntry@?$CInterpolatedVarArray@M$03@@@@@@QAEXXZ 2402f670 f i c_baseanimating.obj
 0001:0002e6b0       ?FirstElement@?$CUtlFixedMemory@UListElem_t@?$CUtlFixedLinkedList@UCInterpolatedVarEntry@?$CInterpolatedVarArray@M$03@@@@@@QAEHXZ 2402f6b0 f i c_baseanimating.obj
 0001:0002e6c0       ?NextElement@?$CUtlFixedMemory@UListElem_t@?$CUtlFixedLinkedList@UCInterpolatedVarEntry@?$CInterpolatedVarArray@M$03@@@@@@QAEHH@Z 2402f6c0 f i c_baseanimating.obj
 0001:0002e710       ?SetupFreeList@?$CUtlFixedMemory@UListElem_t@?$CUtlFixedLinkedList@UCInterpolatedVarEntry@?$CInterpolatedVarArray@M$03@@@@@@AAEXPAUBlockHeader_t@1@@Z 2402f710 f i c_baseanimating.obj
 0001:0002e750       ?Element@?$CUtlLinkedList@PAVC_RopeKeyframe@@G@@QAEAAPAVC_RopeKeyframe@@G@Z 2402f750 f i c_baseanimating.obj
 0001:0002e760       ?IsValidIndex@?$CUtlLinkedList@PAVC_RopeKeyframe@@G@@QBE_NG@Z 2402f760 f i c_baseanimating.obj
 0001:0002e790       ??$CopyConstruct@PAVC_RopeKeyframe@@@@YAXPAPAVC_RopeKeyframe@@ABQAV0@@Z 2402f790 f i c_baseanimating.obj
 0001:0002e7b0       ??$Destruct@PAVC_RopeKeyframe@@@@YAXPAPAVC_RopeKeyframe@@@Z 2402f7b0 f i c_baseanimating.obj
 0001:0002e7c0       ?IsExternallyAllocated@?$CUtlMemory@UListElem_t@?$CUtlLinkedList@PAVC_RopeKeyframe@@G@@@@QBE_NXZ 2402f7c0 f i c_baseanimating.obj
 0001:0002e7d0       ?InvalidIndex@?$CUtlLinkedList@UThinkEntry_t@CClientThinkList@@G@@SAGXZ 2402f7d0 f i c_baseanimating.obj
 0001:0002e7e0       ??$CopyConstruct@UBoneAccess@@@@YAXPAUBoneAccess@@ABU0@@Z 2402f7e0 f i c_baseanimating.obj
 0001:0002e800       ??0?$CRangeCheckedVar@H$0?0$0DOI@$0A@@@QAE@XZ 2402f800 f i c_baseanimating.obj
 0001:0002e810       ??0?$CRangeCheckedVar@M$0?1$01$0A@@@QAE@XZ 2402f810 f i c_baseanimating.obj
 0001:0002e820       ??0?$CRangeCheckedVar@M$0?4$04$0A@@@QAE@XZ 2402f820 f i c_baseanimating.obj
 0001:0002e830       ??0?$CRangeCheckedVar@M$0?DC@$0DC@$00@@QAE@XZ 2402f830 f i c_baseanimating.obj
 0001:0002e840       ??$CopyConstruct@PAVC_BaseAnimating@@@@YAXPAPAVC_BaseAnimating@@ABQAV0@@Z 2402f840 f i c_baseanimating.obj
 0001:0002e860       ??B?$CNetworkVarBase@EVNetworkVar_m_nMuzzleFlashParity@C_BaseAnimating@@@@QBE?BEXZ 2402f860 f i c_baseanimating.obj
 0001:0002e870       ?Count@?$CUtlVector@PADV?$CUtlMemory@PAD@@@@QBEHXZ 2402f870 f i c_baseanimating.obj
 0001:0002e880       ??$clamp@M@@YAMABM00@Z     2402f880 f i c_baseanimating.obj
 0001:0002e8b0       ?NumAllocated@?$CUtlMemory@VC_AnimationLayer@@@@QBEHXZ 2402f8b0 f i c_baseanimating.obj
 0001:0002e8c0       ?Base@?$CUtlMemory@E@@QBEPBEXZ 2402f8c0 f i c_baseanimating.obj
 0001:0002e8d0       ?NumAllocated@?$CUtlMemory@UListElem_t@?$CUtlLinkedList@PAVC_RopeKeyframe@@G@@@@QBEHXZ 2402f8d0 f i c_baseanimating.obj
 0001:0002e8e0       ?Grow@?$CUtlMemory@UListElem_t@?$CUtlLinkedList@PAVC_RopeKeyframe@@G@@@@QAEXH@Z 2402f8e0 f i c_baseanimating.obj
 0001:0002e960       ??$Destruct@Umatrix3x4_t@@@@YAXPAUmatrix3x4_t@@@Z 2402f960 f i c_baseanimating.obj
 0001:0002e970       ?IsExternallyAllocated@?$CUtlMemory@Umatrix3x4_t@@@@QBE_NXZ 2402f970 f i c_baseanimating.obj
 0001:0002e980       ??$Destruct@VCAttachmentData@@@@YAXPAVCAttachmentData@@@Z 2402f980 f i c_baseanimating.obj
 0001:0002e990       ?IsExternallyAllocated@?$CUtlMemory@VCAttachmentData@@@@QBE_NXZ 2402f990 f i c_baseanimating.obj
 0001:0002e9a0       ?NumAllocated@?$CUtlMemory@UBoneAccess@@@@QBEHXZ 2402f9a0 f i c_baseanimating.obj
 0001:0002e9b0       ?IsExternallyAllocated@?$CUtlMemory@UBoneAccess@@@@QBE_NXZ 2402f9b0 f i c_baseanimating.obj
 0001:0002e9c0       ?NumAllocated@?$CUtlMemory@PAVC_BaseAnimating@@@@QBEHXZ 2402f9c0 f i c_baseanimating.obj
 0001:0002e9d0       ?IsExternallyAllocated@?$CUtlMemory@PAVC_BaseAnimating@@@@QBE_NXZ 2402f9d0 f i c_baseanimating.obj
 0001:0002e9e0       ??4CAttachmentData@@QAEAAV0@ABV0@@Z 2402f9e0 f i c_baseanimating.obj
 0001:0002ea10       ??$Construct@Umatrix3x4_t@@@@YAXPAUmatrix3x4_t@@@Z 2402fa10 f i c_baseanimating.obj
 0001:0002ea20       ??0CAttachmentData@@QAE@XZ 2402fa20 f i c_baseanimating.obj
 0001:0002ea30       ?NumAllocated@?$CUtlMemory@Umatrix3x4_t@@@@QBEHXZ 2402fa30 f i c_baseanimating.obj
 0001:0002ea40       ?Grow@?$CUtlMemory@Umatrix3x4_t@@@@QAEXH@Z 2402fa40 f i c_baseanimating.obj
 0001:0002eac0       ?NumAllocated@?$CUtlMemory@VCAttachmentData@@@@QBEHXZ 2402fac0 f i c_baseanimating.obj
 0001:0002ead0       ?Grow@?$CUtlMemory@VCAttachmentData@@@@QAEXH@Z 2402fad0 f i c_baseanimating.obj
 0001:0002eb50       ??0CClientEffect@@QAE@XZ   2402fb50 f i c_baseanimating.obj
 0001:0002eb70       ?ReferenceMaterial@CClientEffect@@QAEXPBD_N@Z 2402fb70 f i c_baseanimating.obj
 0001:0002ebc0       ?DistToSqr@Vector@@QBEMABV1@@Z 2402fbc0 f i c_baseanimating.obj
 0001:0002ebf0       ?Cache@ClientEffectRegister@PrecacheBaseAnimating@@UAEX_N@Z 2402fbf0 f   c_baseanimating.obj
 0001:0002ec40       ??0ClientEffectRegister@PrecacheBaseAnimating@@QAE@XZ 2402fc40 f i c_baseanimating.obj
 0001:0002ec60       ??0C_InfoLightingRelative@@QAE@XZ 2402fc60 f i c_baseanimating.obj
 0001:0002eca0       ??_EC_InfoLightingRelative@@UAEPAXI@Z 2402fca0 f i c_baseanimating.obj
 0001:0002eca0       ??_GC_InfoLightingRelative@@UAEPAXI@Z 2402fca0 f i c_baseanimating.obj
 0001:0002ecc0       ?GetBaseMap@C_ClientRagdoll@@SAPAUdatamap_t@@XZ 2402fcc0 f   c_baseanimating.obj
 0001:0002ecd0       ?ImpactTrace@C_ClientRagdoll@@UAEXPAVCGameTrace@@HPAD@Z 2402fcd0 f   c_baseanimating.obj
 0001:0002edd0       ?SetupWeights@C_ClientRagdoll@@UAEXXZ 2402fdd0 f   c_baseanimating.obj
 0001:0002eec0       ?VPhysicsGetObjectList@C_BaseAnimating@@UAEHPAPAVIPhysicsObject@@H@Z 2402fec0 f   c_baseanimating.obj
 0001:0002ef40       ?ShadowCastType@C_BaseAnimating@@UAE?AW4ShadowType_t@@XZ 2402ff40 f   c_baseanimating.obj
 0001:0002efd0       ?GetCachedBoneMatrix@C_BaseAnimating@@QAEXHAAUmatrix3x4_t@@@Z 2402ffd0 f   c_baseanimating.obj
 0001:0002f000       ?CreateUnragdollInfo@C_BaseAnimating@@QAEXPAV1@@Z 24030000 f   c_baseanimating.obj
 0001:0002f1d0       ?SaveRagdollInfo@C_BaseAnimating@@UAEXHABUmatrix3x4_t@@AAVCBoneAccessor@@@Z 240301d0 f   c_baseanimating.obj
 0001:0002f340       ?ShouldCollide@C_BaseAnimating@@UAE?AW4CollideType_t@@XZ 24030340 f   c_baseanimating.obj
 0001:0002f360       ?RemapValClamped@@YAMMMMMM@Z 24030360 f i c_baseanimating.obj
 0001:0002f3c0       ?GetAttachmentLocal@C_BaseAnimating@@QAE_NHAAUmatrix3x4_t@@@Z 240303c0 f   c_baseanimating.obj
 0001:0002f420       ?GetAttachmentLocal@C_BaseAnimating@@QAE_NHAAVVector@@AAVQAngle@@@Z 24030420 f   c_baseanimating.obj
 0001:0002f470       ?ShouldHitEntity@CTraceFilterSkipNPCs@@UAE_NPAVIHandleEntity@@H@Z 24030470 f i c_baseanimating.obj
 0001:0002f4b0       ?GetPoseParameterPtr@C_BaseAnimating@@QAEABUmstudioposeparamdesc_t@@PBD@Z 240304b0 f   c_baseanimating.obj
 0001:0002f540       ?ProcessMuzzleFlashEvent@C_BaseAnimating@@UAEXXZ 24030540 f   c_baseanimating.obj
 0001:0002f5f0       ?DispatchMuzzleEffect@C_BaseAnimating@@UAE_NPBD_N@Z 240305f0 f   c_baseanimating.obj
 0001:0002f720       ?FireEvent@C_BaseAnimating@@UAEXABVVector@@ABVQAngle@@HPBD@Z 24030720 f   c_baseanimating.obj
 0001:0002ffb0       ?IsSelfAnimating@C_BaseAnimating@@UAE_NXZ 24030fb0 f   c_baseanimating.obj
 0001:0002ffe0       ?Interpolate@C_BaseAnimating@@UAE_NM@Z 24030fe0 f   c_baseanimating.obj
 0001:00030100       ?RagdollMoved@C_BaseAnimating@@QAEXXZ 24031100 f   c_baseanimating.obj
 0001:00030160       ?VPhysicsUpdate@C_BaseAnimating@@UAEXPAVIPhysicsObject@@@Z 24031160 f   c_baseanimating.obj
 0001:000301a0       ?PreDataUpdate@C_BaseAnimating@@UAEXW4DataUpdateType_t@@@Z 240311a0 f   c_baseanimating.obj
 0001:000301c0       ?AddEntity@C_BaseAnimating@@UAEXXZ 240311c0 f   c_baseanimating.obj
 0001:000301e0       ?UpdateClientSideAnimation@C_BaseAnimating@@UAEXXZ 240311e0 f   c_baseanimating.obj
 0001:00030220       ?GetSequenceGroundSpeed@C_BaseAnimating@@QAEMH@Z 24031220 f   c_baseanimating.obj
 0001:00030260       ?FrameAdvance@C_BaseAnimating@@UAEMM@Z 24031260 f   c_baseanimating.obj
 0001:000303e0       ?ResetSequenceInfo@C_BaseAnimating@@QAEXXZ 240313e0 f   c_baseanimating.obj
 0001:000304c0       ?LookupPoseParameter@C_BaseAnimating@@QAEHPBD@Z 240314c0 f   c_baseanimating.obj
 0001:00030550       ?SetPoseParameter@C_BaseAnimating@@QAEMPBDM@Z 24031550 f   c_baseanimating.obj
 0001:00030570       ?ClearRagdoll@C_BaseAnimating@@QAEXXZ 24031570 f   c_baseanimating.obj
 0001:00030610       ?GetInvalidThinkHandle@CClientThinkList@@QAEPAVCClientThinkHandlePtr@@XZ 24031610 f i c_baseanimating.obj
 0001:00030620       ?GetModelWidthScale@C_BaseAnimating@@QBEMXZ 24031620 f   c_baseanimating.obj
 0001:00030630       ??_EC_BoneFollower@@UAEPAXI@Z 24031630 f i c_baseanimating.obj
 0001:00030630       ??_GC_BoneFollower@@UAEPAXI@Z 24031630 f i c_baseanimating.obj
 0001:00030650       ?ShouldDraw@C_BoneFollower@@UAE_NXZ 24031650 f   c_baseanimating.obj
 0001:00030660       ?DisableMuzzleFlash@C_BaseAnimating@@QAEXXZ 24031660 f   c_baseanimating.obj
 0001:00030670       ?Base@?$CUtlVector@PADV?$CUtlMemory@PAD@@@@QAEPAPADXZ 24031670 f i c_baseanimating.obj
 0001:00030680       ?Base@?$CUtlVector@UVarMapEntry_t@@V?$CUtlMemory@UVarMapEntry_t@@@@@@QAEPAUVarMapEntry_t@@XZ 24031680 f i c_baseanimating.obj
 0001:00030690       ?Base@?$CUtlVector@EV?$CUtlMemory@E@@@@QBEPBEXZ 24031690 f i c_baseanimating.obj
 0001:000306a0       ?Base@?$CUtlVector@Umatrix3x4_t@@V?$CUtlMemory@Umatrix3x4_t@@@@@@QAEPAUmatrix3x4_t@@XZ 240316a0 f i c_baseanimating.obj
 0001:000306b0       ?NetworkStateChanged@?$CNetworkVarBase@MVNetworkVar_m_flModelWidthScale@C_BaseAnimating@@@@IAEXXZ 240316b0 f i c_baseanimating.obj
 0001:000306c0       ?NetworkStateChanged@?$CNetworkVarBase@EVNetworkVar_m_nMuzzleFlashParity@C_BaseAnimating@@@@IAEXXZ 240316c0 f i c_baseanimating.obj
 0001:000306d0       ?ResetDbgInfo@?$CUtlVector@PADV?$CUtlMemory@PAD@@@@IAEXXZ 240316d0 f i c_baseanimating.obj
 0001:000306e0       ?Element@?$CUtlVector@UVarMapEntry_t@@V?$CUtlMemory@UVarMapEntry_t@@@@@@QAEAAUVarMapEntry_t@@H@Z 240316e0 f i c_baseanimating.obj
 0001:000306f0       ?ResetDbgInfo@?$CUtlVector@UVarMapEntry_t@@V?$CUtlMemory@UVarMapEntry_t@@@@@@IAEXXZ 240316f0 f i c_baseanimating.obj
 0001:00030700       ??C?$CHandle@VC_BaseEntity@@@@QBEPAVC_BaseEntity@@XZ 24031700 f i c_baseanimating.obj
 0001:00030730       ??A?$CUtlFixedLinkedList@UCInterpolatedVarEntry@?$CInterpolatedVarArray@M$0BI@@@@@QAEAAUCInterpolatedVarEntry@?$CInterpolatedVarArray@M$0BI@@@H@Z 24031730 f i c_baseanimating.obj
 0001:00030740       ??1CMouthInfo@@UAE@XZ      24031740 f i c_baseanimating.obj
 0001:00030750       ??_ECMouthInfo@@UAEPAXI@Z  24031750 f i c_baseanimating.obj
 0001:00030750       ??_GCMouthInfo@@UAEPAXI@Z  24031750 f i c_baseanimating.obj
 0001:00030780       ??A?$CUtlLinkedList@PAVC_RopeKeyframe@@G@@QAEAAPAVC_RopeKeyframe@@G@Z 24031780 f i c_baseanimating.obj
 0001:00030790       ??A?$CUtlVector@Umatrix3x4_t@@V?$CUtlMemory@Umatrix3x4_t@@@@@@QAEAAUmatrix3x4_t@@H@Z 24031790 f i c_baseanimating.obj
 0001:000307a0       ?ShouldMuzzleFlash@C_BaseAnimating@@QBE_NXZ 240317a0 f i c_baseanimating.obj
 0001:000307c0       ?GetEffectEntity@C_BaseEntity@@QBEPAV1@XZ 240317c0 f i c_baseanimating.obj
 0001:000307f0       ?InternalElement@?$CUtlLinkedList@PAVC_RopeKeyframe@@G@@IBEABUListElem_t@1@G@Z 240317f0 f i c_baseanimating.obj
 0001:00030800       ?ResetDbgInfo@?$CUtlLinkedList@PAVC_RopeKeyframe@@G@@IAEXXZ 24031800 f i c_baseanimating.obj
 0001:00030810       ?Base@?$CUtlVector@VCAttachmentData@@V?$CUtlMemory@VCAttachmentData@@@@@@QAEPAVCAttachmentData@@XZ 24031810 f i c_baseanimating.obj
 0001:00030820       ?InternalElement@?$CUtlFixedLinkedList@UCInterpolatedVarEntry@?$CInterpolatedVarArray@M$0BI@@@@@IAEAAUListElem_t@1@H@Z 24031820 f i c_baseanimating.obj
 0001:00030830       ?InternalElement@?$CUtlFixedLinkedList@UCInterpolatedVarEntry@?$CInterpolatedVarArray@M$0BI@@@@@IBEABUListElem_t@1@H@Z 24031830 f i c_baseanimating.obj
 0001:00030840       ?InternalElement@?$CUtlFixedLinkedList@UCInterpolatedVarEntry@?$CInterpolatedVarArray@M$03@@@@IAEAAUListElem_t@1@H@Z 24031840 f i c_baseanimating.obj
 0001:00030850       ?InternalElement@?$CUtlFixedLinkedList@UCInterpolatedVarEntry@?$CInterpolatedVarArray@M$03@@@@IBEABUListElem_t@1@H@Z 24031850 f i c_baseanimating.obj
 0001:00030860       ?Base@?$CUtlVector@UBoneAccess@@V?$CUtlMemory@UBoneAccess@@@@@@QAEPAUBoneAccess@@XZ 24031860 f i c_baseanimating.obj
 0001:00030870       ?Base@?$CUtlVector@PAVC_BaseAnimating@@V?$CUtlMemory@PAVC_BaseAnimating@@@@@@QAEPAPAVC_BaseAnimating@@XZ 24031870 f i c_baseanimating.obj
 0001:00030880       ?Element@?$CUtlVector@PADV?$CUtlMemory@PAD@@@@QAEAAPADH@Z 24031880 f i c_baseanimating.obj
 0001:00030890       ?RemoveAll@?$CUtlVector@PADV?$CUtlMemory@PAD@@@@QAEXXZ 24031890 f i c_baseanimating.obj
 0001:000308a0       ?Purge@?$CUtlMemory@PAD@@QAEXXZ 240318a0 f i c_baseanimating.obj
 0001:000308d0       ?RemoveAll@?$CUtlVector@UVarMapEntry_t@@V?$CUtlMemory@UVarMapEntry_t@@@@@@QAEXXZ 240318d0 f i c_baseanimating.obj
 0001:000308e0       ?ShiftElementsRight@?$CUtlVector@UVarMapEntry_t@@V?$CUtlMemory@UVarMapEntry_t@@@@@@IAEXHH@Z 240318e0 f i c_baseanimating.obj
 0001:00030920       ?Purge@?$CUtlMemory@UVarMapEntry_t@@@@QAEXXZ 24031920 f i c_baseanimating.obj
 0001:00030950       ??0?$CUtlFixedMemory@UListElem_t@?$CUtlFixedLinkedList@UCInterpolatedVarEntry@?$CInterpolatedVarArray@M$0BI@@@@@@@QAE@HH@Z 24031950 f i c_baseanimating.obj
 0001:000309c0       ??1?$CUtlFixedMemory@UListElem_t@?$CUtlFixedLinkedList@UCInterpolatedVarEntry@?$CInterpolatedVarArray@M$0BI@@@@@@@QAE@XZ 240319c0 f i c_baseanimating.obj
 0001:000309d0       ??0?$CUtlFixedMemory@UListElem_t@?$CUtlFixedLinkedList@UCInterpolatedVarEntry@?$CInterpolatedVarArray@M$03@@@@@@QAE@HH@Z 240319d0 f i c_baseanimating.obj
 0001:00030a60       ??1?$CUtlFixedMemory@UListElem_t@?$CUtlFixedLinkedList@UCInterpolatedVarEntry@?$CInterpolatedVarArray@M$03@@@@@@QAE@XZ 24031a60 f i c_baseanimating.obj
 0001:00030a70       ?ShiftElementsLeft@?$CUtlVector@VC_AnimationLayer@@V?$CUtlMemory@VC_AnimationLayer@@@@@@IAEXHH@Z 24031a70 f i c_baseanimating.obj
 0001:00030ab0       ?RemoveAll@?$CUtlLinkedList@PAVC_RopeKeyframe@@G@@QAEXXZ 24031ab0 f i c_baseanimating.obj
 0001:00030b10       ?Purge@?$CUtlMemory@UListElem_t@?$CUtlLinkedList@PAVC_RopeKeyframe@@G@@@@QAEXXZ 24031b10 f i c_baseanimating.obj
 0001:00030b40       ?ResetDbgInfo@?$CUtlVector@Umatrix3x4_t@@V?$CUtlMemory@Umatrix3x4_t@@@@@@IAEXXZ 24031b40 f i c_baseanimating.obj
 0001:00030b50       ?ResetDbgInfo@?$CUtlVector@VCAttachmentData@@V?$CUtlMemory@VCAttachmentData@@@@@@IAEXXZ 24031b50 f i c_baseanimating.obj
 0001:00030b60       ?Element@?$CUtlVector@UBoneAccess@@V?$CUtlMemory@UBoneAccess@@@@@@QAEAAUBoneAccess@@H@Z 24031b60 f i c_baseanimating.obj
 0001:00030b70       ?ShiftElementsLeft@?$CUtlVector@UBoneAccess@@V?$CUtlMemory@UBoneAccess@@@@@@IAEXHH@Z 24031b70 f i c_baseanimating.obj
 0001:00030bb0       ?ResetDbgInfo@?$CUtlVector@UBoneAccess@@V?$CUtlMemory@UBoneAccess@@@@@@IAEXXZ 24031bb0 f i c_baseanimating.obj
 0001:00030bc0       ?Element@?$CUtlVector@PAVC_BaseAnimating@@V?$CUtlMemory@PAVC_BaseAnimating@@@@@@QAEAAPAVC_BaseAnimating@@H@Z 24031bc0 f i c_baseanimating.obj
 0001:00030bd0       ?ResetDbgInfo@?$CUtlVector@PAVC_BaseAnimating@@V?$CUtlMemory@PAVC_BaseAnimating@@@@@@IAEXXZ 24031bd0 f i c_baseanimating.obj
 0001:00030be0       ?Grow@?$CUtlMemory@UVarMapEntry_t@@@@QAEXH@Z 24031be0 f i c_baseanimating.obj
 0001:00030c60       ?RemoveAll@?$CUtlFixedMemory@UListElem_t@?$CUtlFixedLinkedList@UCInterpolatedVarEntry@?$CInterpolatedVarArray@M$0BI@@@@@@@QAEXXZ 24031c60 f i c_baseanimating.obj
 0001:00030cb0       ?RemoveAll@?$CUtlFixedMemory@UListElem_t@?$CUtlFixedLinkedList@UCInterpolatedVarEntry@?$CInterpolatedVarArray@M$03@@@@@@QAEXXZ 24031cb0 f i c_baseanimating.obj
 0001:00030d00       ?ShiftElementsRight@?$CUtlVector@VC_AnimationLayer@@V?$CUtlMemory@VC_AnimationLayer@@@@@@IAEXHH@Z 24031d00 f i c_baseanimating.obj
 0001:00030d40       ?AllocInternal@?$CUtlLinkedList@PAVC_RopeKeyframe@@G@@IAEG_N@Z 24031d40 f i c_baseanimating.obj
 0001:00030de0       ?Purge@?$CUtlMemory@Umatrix3x4_t@@@@QAEXXZ 24031de0 f i c_baseanimating.obj
 0001:00030e10       ?Purge@?$CUtlMemory@VCAttachmentData@@@@QAEXXZ 24031e10 f i c_baseanimating.obj
 0001:00030e40       ?ShiftElementsRight@?$CUtlVector@UBoneAccess@@V?$CUtlMemory@UBoneAccess@@@@@@IAEXHH@Z 24031e40 f i c_baseanimating.obj
 0001:00030e80       ?Purge@?$CUtlMemory@UBoneAccess@@@@QAEXXZ 24031e80 f i c_baseanimating.obj
 0001:00030eb0       ?RemoveAll@?$CUtlVector@PAVC_BaseAnimating@@V?$CUtlMemory@PAVC_BaseAnimating@@@@@@QAEXXZ 24031eb0 f i c_baseanimating.obj
 0001:00030ec0       ?ShiftElementsRight@?$CUtlVector@PAVC_BaseAnimating@@V?$CUtlMemory@PAVC_BaseAnimating@@@@@@IAEXHH@Z 24031ec0 f i c_baseanimating.obj
 0001:00030f00       ?Purge@?$CUtlMemory@PAVC_BaseAnimating@@@@QAEXXZ 24031f00 f i c_baseanimating.obj
 0001:00030f30       ?Previous@?$CUtlFixedLinkedList@UCInterpolatedVarEntry@?$CInterpolatedVarArray@M$0BI@@@@@QBEHH@Z 24031f30 f i c_baseanimating.obj
 0001:00030f40       ?Previous@?$CUtlFixedLinkedList@UCInterpolatedVarEntry@?$CInterpolatedVarArray@M$03@@@@QBEHH@Z 24031f40 f i c_baseanimating.obj
 0001:00030f50       ??A?$CUtlVector@PADV?$CUtlMemory@PAD@@@@QAEAAPADH@Z 24031f50 f i c_baseanimating.obj
 0001:00030f60       ?Grow@?$CUtlMemory@VC_AnimationLayer@@@@QAEXH@Z 24031f60 f i c_baseanimating.obj
 0001:00030fd0       ?Element@?$CUtlVector@Umatrix3x4_t@@V?$CUtlMemory@Umatrix3x4_t@@@@@@QAEAAUmatrix3x4_t@@H@Z 24031fd0 f i c_baseanimating.obj
 0001:00030fe0       ?Element@?$CUtlVector@VCAttachmentData@@V?$CUtlMemory@VCAttachmentData@@@@@@QAEAAVCAttachmentData@@H@Z 24031fe0 f i c_baseanimating.obj
 0001:00030ff0       ?Grow@?$CUtlMemory@UBoneAccess@@@@QAEXH@Z 24031ff0 f i c_baseanimating.obj
 0001:00031060       ?Grow@?$CUtlMemory@PAVC_BaseAnimating@@@@QAEXH@Z 24032060 f i c_baseanimating.obj
 0001:000310d0       ??A?$CUtlVector@EV?$CUtlMemory@E@@@@QBEABEH@Z 240320d0 f i c_baseanimating.obj
 0001:000310e0       ?GrowVector@?$CUtlVector@Umatrix3x4_t@@V?$CUtlMemory@Umatrix3x4_t@@@@@@IAEXH@Z 240320e0 f i c_baseanimating.obj
 0001:00031110       ?ShiftElementsRight@?$CUtlVector@Umatrix3x4_t@@V?$CUtlMemory@Umatrix3x4_t@@@@@@IAEXHH@Z 24032110 f i c_baseanimating.obj
 0001:00031160       ?GrowVector@?$CUtlVector@VCAttachmentData@@V?$CUtlMemory@VCAttachmentData@@@@@@IAEXH@Z 24032160 f i c_baseanimating.obj
 0001:00031190       ?ShiftElementsRight@?$CUtlVector@VCAttachmentData@@V?$CUtlMemory@VCAttachmentData@@@@@@IAEXHH@Z 24032190 f i c_baseanimating.obj
 0001:000311e0       ??$Construct@VCAttachmentData@@@@YAXPAVCAttachmentData@@@Z 240321e0 f i c_baseanimating.obj
 0001:000311f0       ?Previous@?$CUtlLinkedList@PAVC_RopeKeyframe@@G@@QBEGG@Z 240321f0 f i c_baseanimating.obj
 0001:00031260       ?GetLightingOffset@C_InfoLightingRelative@@QAEXAAUmatrix3x4_t@@@Z 24032260 f   c_baseanimating.obj
 0001:00031320       ?OnSave@C_ClientRagdoll@@UAEXXZ 24032320 f   c_baseanimating.obj
 0001:000315f0       ?OnRestore@C_ClientRagdoll@@UAEXXZ 240325f0 f   c_baseanimating.obj
 0001:000317c0       ?HandleAnimatedFriction@C_ClientRagdoll@@QAEXXZ 240327c0 f   c_baseanimating.obj
 0001:00031a10       ?ApplyBoneMatrixTransform@C_BaseAnimating@@UAEXAAUmatrix3x4_t@@@Z 24032a10 f   c_baseanimating.obj
 0001:00031b60       ?GetBoneCache@C_BaseAnimating@@QAEPAVCBoneCache@@XZ 24032b60 f   c_baseanimating.obj
 0001:00031c80       ?HitboxToWorldTransforms@C_BaseAnimating@@QAE_NQAPAUmatrix3x4_t@@@Z 24032c80 f   c_baseanimating.obj
 0001:00031d00       ?InternalDrawModel@C_BaseAnimating@@UAEHH@Z 24032d00 f   c_baseanimating.obj
 0001:00031f00       ?DoAnimationEvents@C_BaseAnimating@@UAEXXZ 24032f00 f   c_baseanimating.obj
 0001:00032180       ?GetRenderBounds@C_BaseAnimating@@UAEXAAVVector@@0@Z 24033180 f   c_baseanimating.obj
 0001:00032370       ?NotifyShouldTransmit@C_BaseAnimating@@UAEXW4ShouldTransmitState_t@@@Z 24033370 f   c_baseanimating.obj
 0001:000323b0       ?OnDataChanged@C_BaseAnimating@@UAEXW4DataUpdateType_t@@@Z 240333b0 f   c_baseanimating.obj
 0001:000325b0       ?Simulate@C_BaseAnimating@@UAEXXZ 240335b0 f   c_baseanimating.obj
 0001:000325f0       ?TestCollision@C_BaseAnimating@@UAE_NABURay_t@@IAAVCGameTrace@@@Z 240335f0 f   c_baseanimating.obj
 0001:00032680       ?TestHitboxes@C_BaseAnimating@@UAE_NABURay_t@@IAAVCGameTrace@@@Z 24033680 f   c_baseanimating.obj
 0001:00032810       ?StudioFrameAdvance@C_BaseAnimating@@UAEXXZ 24033810 f   c_baseanimating.obj
 0001:00032980       ?Release@C_BaseAnimating@@UAEXXZ 24033980 f   c_baseanimating.obj
 0001:000329a0       ?GetAimEntOrigin@C_BaseAnimating@@UAEXPAVIClientEntity@@PAVVector@@PAVQAngle@@@Z 240339a0 f   c_baseanimating.obj
 0001:00032a50       ?ComputeHitboxSurroundingBox@C_BaseAnimating@@QAE_NPAVVector@@0@Z 24033a50 f   c_baseanimating.obj
 0001:00032b60       ?ComputeEntitySpaceHitboxSurroundingBox@C_BaseAnimating@@QAE_NPAVVector@@0@Z 24033b60 f   c_baseanimating.obj
 0001:00032cb0       ??0C_AnimationLayer@@QAE@XZ 24033cb0 f i c_baseanimating.obj
 0001:00032ce0       ?Set@?$CNetworkVarBase@MVNetworkVar_m_flModelWidthScale@C_BaseAnimating@@@@QAEABMABM@Z 24033ce0 f i c_baseanimating.obj
 0001:00032d00       ?Set@?$CNetworkVarBase@EVNetworkVar_m_nMuzzleFlashParity@C_BaseAnimating@@@@QAEABEABE@Z 24033d00 f i c_baseanimating.obj
 0001:00032d20       ?Purge@?$CUtlVector@PADV?$CUtlMemory@PAD@@@@QAEXXZ 24033d20 f i c_baseanimating.obj
 0001:00032d60       ??1?$CUtlMemory@PAD@@QAE@XZ 24033d60 f i c_baseanimating.obj
 0001:00032d90       ?Purge@?$CUtlVector@UVarMapEntry_t@@V?$CUtlMemory@UVarMapEntry_t@@@@@@QAEXXZ 24033d90 f i c_baseanimating.obj
 0001:00032dd0       ??1?$CUtlMemory@UVarMapEntry_t@@@@QAE@XZ 24033dd0 f i c_baseanimating.obj
 0001:00032e00       ??0?$CUtlFixedLinkedList@UCInterpolatedVarEntry@?$CInterpolatedVarArray@M$0BI@@@@@QAE@HH@Z 24033e00 f i c_baseanimating.obj
 0001:00032e30       ?Next@?$CUtlFixedLinkedList@UCInterpolatedVarEntry@?$CInterpolatedVarArray@M$0BI@@@@@QBEHH@Z 24033e30 f i c_baseanimating.obj
 0001:00032e40       ??0?$CUtlFixedLinkedList@UCInterpolatedVarEntry@?$CInterpolatedVarArray@M$03@@@@QAE@HH@Z 24033e40 f i c_baseanimating.obj
 0001:00032e70       ?Next@?$CUtlFixedLinkedList@UCInterpolatedVarEntry@?$CInterpolatedVarArray@M$03@@@@QBEHH@Z 24033e70 f i c_baseanimating.obj
 0001:00032e80       ?Remove@?$CUtlVector@VC_AnimationLayer@@V?$CUtlMemory@VC_AnimationLayer@@@@@@QAEXH@Z 24033e80 f i c_baseanimating.obj
 0001:00032ec0       ?Purge@?$CUtlLinkedList@PAVC_RopeKeyframe@@G@@QAEXXZ 24033ec0 f i c_baseanimating.obj
 0001:00032f00       ?IsBoneMerged@CBoneMergeCache@@QBEHH@Z 24033f00 f i c_baseanimating.obj
 0001:00032f30       ?Next@?$CUtlLinkedList@PAVC_RopeKeyframe@@G@@QBEGG@Z 24033f30 f i c_baseanimating.obj
 0001:00032f40       ??A?$CUtlVector@VCAttachmentData@@V?$CUtlMemory@VCAttachmentData@@@@@@QAEAAVCAttachmentData@@H@Z 24033f40 f i c_baseanimating.obj
 0001:00032f50       ??A?$CUtlVector@UBoneAccess@@V?$CUtlMemory@UBoneAccess@@@@@@QAEAAUBoneAccess@@H@Z 24033f50 f i c_baseanimating.obj
 0001:00032f60       ?Remove@?$CUtlVector@UBoneAccess@@V?$CUtlMemory@UBoneAccess@@@@@@QAEXH@Z 24033f60 f i c_baseanimating.obj
 0001:00032f90       ?RemoveAll@?$CUtlVector@UBoneAccess@@V?$CUtlMemory@UBoneAccess@@@@@@QAEXXZ 24033f90 f i c_baseanimating.obj
 0001:00032fa0       ??A?$CUtlVector@PAVC_BaseAnimating@@V?$CUtlMemory@PAVC_BaseAnimating@@@@@@QAEAAPAVC_BaseAnimating@@H@Z 24033fa0 f i c_baseanimating.obj
 0001:00032fb0       ?FastRemove@?$CUtlVector@PAVC_BaseAnimating@@V?$CUtlMemory@PAVC_BaseAnimating@@@@@@QAEXH@Z 24033fb0 f i c_baseanimating.obj
 0001:00032fd0       ?GrowVector@?$CUtlVector@UVarMapEntry_t@@V?$CUtlMemory@UVarMapEntry_t@@@@@@IAEXH@Z 24033fd0 f i c_baseanimating.obj
 0001:00033000       ?RemoveAll@?$CUtlFixedLinkedList@UCInterpolatedVarEntry@?$CInterpolatedVarArray@M$0BI@@@@@QAEXXZ 24034000 f i c_baseanimating.obj
 0001:00033030       ?RemoveAll@?$CUtlFixedLinkedList@UCInterpolatedVarEntry@?$CInterpolatedVarArray@M$03@@@@QAEXXZ 24034030 f i c_baseanimating.obj
 0001:00033060       ??1?$CUtlMemory@UListElem_t@?$CUtlLinkedList@PAVC_RopeKeyframe@@G@@@@QAE@XZ 24034060 f i c_baseanimating.obj
 0001:00033090       ??1?$CUtlMemory@Umatrix3x4_t@@@@QAE@XZ 24034090 f i c_baseanimating.obj
 0001:000330c0       ??1?$CUtlMemory@VCAttachmentData@@@@QAE@XZ 240340c0 f i c_baseanimating.obj
 0001:000330f0       ?Purge@?$CUtlVector@UBoneAccess@@V?$CUtlMemory@UBoneAccess@@@@@@QAEXXZ 240340f0 f i c_baseanimating.obj
 0001:00033130       ??1?$CUtlMemory@UBoneAccess@@@@QAE@XZ 24034130 f i c_baseanimating.obj
 0001:00033160       ?Purge@?$CUtlVector@PAVC_BaseAnimating@@V?$CUtlMemory@PAVC_BaseAnimating@@@@@@QAEXXZ 24034160 f i c_baseanimating.obj
 0001:000331a0       ??1?$CUtlMemory@PAVC_BaseAnimating@@@@QAE@XZ 240341a0 f i c_baseanimating.obj
 0001:000331d0       ?IsInList@?$CUtlFixedLinkedList@UCInterpolatedVarEntry@?$CInterpolatedVarArray@M$0BI@@@@@QBE_NH@Z 240341d0 f i c_baseanimating.obj
 0001:000331f0       ?IsInList@?$CUtlFixedLinkedList@UCInterpolatedVarEntry@?$CInterpolatedVarArray@M$03@@@@QBE_NH@Z 240341f0 f i c_baseanimating.obj
 0001:00033210       ?GrowVector@?$CUtlVector@VC_AnimationLayer@@V?$CUtlMemory@VC_AnimationLayer@@@@@@IAEXH@Z 24034210 f i c_baseanimating.obj
 0001:00033240       ??$Construct@VC_AnimationLayer@@@@YAXPAVC_AnimationLayer@@@Z 24034240 f i c_baseanimating.obj
 0001:00033270       ?RemoveAll@?$CUtlVector@Umatrix3x4_t@@V?$CUtlMemory@Umatrix3x4_t@@@@@@QAEXXZ 24034270 f i c_baseanimating.obj
 0001:00033280       ?RemoveAll@?$CUtlVector@VCAttachmentData@@V?$CUtlMemory@VCAttachmentData@@@@@@QAEXXZ 24034280 f i c_baseanimating.obj
 0001:00033290       ?GrowVector@?$CUtlVector@UBoneAccess@@V?$CUtlMemory@UBoneAccess@@@@@@IAEXH@Z 24034290 f i c_baseanimating.obj
 0001:000332c0       ?GrowVector@?$CUtlVector@PAVC_BaseAnimating@@V?$CUtlMemory@PAVC_BaseAnimating@@@@@@IAEXH@Z 240342c0 f i c_baseanimating.obj
 0001:000332f0       ??0?$CUtlVector@PADV?$CUtlMemory@PAD@@@@QAE@HH@Z 240342f0 f i c_baseanimating.obj
 0001:00033330       ??1?$CUtlVector@PADV?$CUtlMemory@PAD@@@@QAE@XZ 24034330 f i c_baseanimating.obj
 0001:00033390       ?InsertMultipleBefore@?$CUtlVector@Umatrix3x4_t@@V?$CUtlMemory@Umatrix3x4_t@@@@@@QAEHHHPBUmatrix3x4_t@@@Z 24034390 f i c_baseanimating.obj
 0001:00033440       ?InsertMultipleBefore@?$CUtlVector@VCAttachmentData@@V?$CUtlMemory@VCAttachmentData@@@@@@QAEHHHPBVCAttachmentData@@@Z 24034440 f i c_baseanimating.obj
 0001:00033610       ??0?$CUtlVector@UVarMapEntry_t@@V?$CUtlMemory@UVarMapEntry_t@@@@@@QAE@HH@Z 24034610 f i c_baseanimating.obj
 0001:00033650       ??1?$CUtlVector@UVarMapEntry_t@@V?$CUtlMemory@UVarMapEntry_t@@@@@@QAE@XZ 24034650 f i c_baseanimating.obj
 0001:000336b0       ?IsInList@?$CUtlLinkedList@PAVC_RopeKeyframe@@G@@QBE_NG@Z 240346b0 f i c_baseanimating.obj
 0001:000336e0       ??0CDatadescGeneratedNameHolder@@QAE@PBD@Z 240346e0 f i c_baseanimating.obj
 0001:00033720       ??1CDatadescGeneratedNameHolder@@QAE@XZ 24034720 f i c_baseanimating.obj
 0001:00033790       ?Release@C_ClientRagdoll@@UAEXXZ 24034790 f   c_baseanimating.obj
 0001:00033850       ??1VarMapping_t@@QAE@XZ    24034850 f i c_baseanimating.obj
 0001:00033860       ?GetBoneTransform@C_BaseAnimating@@QAEXHAAUmatrix3x4_t@@@Z 24034860 f   c_baseanimating.obj
 0001:000338f0       ?TermRopes@C_BaseAnimating@@AAEXXZ 240348f0 f   c_baseanimating.obj
 0001:00033970       ?BuildTransformations@C_BaseAnimating@@UAEXPAVVector@@QAVQuaternion@@ABUmatrix3x4_t@@HAAVCBoneBitList@@@Z 24034970 f   c_baseanimating.obj
 0001:00033be0       ?PutAttachment@C_BaseAnimating@@AAE_NHABVVector@@ABVQAngle@@@Z 24034be0 f   c_baseanimating.obj
 0001:00033c50       ?SetupBones_AttachmentHelper@C_BaseAnimating@@AAEXXZ 24034c50 f   c_baseanimating.obj
 0001:00033db0       ?GetAttachment@C_BaseAnimating@@UAE_NHAAUmatrix3x4_t@@@Z 24034db0 f   c_baseanimating.obj
 0001:00033e00       ?CalculateIKLocks@C_BaseAnimating@@UAEXM@Z 24034e00 f   c_baseanimating.obj
 0001:00034440       ?SetupBones@C_BaseAnimating@@UAE_NPAUmatrix3x4_t@@HHM@Z 24035440 f   c_baseanimating.obj
 0001:00034840       ?AllowBoneAccess@C_BaseAnimating@@SAX_N0@Z 24035840 f   c_baseanimating.obj
 0001:00034860       ?PopBoneAccess@C_BaseAnimating@@SAXXZ 24035860 f   c_baseanimating.obj
 0001:000348b0       ?RemoveFromClientSideAnimationList@C_BaseAnimating@@QAEXXZ 240358b0 f   c_baseanimating.obj
 0001:00034930       ?UpdateClientSideAnimations@C_BaseAnimating@@SAXXZ 24035930 f   c_baseanimating.obj
 0001:00034990       ??4?$CNetworkVarBase@MVNetworkVar_m_flModelWidthScale@C_BaseAnimating@@@@QAEABMABM@Z 24035990 f i c_baseanimating.obj
 0001:000349b0       ??4?$CNetworkVarBase@EVNetworkVar_m_nMuzzleFlashParity@C_BaseAnimating@@@@QAEABEABE@Z 240359b0 f i c_baseanimating.obj
 0001:000349d0       ??0VarMapping_t@@QAE@XZ    240359d0 f i c_baseanimating.obj
 0001:000349f0       ?InsertBefore@?$CUtlVector@UVarMapEntry_t@@V?$CUtlMemory@UVarMapEntry_t@@@@@@QAEHHABUVarMapEntry_t@@@Z 240359f0 f i c_baseanimating.obj
 0001:00034a70       ??1?$CUtlFixedLinkedList@UCInterpolatedVarEntry@?$CInterpolatedVarArray@M$0BI@@@@@QAE@XZ 24035a70 f i c_baseanimating.obj
 0001:00034aa0       ??1?$CUtlFixedLinkedList@UCInterpolatedVarEntry@?$CInterpolatedVarArray@M$03@@@@QAE@XZ 24035aa0 f i c_baseanimating.obj
 0001:00034ad0       ??0?$CUtlLinkedList@PAVC_RopeKeyframe@@G@@QAE@HH@Z 24035ad0 f i c_baseanimating.obj
 0001:00034b30       ??1?$CUtlLinkedList@PAVC_RopeKeyframe@@G@@QAE@XZ 24035b30 f i c_baseanimating.obj
 0001:00034b60       ??0?$CUtlVector@Umatrix3x4_t@@V?$CUtlMemory@Umatrix3x4_t@@@@@@QAE@HH@Z 24035b60 f i c_baseanimating.obj
 0001:00034ba0       ??0?$CUtlVector@VCAttachmentData@@V?$CUtlMemory@VCAttachmentData@@@@@@QAE@HH@Z 24035ba0 f i c_baseanimating.obj
 0001:00034bf0       ??0?$CUtlVector@UBoneAccess@@V?$CUtlMemory@UBoneAccess@@@@@@QAE@HH@Z 24035bf0 f i c_baseanimating.obj
 0001:00034c30       ??1?$CUtlVector@UBoneAccess@@V?$CUtlMemory@UBoneAccess@@@@@@QAE@XZ 24035c30 f i c_baseanimating.obj
 0001:00034c90       ??0?$CUtlVector@PAVC_BaseAnimating@@V?$CUtlMemory@PAVC_BaseAnimating@@@@@@QAE@HH@Z 24035c90 f i c_baseanimating.obj
 0001:00034cd0       ??1?$CUtlVector@PAVC_BaseAnimating@@V?$CUtlMemory@PAVC_BaseAnimating@@@@@@QAE@XZ 24035cd0 f i c_baseanimating.obj
 0001:00034d30       ?Unlink@?$CUtlFixedLinkedList@UCInterpolatedVarEntry@?$CInterpolatedVarArray@M$0BI@@@@@QAEXH@Z 24035d30 f i c_baseanimating.obj
 0001:00034d90       ?Unlink@?$CUtlFixedLinkedList@UCInterpolatedVarEntry@?$CInterpolatedVarArray@M$03@@@@QAEXH@Z 24035d90 f i c_baseanimating.obj
 0001:00034df0       ?InsertBefore@?$CUtlVector@VC_AnimationLayer@@V?$CUtlMemory@VC_AnimationLayer@@@@@@QAEHH@Z 24035df0 f i c_baseanimating.obj
 0001:00034e80       ?Purge@?$CUtlVector@Umatrix3x4_t@@V?$CUtlMemory@Umatrix3x4_t@@@@@@QAEXXZ 24035e80 f i c_baseanimating.obj
 0001:00034ec0       ?Purge@?$CUtlVector@VCAttachmentData@@V?$CUtlMemory@VCAttachmentData@@@@@@QAEXXZ 24035ec0 f i c_baseanimating.obj
 0001:00034f00       ?InsertBefore@?$CUtlVector@UBoneAccess@@V?$CUtlMemory@UBoneAccess@@@@@@QAEHHABUBoneAccess@@@Z 24035f00 f i c_baseanimating.obj
 0001:00034f70       ?InsertBefore@?$CUtlVector@PAVC_BaseAnimating@@V?$CUtlMemory@PAVC_BaseAnimating@@@@@@QAEHHABQAVC_BaseAnimating@@@Z 24035f70 f i c_baseanimating.obj
 0001:00034fe0       ?AddMultipleToTail@?$CUtlVector@Umatrix3x4_t@@V?$CUtlMemory@Umatrix3x4_t@@@@@@QAEHHPBUmatrix3x4_t@@@Z 24035fe0 f i c_baseanimating.obj
 0001:00035000       ?AddMultipleToTail@?$CUtlVector@VCAttachmentData@@V?$CUtlMemory@VCAttachmentData@@@@@@QAEHHPBVCAttachmentData@@@Z 24036000 f i c_baseanimating.obj
 0001:00035020       ?Unlink@?$CUtlLinkedList@PAVC_RopeKeyframe@@G@@QAEXG@Z 24036020 f i c_baseanimating.obj
 0001:000350b0       ?AddToTail@?$CUtlVector@UVarMapEntry_t@@V?$CUtlMemory@UVarMapEntry_t@@@@@@QAEHABUVarMapEntry_t@@@Z 240360b0 f i c_baseanimating.obj
 0001:000350d0       ?FadeOut@C_ClientRagdoll@@QAEXXZ 240360d0 f   c_baseanimating.obj
 0001:00035190       ?ClientThink@C_ClientRagdoll@@UAEXXZ 24036190 f   c_baseanimating.obj
 0001:00035250       ?GetBonePosition@C_BaseAnimating@@QAEXHAAVVector@@AAVQAngle@@@Z 24036250 f   c_baseanimating.obj
 0001:000352d0       ?DrawClientHitboxes@C_BaseAnimating@@QAEXM_N@Z 240362d0 f   c_baseanimating.obj
 0001:00035460       ?SetModelWidthScale@C_BaseAnimating@@QAEXM@Z 24036460 f   c_baseanimating.obj
 0001:00035480       ?DoMuzzleFlash@C_BaseAnimating@@UAEXXZ 24036480 f   c_baseanimating.obj
 0001:000354a0       ?Free@?$CUtlFixedLinkedList@UCInterpolatedVarEntry@?$CInterpolatedVarArray@M$0BI@@@@@QAEXH@Z 240364a0 f i c_baseanimating.obj
 0001:000354c0       ?Free@?$CUtlFixedLinkedList@UCInterpolatedVarEntry@?$CInterpolatedVarArray@M$03@@@@QAEXH@Z 240364c0 f i c_baseanimating.obj
 0001:000354e0       ?AddToTail@?$CUtlVector@VC_AnimationLayer@@V?$CUtlMemory@VC_AnimationLayer@@@@@@QAEHXZ 240364e0 f i c_baseanimating.obj
 0001:000354f0       ?AddVar@C_BaseAnimating@@QAEXPAXPAVIInterpolatedVar@@H_N@Z 240364f0 f i c_baseanimating.obj
 0001:00035560       ??1?$CUtlVector@Umatrix3x4_t@@V?$CUtlMemory@Umatrix3x4_t@@@@@@QAE@XZ 24036560 f i c_baseanimating.obj
 0001:000355c0       ??1?$CUtlVector@VCAttachmentData@@V?$CUtlMemory@VCAttachmentData@@@@@@QAE@XZ 240365c0 f i c_baseanimating.obj
 0001:00035620       ?AddToTail@?$CUtlVector@UBoneAccess@@V?$CUtlMemory@UBoneAccess@@@@@@QAEHABUBoneAccess@@@Z 24036620 f i c_baseanimating.obj
 0001:00035640       ?AddToTail@?$CUtlVector@PAVC_BaseAnimating@@V?$CUtlMemory@PAVC_BaseAnimating@@@@@@QAEHABQAVC_BaseAnimating@@@Z 24036640 f i c_baseanimating.obj
 0001:00035660       ?SetCount@?$CUtlVector@Umatrix3x4_t@@V?$CUtlMemory@Umatrix3x4_t@@@@@@QAEXH@Z 24036660 f i c_baseanimating.obj
 0001:00035680       ?SetCount@?$CUtlVector@VCAttachmentData@@V?$CUtlMemory@VCAttachmentData@@@@@@QAEXH@Z 24036680 f i c_baseanimating.obj
 0001:000356a0       ?LinkBefore@?$CUtlLinkedList@PAVC_RopeKeyframe@@G@@QAEXGG@Z 240366a0 f i c_baseanimating.obj
 0001:00035720       ??$DataMapInit@VC_ClientRagdoll@@@@YAPAUdatamap_t@@PAVC_ClientRagdoll@@@Z 24036720 f   c_baseanimating.obj
 0001:000357b0       ?Update@CSequenceTransitioner@@QAEXPAUstudiohdr_t@@HMMM_N1@Z 240367b0 f   c_baseanimating.obj
 0001:00035950       ??1CBoneMergeCache@@QAE@XZ 24036950 f i c_baseanimating.obj
 0001:00035970       ?MaintainSequenceTransitions@C_BaseAnimating@@QAEXMQAMQAVVector@@QAVQuaternion@@H@Z 24036970 f   c_baseanimating.obj
 0001:00035b30       ?PushAllowBoneAccess@C_BaseAnimating@@SAX_N0@Z 24036b30 f   c_baseanimating.obj
 0001:00035b70       ?AddToClientSideAnimationList@C_BaseAnimating@@QAEXXZ 24036b70 f   c_baseanimating.obj
 0001:00035ba0       ?VarHistory@?$CInterpolatedVarArray@M$0BI@@@KAAAV?$CUtlFixedLinkedList@UCInterpolatedVarEntry@?$CInterpolatedVarArray@M$0BI@@@@@XZ 24036ba0 f i c_baseanimating.obj
 0001:00035c00       ?VarHistory@?$CInterpolatedVarArray@M$03@@KAAAV?$CUtlFixedLinkedList@UCInterpolatedVarEntry@?$CInterpolatedVarArray@M$03@@@@XZ 24036c00 f i c_baseanimating.obj
 0001:00035c60       ??0?$CInterpolatedVarArray@M$0BI@@@QAE@PBD@Z 24036c60 f i c_baseanimating.obj
 0001:00035cd0       ?Setup@?$CInterpolatedVarArray@M$0BI@@@UAEXPAXH@Z 24036cd0 f i c_baseanimating.obj
 0001:00035cf0       ?SetInterpolationAmount@?$CInterpolatedVarArray@M$0BI@@@UAEXM@Z 24036cf0 f i c_baseanimating.obj
 0001:00035d00       ?GetType@?$CInterpolatedVarArray@M$0BI@@@UBEHXZ 24036d00 f i c_baseanimating.obj
 0001:00035d10       ?RestoreToLastNetworked@?$CInterpolatedVarArray@M$0BI@@@UAEXXZ 24036d10 f i c_baseanimating.obj
 0001:00035d30       ?ClearHistory@?$CInterpolatedVarArray@M$0BI@@@QAEXXZ 24036d30 f i c_baseanimating.obj
 0001:00035eb0       ?SetHistoryValuesForItem@?$CInterpolatedVarArray@M$0BI@@@QAEXHAAM@Z 24036eb0 f i c_baseanimating.obj
 0001:00035fe0       ??0?$CInterpolatedVarArray@M$03@@QAE@PBD@Z 24036fe0 f i c_baseanimating.obj
 0001:00036030       ?Setup@?$CInterpolatedVarArray@M$03@@UAEXPAXH@Z 24037030 f i c_baseanimating.obj
 0001:00036050       ?SetInterpolationAmount@?$CInterpolatedVarArray@M$03@@UAEXM@Z 24037050 f i c_baseanimating.obj
 0001:00036060       ?GetType@?$CInterpolatedVarArray@M$03@@UBEHXZ 24037060 f i c_baseanimating.obj
 0001:00036070       ?RestoreToLastNetworked@?$CInterpolatedVarArray@M$03@@UAEXXZ 24037070 f i c_baseanimating.obj
 0001:00036090       ?ClearHistory@?$CInterpolatedVarArray@M$03@@QAEXXZ 24037090 f i c_baseanimating.obj
 0001:00036210       ?SetSize@?$CUtlVector@Umatrix3x4_t@@V?$CUtlMemory@Umatrix3x4_t@@@@@@QAEXH@Z 24037210 f i c_baseanimating.obj
 0001:00036230       ?SetSize@?$CUtlVector@VCAttachmentData@@V?$CUtlMemory@VCAttachmentData@@@@@@QAEXH@Z 24037230 f i c_baseanimating.obj
 0001:00036250       ?InsertBefore@?$CUtlLinkedList@PAVC_RopeKeyframe@@G@@QAEGGABQAVC_RopeKeyframe@@@Z 24037250 f i c_baseanimating.obj
 0001:00036290       ??1?$CInterpolatedVarArray@M$0BI@@@UAE@XZ 24037290 f i c_baseanimating.obj
 0001:000362a0       ?Reset@?$CInterpolatedVarArray@M$0BI@@@UAEXXZ 240372a0 f i c_baseanimating.obj
 0001:00036300       ?AddToHead@?$CInterpolatedVarArray@M$0BI@@@QAEXMPBM_N@Z 24037300 f i c_baseanimating.obj
 0001:00036720       ?AllocInternal@?$CUtlFixedLinkedList@UCInterpolatedVarEntry@?$CInterpolatedVarArray@M$0BI@@@@@IAEH_N@Z 24037720 f i c_baseanimating.obj
 0001:00036790       ?Grow@?$CUtlFixedMemory@UListElem_t@?$CUtlFixedLinkedList@UCInterpolatedVarEntry@?$CInterpolatedVarArray@M$0BI@@@@@@@AAEXH@Z 24037790 f i c_baseanimating.obj
 0001:00036820       ?LinkBefore@?$CUtlFixedLinkedList@UCInterpolatedVarEntry@?$CInterpolatedVarArray@M$0BI@@@@@QAEXHH@Z 24037820 f i c_baseanimating.obj
 0001:00036870       ?LinkAfter@?$CUtlFixedLinkedList@UCInterpolatedVarEntry@?$CInterpolatedVarArray@M$0BI@@@@@QAEXHH@Z 24037870 f i c_baseanimating.obj
 0001:000368d0       ??1?$CInterpolatedVarArray@M$03@@UAE@XZ 240378d0 f i c_baseanimating.obj
 0001:000368e0       ?Reset@?$CInterpolatedVarArray@M$03@@UAEXXZ 240378e0 f i c_baseanimating.obj
 0001:00036950       ?AddToHead@?$CInterpolatedVarArray@M$03@@QAEXMPBM_N@Z 24037950 f i c_baseanimating.obj
 0001:00036d70       ?AllocInternal@?$CUtlFixedLinkedList@UCInterpolatedVarEntry@?$CInterpolatedVarArray@M$03@@@@IAEH_N@Z 24037d70 f i c_baseanimating.obj
 0001:00036de0       ?Grow@?$CUtlFixedMemory@UListElem_t@?$CUtlFixedLinkedList@UCInterpolatedVarEntry@?$CInterpolatedVarArray@M$03@@@@@@AAEXH@Z 24037de0 f i c_baseanimating.obj
 0001:00036e80       ?LinkBefore@?$CUtlFixedLinkedList@UCInterpolatedVarEntry@?$CInterpolatedVarArray@M$03@@@@QAEXHH@Z 24037e80 f i c_baseanimating.obj
 0001:00036ed0       ?LinkAfter@?$CUtlFixedLinkedList@UCInterpolatedVarEntry@?$CInterpolatedVarArray@M$03@@@@QAEXHH@Z 24037ed0 f i c_baseanimating.obj
 0001:00036f30       ??_G?$CInterpolatedVarArray@M$0BI@@@UAEPAXI@Z 24037f30 f i c_baseanimating.obj
 0001:00036f30       ??_E?$CInterpolatedVarArray@M$0BI@@@UAEPAXI@Z 24037f30 f i c_baseanimating.obj
 0001:00036f60       ??_G?$CInterpolatedVarArray@M$03@@UAEPAXI@Z 24037f60 f i c_baseanimating.obj
 0001:00036f60       ??_E?$CInterpolatedVarArray@M$03@@UAEPAXI@Z 24037f60 f i c_baseanimating.obj
 0001:00036f90       ?ControlMouth@C_BaseAnimating@@UAEXXZ 24037f90 f   c_baseanimating.obj
 0001:00037070       ?PostDataUpdate@C_BaseAnimating@@UAEXW4DataUpdateType_t@@@Z 24038070 f   c_baseanimating.obj
 0001:00037140       ?ForceClientSideAnimationOn@C_BaseAnimating@@QAEXXZ 24038140 f   c_baseanimating.obj
 0001:00037180       ?AddToTail@?$CUtlLinkedList@PAVC_RopeKeyframe@@G@@QAEGABQAVC_RopeKeyframe@@@Z 24038180 f i c_baseanimating.obj
 0001:000371f0       ?NoteChanged@?$CInterpolatedVarArray@M$0BI@@@UAEXM@Z 240381f0 f i c_baseanimating.obj
 0001:00037210       ?NoteChanged@?$CInterpolatedVarArray@M$0BI@@@QAEXMM@Z 24038210 f i c_baseanimating.obj
 0001:00037260       ?RemoveOldEntries@?$CInterpolatedVarArray@M$0BI@@@IAEXM@Z 24038260 f i c_baseanimating.obj
 0001:000373f0       ?Copy@?$CInterpolatedVarArray@M$0BI@@@UAEXPAVIInterpolatedVar@@@Z 240383f0 f i c_baseanimating.obj
 0001:00037860       ?InsertBefore@?$CUtlFixedLinkedList@UCInterpolatedVarEntry@?$CInterpolatedVarArray@M$0BI@@@@@QAEHHABUCInterpolatedVarEntry@?$CInterpolatedVarArray@M$0BI@@@@Z 24038860 f i c_baseanimating.obj
 0001:00037900       ?NoteChanged@?$CInterpolatedVarArray@M$03@@UAEXM@Z 24038900 f i c_baseanimating.obj
 0001:00037920       ?NoteChanged@?$CInterpolatedVarArray@M$03@@QAEXMM@Z 24038920 f i c_baseanimating.obj
 0001:00037980       ?RemoveOldEntries@?$CInterpolatedVarArray@M$03@@IAEXM@Z 24038980 f i c_baseanimating.obj
 0001:00037b10       ?Copy@?$CInterpolatedVarArray@M$03@@UAEXPAVIInterpolatedVar@@@Z 24038b10 f i c_baseanimating.obj
 0001:00037f10       ?InsertBefore@?$CUtlFixedLinkedList@UCInterpolatedVarEntry@?$CInterpolatedVarArray@M$03@@@@QAEHHABUCInterpolatedVarEntry@?$CInterpolatedVarArray@M$03@@@Z 24038f10 f i c_baseanimating.obj
 0001:00037fc0       ??0C_BaseAnimating@@QAE@XZ 24038fc0 f   c_baseanimating.obj
 0001:00038320       ?InitRopes@C_BaseAnimating@@QAEXXZ 24039320 f   c_baseanimating.obj
 0001:00038430       ?OnNewModel@C_BaseAnimating@@UAEPAUstudiohdr_t@@XZ 24039430 f   c_baseanimating.obj
 0001:00038640       ?Interpolate@?$CInterpolatedVarArray@M$0BI@@@UAEXM@Z 24039640 f i c_baseanimating.obj
 0001:00038660       ?Interpolate@?$CInterpolatedVarArray@M$0BI@@@QAEXMM@Z 24039660 f i c_baseanimating.obj
 0001:000387a0       ?_Extrapolate@?$CInterpolatedVarArray@M$0BI@@@IAEXPAMPAUCInterpolatedVarEntry@1@1MM@Z 240397a0 f i c_baseanimating.obj
 0001:00038870       ?_Interpolate@?$CInterpolatedVarArray@M$0BI@@@IAEXPAMMPAUCInterpolatedVarEntry@1@1@Z 24039870 f i c_baseanimating.obj
 0001:00038910       ?_Interpolate_Hermite@?$CInterpolatedVarArray@M$0BI@@@IAEXPAMMPAUCInterpolatedVarEntry@1@11_N@Z 24039910 f i c_baseanimating.obj
 0001:000389f0       ?TimeFixup2_Hermite@?$CInterpolatedVarArray@M$0BI@@@IAEXAAUCInterpolatedVarEntry@1@AAPAU21@1M@Z 240399f0 f i c_baseanimating.obj
 0001:00038a90       ?GetInterpolationInfo@?$CInterpolatedVarArray@M$0BI@@@IAE_NPAVCInterpolationInfo@1@MM@Z 24039a90 f i c_baseanimating.obj
 0001:00038cf0       ?RemoveEntriesPreviousTo@?$CInterpolatedVarArray@M$0BI@@@IAEXM@Z 24039cf0 f i c_baseanimating.obj
 0001:00038fa0       ?SafeNext@?$CInterpolatedVarArray@M$0BI@@@IAEHH@Z 24039fa0 f i c_baseanimating.obj
 0001:00038fd0       ?Interpolate@?$CInterpolatedVarArray@M$03@@UAEXM@Z 24039fd0 f i c_baseanimating.obj
 0001:00038ff0       ?Interpolate@?$CInterpolatedVarArray@M$03@@QAEXMM@Z 24039ff0 f i c_baseanimating.obj
 0001:00039130       ?_Extrapolate@?$CInterpolatedVarArray@M$03@@IAEXPAMPAUCInterpolatedVarEntry@1@1MM@Z 2403a130 f i c_baseanimating.obj
 0001:000391e0       ?_Interpolate@?$CInterpolatedVarArray@M$03@@IAEXPAMMPAUCInterpolatedVarEntry@1@1@Z 2403a1e0 f i c_baseanimating.obj
 0001:00039270       ?_Interpolate_Hermite@?$CInterpolatedVarArray@M$03@@IAEXPAMMPAUCInterpolatedVarEntry@1@11_N@Z 2403a270 f i c_baseanimating.obj
 0001:00039380       ?TimeFixup2_Hermite@?$CInterpolatedVarArray@M$03@@IAEXAAUCInterpolatedVarEntry@1@AAPAU21@1M@Z 2403a380 f i c_baseanimating.obj
 0001:00039420       ?GetInterpolationInfo@?$CInterpolatedVarArray@M$03@@IAE_NPAVCInterpolationInfo@1@MM@Z 2403a420 f i c_baseanimating.obj
 0001:00039680       ?RemoveEntriesPreviousTo@?$CInterpolatedVarArray@M$03@@IAEXM@Z 2403a680 f i c_baseanimating.obj
 0001:00039920       ?SafeNext@?$CInterpolatedVarArray@M$03@@IAEHH@Z 2403a920 f i c_baseanimating.obj
 0001:00039950       ?StandardBlendingRules@C_BaseAnimating@@UAEXQAVVector@@QAVQuaternion@@MH@Z 2403a950 f   c_baseanimating.obj
 0001:00039b90       ??_GCIKContext@@QAEPAXI@Z  2403ab90 f i c_baseanimating.obj
 0001:00039bc0       ?ResetLatched@C_BaseAnimating@@UAEXXZ 2403abc0 f   c_baseanimating.obj
 0001:00039c10       ??1C_BaseAnimating@@UAE@XZ 2403ac10 f   c_baseanimating.obj
 0001:00039d50       ??0C_ClientRagdoll@@QAE@_N@Z 2403ad50 f   c_baseanimating.obj
 0001:00039e00       ?ShouldSavePhysics@C_ClientRagdoll@@UAE_NXZ 2403ae00 f i c_baseanimating.obj
 0001:00039e10       ?ObjectCaps@C_ClientRagdoll@@UAEHXZ 2403ae10 f i c_baseanimating.obj
 0001:00039e20       ?GetPVSNotifyInterface@C_ClientRagdoll@@UAEPAVIPVSNotify@@XZ 2403ae20 f i c_baseanimating.obj
 0001:00039e40       ?Release@C_ClientRagdoll@@W3AEXXZ 2403ae40 f i c_baseanimating.obj
 0001:00039e50       ??_EC_BaseAnimating@@UAEPAXI@Z 2403ae50 f i c_baseanimating.obj
 0001:00039e50       ??_GC_BaseAnimating@@UAEPAXI@Z 2403ae50 f i c_baseanimating.obj
 0001:00039e70       ?BecomeRagdollOnClient@C_BaseAnimating@@UAEPAV1@_N@Z 2403ae70 f   c_baseanimating.obj
 0001:0003a290       ??0Cclient_ragdollFoo@@QAE@XZ 2403b290 f i c_baseanimating.obj
 0001:0003a2c0       ??_EC_ClientRagdoll@@UAEPAXI@Z 2403b2c0 f i c_baseanimating.obj
 0001:0003a2c0       ??_GC_ClientRagdoll@@UAEPAXI@Z 2403b2c0 f i c_baseanimating.obj
 0001:0003a2e0       ??$ClientClassInit@Uignored@DT_Animationlayer@@@@YAHPAUignored@DT_Animationlayer@@@Z 2403b2e0 f   c_baseanimatingoverlay.obj
 0001:0003a3b0       ?GetClassName@C_BaseAnimatingOverlay@@UAEPBDXZ 2403b3b0 f   c_baseanimatingoverlay.obj
 0001:0003a3c0       ?YouForgotToImplementOrDeclareClientClass@C_BaseAnimatingOverlay@@UAEHXZ 2403b3c0 f   c_baseanimatingoverlay.obj
 0001:0003a3d0       ?GetClientClass@C_BaseAnimatingOverlay@@UAEPAVClientClass@@XZ 2403b3d0 f   c_baseanimatingoverlay.obj
 0001:0003a3e0       ??$ClientClassInit@Uignored@DT_BaseAnimatingOverlay@@@@YAHPAUignored@DT_BaseAnimatingOverlay@@@Z 2403b3e0 f   c_baseanimatingoverlay.obj
 0001:0003a470       ?GetPredDescMap@C_BaseAnimatingOverlay@@UAEPAUdatamap_t@@XZ 2403b470 f   c_baseanimatingoverlay.obj
 0001:0003a480       ??$PredMapInit@VC_BaseAnimatingOverlay@@@@YAPAUdatamap_t@@PAVC_BaseAnimatingOverlay@@@Z 2403b480 f   c_baseanimatingoverlay.obj
 0001:0003a4a0       ?Count@?$CUtlVector@V?$CInterpolatedVar@VC_AnimationLayer@@@@V?$CUtlMemory@V?$CInterpolatedVar@VC_AnimationLayer@@@@@@@@QBEHXZ 2403b4a0 f i c_baseanimatingoverlay.obj
 0001:0003a4b0       ?SetLooping@?$CInterpolatedVarArray@VC_AnimationLayer@@$00@@QAEX_NH@Z 2403b4b0 f i c_baseanimatingoverlay.obj
 0001:0003a4c0       ?InvalidIndex@?$CUtlFixedLinkedList@UCInterpolatedVarEntry@?$CInterpolatedVarArray@VC_AnimationLayer@@$00@@@@SAHXZ 2403b4c0 f i c_baseanimatingoverlay.obj
 0001:0003a4d0       ??0?$CUtlMemory@V?$CInterpolatedVar@VC_AnimationLayer@@@@@@QAE@HH@Z 2403b4d0 f i c_baseanimatingoverlay.obj
 0001:0003a510       ?Base@?$CUtlMemory@V?$CInterpolatedVar@VC_AnimationLayer@@@@@@QAEPAV?$CInterpolatedVar@VC_AnimationLayer@@@@XZ 2403b510 f i c_baseanimatingoverlay.obj
 0001:0003a520       ??$Destruct@V?$CInterpolatedVar@VC_AnimationLayer@@@@@@YAXPAV?$CInterpolatedVar@VC_AnimationLayer@@@@@Z 2403b520 f i c_baseanimatingoverlay.obj
 0001:0003a530       ??$UtlVector_InitializeAllocatedElements@VC_AnimationLayer@@@@YAXPAVC_AnimationLayer@@H@Z 2403b530 f i c_baseanimatingoverlay.obj
 0001:0003a550       ??4IInterpolatedVar@@QAEAAV0@ABV0@@Z 2403b550 f i c_baseanimatingoverlay.obj
 0001:0003a560       ?ConstructList@?$CUtlFixedLinkedList@UCInterpolatedVarEntry@?$CInterpolatedVarArray@VC_AnimationLayer@@$00@@@@IAEXXZ 2403b560 f i c_baseanimatingoverlay.obj
 0001:0003a580       ??A?$CUtlFixedMemory@UListElem_t@?$CUtlFixedLinkedList@UCInterpolatedVarEntry@?$CInterpolatedVarArray@VC_AnimationLayer@@$00@@@@@@QBEABUListElem_t@?$CUtlFixedLinkedList@UCInterpolatedVarEntry@?$CInterpolatedVarArray@VC_AnimationLayer@@$00@@@@H@Z 2403b580 f i c_baseanimatingoverlay.obj
 0001:0003a590       ??A?$CUtlFixedMemory@UListElem_t@?$CUtlFixedLinkedList@UCInterpolatedVarEntry@?$CInterpolatedVarArray@VC_AnimationLayer@@$00@@@@@@QAEAAUListElem_t@?$CUtlFixedLinkedList@UCInterpolatedVarEntry@?$CInterpolatedVarArray@VC_AnimationLayer@@$00@@@@H@Z 2403b590 f i c_baseanimatingoverlay.obj
 0001:0003a5a0       ??$Destruct@UCInterpolatedVarEntry@?$CInterpolatedVarArray@VC_AnimationLayer@@$00@@@@YAXPAUCInterpolatedVarEntry@?$CInterpolatedVarArray@VC_AnimationLayer@@$00@@@Z 2403b5a0 f i c_baseanimatingoverlay.obj
 0001:0003a5b0       ?NumAllocated@?$CUtlMemory@V?$CInterpolatedVar@VC_AnimationLayer@@@@@@QBEHXZ 2403b5b0 f i c_baseanimatingoverlay.obj
 0001:0003a5c0       ?IsExternallyAllocated@?$CUtlMemory@V?$CInterpolatedVar@VC_AnimationLayer@@@@@@QBE_NXZ 2403b5c0 f i c_baseanimatingoverlay.obj
 0001:0003a5d0       ?Element@?$CUtlFixedLinkedList@UCInterpolatedVarEntry@?$CInterpolatedVarArray@VC_AnimationLayer@@$00@@@@QAEAAUCInterpolatedVarEntry@?$CInterpolatedVarArray@VC_AnimationLayer@@$00@@H@Z 2403b5d0 f i c_baseanimatingoverlay.obj
 0001:0003a5e0       ?IsValidIndex@?$CUtlFixedLinkedList@UCInterpolatedVarEntry@?$CInterpolatedVarArray@VC_AnimationLayer@@$00@@@@QBE_NH@Z 2403b5e0 f i c_baseanimatingoverlay.obj
 0001:0003a600       ?Purge@?$CUtlFixedMemory@UListElem_t@?$CUtlFixedLinkedList@UCInterpolatedVarEntry@?$CInterpolatedVarArray@VC_AnimationLayer@@$00@@@@@@QAEXXZ 2403b600 f i c_baseanimatingoverlay.obj
 0001:0003a640       ?FirstElement@?$CUtlFixedMemory@UListElem_t@?$CUtlFixedLinkedList@UCInterpolatedVarEntry@?$CInterpolatedVarArray@VC_AnimationLayer@@$00@@@@@@QAEHXZ 2403b640 f i c_baseanimatingoverlay.obj
 0001:0003a650       ?NextElement@?$CUtlFixedMemory@UListElem_t@?$CUtlFixedLinkedList@UCInterpolatedVarEntry@?$CInterpolatedVarArray@VC_AnimationLayer@@$00@@@@@@QAEHH@Z 2403b650 f i c_baseanimatingoverlay.obj
 0001:0003a6a0       ?SetupFreeList@?$CUtlFixedMemory@UListElem_t@?$CUtlFixedLinkedList@UCInterpolatedVarEntry@?$CInterpolatedVarArray@VC_AnimationLayer@@$00@@@@@@AAEXPAUBlockHeader_t@1@@Z 2403b6a0 f i c_baseanimatingoverlay.obj
 0001:0003a6e0       ?Count@?$CUtlVector@UVarMapEntry_t@@V?$CUtlMemory@UVarMapEntry_t@@@@@@QBEHXZ 2403b6e0 f i c_baseanimatingoverlay.obj
 0001:0003a6f0       ?GetNumAnimOverlays@C_BaseAnimatingOverlay@@QBEHXZ 2403b6f0 f   c_baseanimatingoverlay.obj
 0001:0003a700       ?ShiftElementsLeft@?$CUtlVector@UVarMapEntry_t@@V?$CUtlMemory@UVarMapEntry_t@@@@@@IAEXHH@Z 2403b700 f i c_baseanimatingoverlay.obj
 0001:0003a740       ?Base@?$CUtlVector@V?$CInterpolatedVar@VC_AnimationLayer@@@@V?$CUtlMemory@V?$CInterpolatedVar@VC_AnimationLayer@@@@@@@@QAEPAV?$CInterpolatedVar@VC_AnimationLayer@@@@XZ 2403b740 f i c_baseanimatingoverlay.obj
 0001:0003a750       ?ResetDbgInfo@?$CUtlVector@V?$CInterpolatedVar@VC_AnimationLayer@@@@V?$CUtlMemory@V?$CInterpolatedVar@VC_AnimationLayer@@@@@@@@IAEXXZ 2403b750 f i c_baseanimatingoverlay.obj
 0001:0003a760       ??A?$CUtlFixedLinkedList@UCInterpolatedVarEntry@?$CInterpolatedVarArray@VC_AnimationLayer@@$00@@@@QAEAAUCInterpolatedVarEntry@?$CInterpolatedVarArray@VC_AnimationLayer@@$00@@H@Z 2403b760 f i c_baseanimatingoverlay.obj
 0001:0003a770       ??4?$CInterpolatedVarArray@VC_AnimationLayer@@$00@@QAEAAV0@ABV0@@Z 2403b770 f i c_baseanimatingoverlay.obj
 0001:0003a7c0       ?InternalElement@?$CUtlFixedLinkedList@UCInterpolatedVarEntry@?$CInterpolatedVarArray@VC_AnimationLayer@@$00@@@@IAEAAUListElem_t@1@H@Z 2403b7c0 f i c_baseanimatingoverlay.obj
 0001:0003a7d0       ?InternalElement@?$CUtlFixedLinkedList@UCInterpolatedVarEntry@?$CInterpolatedVarArray@VC_AnimationLayer@@$00@@@@IBEABUListElem_t@1@H@Z 2403b7d0 f i c_baseanimatingoverlay.obj
 0001:0003a7e0       ?EnsureCapacity@?$CUtlMemory@VC_AnimationLayer@@@@QAEXH@Z 2403b7e0 f i c_baseanimatingoverlay.obj
 0001:0003a820       ?Purge@?$CUtlMemory@V?$CInterpolatedVar@VC_AnimationLayer@@@@@@QAEXXZ 2403b820 f i c_baseanimatingoverlay.obj
 0001:0003a850       ??0?$CUtlFixedMemory@UListElem_t@?$CUtlFixedLinkedList@UCInterpolatedVarEntry@?$CInterpolatedVarArray@VC_AnimationLayer@@$00@@@@@@QAE@HH@Z 2403b850 f i c_baseanimatingoverlay.obj
 0001:0003a8e0       ??1?$CUtlFixedMemory@UListElem_t@?$CUtlFixedLinkedList@UCInterpolatedVarEntry@?$CInterpolatedVarArray@VC_AnimationLayer@@$00@@@@@@QAE@XZ 2403b8e0 f i c_baseanimatingoverlay.obj
 0001:0003a8f0       ?Grow@?$CUtlMemory@V?$CInterpolatedVar@VC_AnimationLayer@@@@@@QAEXH@Z 2403b8f0 f i c_baseanimatingoverlay.obj
 0001:0003a970       ?RemoveAll@?$CUtlFixedMemory@UListElem_t@?$CUtlFixedLinkedList@UCInterpolatedVarEntry@?$CInterpolatedVarArray@VC_AnimationLayer@@$00@@@@@@QAEXXZ 2403b970 f i c_baseanimatingoverlay.obj
 0001:0003a9c0       ?Previous@?$CUtlFixedLinkedList@UCInterpolatedVarEntry@?$CInterpolatedVarArray@VC_AnimationLayer@@$00@@@@QBEHH@Z 2403b9c0 f i c_baseanimatingoverlay.obj
 0001:0003a9d0       ??A?$CUtlVector@UVarMapEntry_t@@V?$CUtlMemory@UVarMapEntry_t@@@@@@QAEAAUVarMapEntry_t@@H@Z 2403b9d0 f i c_baseanimatingoverlay.obj
 0001:0003a9e0       ?Remove@?$CUtlVector@UVarMapEntry_t@@V?$CUtlMemory@UVarMapEntry_t@@@@@@QAEXH@Z 2403b9e0 f i c_baseanimatingoverlay.obj
 0001:0003aa20       ??A?$CUtlVector@V?$CInterpolatedVar@VC_AnimationLayer@@@@V?$CUtlMemory@V?$CInterpolatedVar@VC_AnimationLayer@@@@@@@@QAEAAV?$CInterpolatedVar@VC_AnimationLayer@@@@H@Z 2403ba20 f i c_baseanimatingoverlay.obj
 0001:0003aa40       ?Element@?$CUtlVector@V?$CInterpolatedVar@VC_AnimationLayer@@@@V?$CUtlMemory@V?$CInterpolatedVar@VC_AnimationLayer@@@@@@@@QAEAAV?$CInterpolatedVar@VC_AnimationLayer@@@@H@Z 2403ba40 f i c_baseanimatingoverlay.obj
 0001:0003aa60       ?EnsureCapacity@?$CUtlVector@VC_AnimationLayer@@V?$CUtlMemory@VC_AnimationLayer@@@@@@QAEXH@Z 2403ba60 f i c_baseanimatingoverlay.obj
 0001:0003aab0       ?ShiftElementsLeft@?$CUtlVector@V?$CInterpolatedVar@VC_AnimationLayer@@@@V?$CUtlMemory@V?$CInterpolatedVar@VC_AnimationLayer@@@@@@@@IAEXHH@Z 2403bab0 f i c_baseanimatingoverlay.obj
 0001:0003ab00       ??1?$CUtlMemory@V?$CInterpolatedVar@VC_AnimationLayer@@@@@@QAE@XZ 2403bb00 f i c_baseanimatingoverlay.obj
 0001:0003ab30       ??0?$CUtlFixedLinkedList@UCInterpolatedVarEntry@?$CInterpolatedVarArray@VC_AnimationLayer@@$00@@@@QAE@HH@Z 2403bb30 f i c_baseanimatingoverlay.obj
 0001:0003ab60       ?Next@?$CUtlFixedLinkedList@UCInterpolatedVarEntry@?$CInterpolatedVarArray@VC_AnimationLayer@@$00@@@@QBEHH@Z 2403bb60 f i c_baseanimatingoverlay.obj
 0001:0003ab70       ??4?$CInterpolatedVar@VC_AnimationLayer@@@@QAEAAV0@ABV0@@Z 2403bb70 f i c_baseanimatingoverlay.obj
 0001:0003abc0       ?RemoveAll@?$CUtlVector@V?$CInterpolatedVar@VC_AnimationLayer@@@@V?$CUtlMemory@V?$CInterpolatedVar@VC_AnimationLayer@@@@@@@@QAEXXZ 2403bbc0 f i c_baseanimatingoverlay.obj
 0001:0003ac00       ?GrowVector@?$CUtlVector@V?$CInterpolatedVar@VC_AnimationLayer@@@@V?$CUtlMemory@V?$CInterpolatedVar@VC_AnimationLayer@@@@@@@@IAEXH@Z 2403bc00 f i c_baseanimatingoverlay.obj
 0001:0003ac30       ?ShiftElementsRight@?$CUtlVector@V?$CInterpolatedVar@VC_AnimationLayer@@@@V?$CUtlMemory@V?$CInterpolatedVar@VC_AnimationLayer@@@@@@@@IAEXHH@Z 2403bc30 f i c_baseanimatingoverlay.obj
 0001:0003ac80       ?RemoveAll@?$CUtlFixedLinkedList@UCInterpolatedVarEntry@?$CInterpolatedVarArray@VC_AnimationLayer@@$00@@@@QAEXXZ 2403bc80 f i c_baseanimatingoverlay.obj
 0001:0003acb0       ?IsInList@?$CUtlFixedLinkedList@UCInterpolatedVarEntry@?$CInterpolatedVarArray@VC_AnimationLayer@@$00@@@@QBE_NH@Z 2403bcb0 f i c_baseanimatingoverlay.obj
 0001:0003acd0       ?RemoveVar@C_BaseAnimatingOverlay@@QAEXPAX@Z 2403bcd0 f i c_baseanimatingoverlay.obj
 0001:0003ad40       ?GetAnimOverlay@C_BaseAnimatingOverlay@@QAEPAVC_AnimationLayer@@H@Z 2403bd40 f   c_baseanimatingoverlay.obj
 0001:0003ad50       ?GetRenderBounds@C_BaseAnimatingOverlay@@UAEXAAVVector@@0@Z 2403bd50 f   c_baseanimatingoverlay.obj
 0001:0003ae30       ?RemoveMultiple@?$CUtlVector@VC_AnimationLayer@@V?$CUtlMemory@VC_AnimationLayer@@@@@@QAEXHH@Z 2403be30 f i c_baseanimatingoverlay.obj
 0001:0003ae80       ??0?$CUtlVector@V?$CInterpolatedVar@VC_AnimationLayer@@@@V?$CUtlMemory@V?$CInterpolatedVar@VC_AnimationLayer@@@@@@@@QAE@HH@Z 2403be80 f i c_baseanimatingoverlay.obj
 0001:0003aed0       ?RemoveMultiple@?$CUtlVector@V?$CInterpolatedVar@VC_AnimationLayer@@@@V?$CUtlMemory@V?$CInterpolatedVar@VC_AnimationLayer@@@@@@@@QAEXHH@Z 2403bed0 f i c_baseanimatingoverlay.obj
 0001:0003af70       ?EnsureCapacity@?$UtlVectorTemplate@VC_AnimationLayer@@V?$CUtlMemory@VC_AnimationLayer@@@@@@SAXPAXHH@Z 2403bf70 f i c_baseanimatingoverlay.obj
 0001:0003afc0       ?InsertMultipleBefore@?$CUtlVector@VC_AnimationLayer@@V?$CUtlMemory@VC_AnimationLayer@@@@@@QAEHHHPBVC_AnimationLayer@@@Z 2403bfc0 f i c_baseanimatingoverlay.obj
 0001:0003b190       ?Purge@?$CUtlVector@V?$CInterpolatedVar@VC_AnimationLayer@@@@V?$CUtlMemory@V?$CInterpolatedVar@VC_AnimationLayer@@@@@@@@QAEXXZ 2403c190 f i c_baseanimatingoverlay.obj
 0001:0003b1d0       ??1?$CUtlFixedLinkedList@UCInterpolatedVarEntry@?$CInterpolatedVarArray@VC_AnimationLayer@@$00@@@@QAE@XZ 2403c1d0 f i c_baseanimatingoverlay.obj
 0001:0003b200       ?Unlink@?$CUtlFixedLinkedList@UCInterpolatedVarEntry@?$CInterpolatedVarArray@VC_AnimationLayer@@$00@@@@QAEXH@Z 2403c200 f i c_baseanimatingoverlay.obj
 0001:0003b260       ?AddMultipleToTail@?$CUtlVector@VC_AnimationLayer@@V?$CUtlMemory@VC_AnimationLayer@@@@@@QAEHHPBVC_AnimationLayer@@@Z 2403c260 f i c_baseanimatingoverlay.obj
 0001:0003b280       ??1?$CUtlVector@V?$CInterpolatedVar@VC_AnimationLayer@@@@V?$CUtlMemory@V?$CInterpolatedVar@VC_AnimationLayer@@@@@@@@QAE@XZ 2403c280 f i c_baseanimatingoverlay.obj
 0001:0003b2e0       ??$GetEnsureCapacityTemplate@VC_AnimationLayer@@V?$CUtlMemory@VC_AnimationLayer@@@@@@YAP6AXPAXHH@ZAAV?$CUtlVector@VC_AnimationLayer@@V?$CUtlMemory@VC_AnimationLayer@@@@@@@Z 2403c2e0 f i c_baseanimatingoverlay.obj
 0001:0003b2f0       ?Free@?$CUtlFixedLinkedList@UCInterpolatedVarEntry@?$CInterpolatedVarArray@VC_AnimationLayer@@$00@@@@QAEXH@Z 2403c2f0 f i c_baseanimatingoverlay.obj
 0001:0003b310       ?AddVar@C_BaseAnimatingOverlay@@QAEXPAXPAVIInterpolatedVar@@H_N@Z 2403c310 f i c_baseanimatingoverlay.obj
 0001:0003b380       ??0C_BaseAnimatingOverlay@@QAE@XZ 2403c380 f   c_baseanimatingoverlay.obj
 0001:0003b410       ?GetVarMapping@C_BaseAnimatingOverlay@@UAEPAUVarMapping_t@@XZ 2403c410 f i c_baseanimatingoverlay.obj
 0001:0003b480       ?SetNumAnimOverlays@C_BaseAnimatingOverlay@@QAEXH@Z 2403c480 f   c_baseanimatingoverlay.obj
 0001:0003b4c0       ?VarHistory@?$CInterpolatedVarArray@VC_AnimationLayer@@$00@@KAAAV?$CUtlFixedLinkedList@UCInterpolatedVarEntry@?$CInterpolatedVarArray@VC_AnimationLayer@@$00@@@@XZ 2403c4c0 f i c_baseanimatingoverlay.obj
 0001:0003b520       ?ClearHistory@?$CInterpolatedVarArray@VC_AnimationLayer@@$00@@QAEXXZ 2403c520 f i c_baseanimatingoverlay.obj
 0001:0003b6a0       ?GetInterpolationInfo@?$CInterpolatedVarArray@VC_AnimationLayer@@$00@@IAE_NPAVCInterpolationInfo@1@MM@Z 2403c6a0 f i c_baseanimatingoverlay.obj
 0001:0003b900       ??0?$CInterpolatedVarArray@VC_AnimationLayer@@$00@@QAE@PBD@Z 2403c900 f i c_baseanimatingoverlay.obj
 0001:0003b980       ?Setup@?$CInterpolatedVarArray@VC_AnimationLayer@@$00@@UAEXPAXH@Z 2403c980 f i c_baseanimatingoverlay.obj
 0001:0003b9a0       ?SetInterpolationAmount@?$CInterpolatedVarArray@VC_AnimationLayer@@$00@@UAEXM@Z 2403c9a0 f i c_baseanimatingoverlay.obj
 0001:0003b9b0       ?GetType@?$CInterpolatedVarArray@VC_AnimationLayer@@$00@@UBEHXZ 2403c9b0 f i c_baseanimatingoverlay.obj
 0001:0003b9c0       ?RestoreToLastNetworked@?$CInterpolatedVarArray@VC_AnimationLayer@@$00@@UAEXXZ 2403c9c0 f i c_baseanimatingoverlay.obj
 0001:0003b9e0       ??_GC_BaseAnimatingOverlay@@UAEPAXI@Z 2403c9e0 f i c_baseanimatingoverlay.obj
 0001:0003b9e0       ??_EC_BaseAnimatingOverlay@@UAEPAXI@Z 2403c9e0 f i c_baseanimatingoverlay.obj
 0001:0003ba00       ??1C_BaseAnimatingOverlay@@UAE@XZ 2403ca00 f i c_baseanimatingoverlay.obj
 0001:0003ba30       ??1?$CInterpolatedVarArray@VC_AnimationLayer@@$00@@UAE@XZ 2403ca30 f i c_baseanimatingoverlay.obj
 0001:0003ba40       ?Reset@?$CInterpolatedVarArray@VC_AnimationLayer@@$00@@UAEXXZ 2403ca40 f i c_baseanimatingoverlay.obj
 0001:0003baa0       ?AddToHead@?$CInterpolatedVarArray@VC_AnimationLayer@@$00@@QAEXMPBVC_AnimationLayer@@_N@Z 2403caa0 f i c_baseanimatingoverlay.obj
 0001:0003bec0       ?Alloc@?$CUtlFixedLinkedList@UCInterpolatedVarEntry@?$CInterpolatedVarArray@VC_AnimationLayer@@$00@@@@QAEH_N@Z 2403cec0 f i c_baseanimatingoverlay.obj
 0001:0003bef0       ?AllocInternal@?$CUtlFixedLinkedList@UCInterpolatedVarEntry@?$CInterpolatedVarArray@VC_AnimationLayer@@$00@@@@IAEH_N@Z 2403cef0 f i c_baseanimatingoverlay.obj
 0001:0003bf60       ?Grow@?$CUtlFixedMemory@UListElem_t@?$CUtlFixedLinkedList@UCInterpolatedVarEntry@?$CInterpolatedVarArray@VC_AnimationLayer@@$00@@@@@@AAEXH@Z 2403cf60 f i c_baseanimatingoverlay.obj
 0001:0003c000       ?LinkBefore@?$CUtlFixedLinkedList@UCInterpolatedVarEntry@?$CInterpolatedVarArray@VC_AnimationLayer@@$00@@@@QAEXHH@Z 2403d000 f i c_baseanimatingoverlay.obj
 0001:0003c050       ?LinkAfter@?$CUtlFixedLinkedList@UCInterpolatedVarEntry@?$CInterpolatedVarArray@VC_AnimationLayer@@$00@@@@QAEXHH@Z 2403d050 f i c_baseanimatingoverlay.obj
 0001:0003c0b0       ?GetHistoryValue@?$CInterpolatedVarArray@VC_AnimationLayer@@$00@@QAEPAVC_AnimationLayer@@HAAMH@Z 2403d0b0 f i c_baseanimatingoverlay.obj
 0001:0003c0f0       ?GetInterpolationInfo@?$CInterpolatedVarArray@VC_AnimationLayer@@$00@@QAE_NMPAH00@Z 2403d0f0 f i c_baseanimatingoverlay.obj
 0001:0003c140       ??_E?$CInterpolatedVarArray@VC_AnimationLayer@@$00@@UAEPAXI@Z 2403d140 f i c_baseanimatingoverlay.obj
 0001:0003c140       ??_G?$CInterpolatedVarArray@VC_AnimationLayer@@$00@@UAEPAXI@Z 2403d140 f i c_baseanimatingoverlay.obj
 0001:0003c170       ??0?$CInterpolatedVar@VC_AnimationLayer@@@@QAE@PBD@Z 2403d170 f i c_baseanimatingoverlay.obj
 0001:0003c190       ?CheckForLayerChanges@C_BaseAnimatingOverlay@@QAEXPAUstudiohdr_t@@M@Z 2403d190 f   c_baseanimatingoverlay.obj
 0001:0003c570       ?AccumulateLayers@C_BaseAnimatingOverlay@@UAEXPAUstudiohdr_t@@QAVVector@@QAVQuaternion@@QAMMH@Z 2403d570 f   c_baseanimatingoverlay.obj
 0001:0003c720       ?DoAnimationEvents@C_BaseAnimatingOverlay@@UAEXXZ 2403d720 f   c_baseanimatingoverlay.obj
 0001:0003c9b0       ?NoteChanged@?$CInterpolatedVarArray@VC_AnimationLayer@@$00@@UAEXM@Z 2403d9b0 f i c_baseanimatingoverlay.obj
 0001:0003c9d0       ?NoteChanged@?$CInterpolatedVarArray@VC_AnimationLayer@@$00@@QAEXMM@Z 2403d9d0 f i c_baseanimatingoverlay.obj
 0001:0003ca20       ?RemoveOldEntries@?$CInterpolatedVarArray@VC_AnimationLayer@@$00@@IAEXM@Z 2403da20 f i c_baseanimatingoverlay.obj
 0001:0003cbb0       ?Copy@?$CInterpolatedVarArray@VC_AnimationLayer@@$00@@UAEXPAVIInterpolatedVar@@@Z 2403dbb0 f i c_baseanimatingoverlay.obj
 0001:0003cf90       ?InsertBefore@?$CUtlFixedLinkedList@UCInterpolatedVarEntry@?$CInterpolatedVarArray@VC_AnimationLayer@@$00@@@@QAEHHABUCInterpolatedVarEntry@?$CInterpolatedVarArray@VC_AnimationLayer@@$00@@@Z 2403df90 f i c_baseanimatingoverlay.obj
 0001:0003d030       ??$Construct@V?$CInterpolatedVar@VC_AnimationLayer@@@@@@YAXPAV?$CInterpolatedVar@VC_AnimationLayer@@@@@Z 2403e030 f i c_baseanimatingoverlay.obj
 0001:0003d050       ??_E?$CInterpolatedVar@VC_AnimationLayer@@@@UAEPAXI@Z 2403e050 f i c_baseanimatingoverlay.obj
 0001:0003d050       ??_G?$CInterpolatedVar@VC_AnimationLayer@@@@UAEPAXI@Z 2403e050 f i c_baseanimatingoverlay.obj
 0001:0003d080       ?InsertMultipleBefore@?$CUtlVector@V?$CInterpolatedVar@VC_AnimationLayer@@@@V?$CUtlMemory@V?$CInterpolatedVar@VC_AnimationLayer@@@@@@@@QAEHHHPBV?$CInterpolatedVar@VC_AnimationLayer@@@@@Z 2403e080 f i c_baseanimatingoverlay.obj
 0001:0003d180       ?AddMultipleToTail@?$CUtlVector@V?$CInterpolatedVar@VC_AnimationLayer@@@@V?$CUtlMemory@V?$CInterpolatedVar@VC_AnimationLayer@@@@@@@@QAEHHPBV?$CInterpolatedVar@VC_AnimationLayer@@@@@Z 2403e180 f i c_baseanimatingoverlay.obj
 0001:0003d1a0       ?Interpolate@?$CInterpolatedVarArray@VC_AnimationLayer@@$00@@UAEXM@Z 2403e1a0 f i c_baseanimatingoverlay.obj
 0001:0003d1c0       ?Interpolate@?$CInterpolatedVarArray@VC_AnimationLayer@@$00@@QAEXMM@Z 2403e1c0 f i c_baseanimatingoverlay.obj
 0001:0003d300       ?_Extrapolate@?$CInterpolatedVarArray@VC_AnimationLayer@@$00@@IAEXPAVC_AnimationLayer@@PAUCInterpolatedVarEntry@1@1MM@Z 2403e300 f i c_baseanimatingoverlay.obj
 0001:0003d390       ?_Interpolate@?$CInterpolatedVarArray@VC_AnimationLayer@@$00@@IAEXPAVC_AnimationLayer@@MPAUCInterpolatedVarEntry@1@1@Z 2403e390 f i c_baseanimatingoverlay.obj
 0001:0003d530       ?Lerp_Clamp@@YAXAAVC_AnimationLayer@@@Z 2403e530 f i c_baseanimatingoverlay.obj
 0001:0003d5e0       ?Lerp@@YA?AVC_AnimationLayer@@MABV1@0@Z 2403e5e0 f i c_baseanimatingoverlay.obj
 0001:0003d650       ?_Interpolate_Hermite@?$CInterpolatedVarArray@VC_AnimationLayer@@$00@@IAEXPAVC_AnimationLayer@@MPAUCInterpolatedVarEntry@1@11_N@Z 2403e650 f i c_baseanimatingoverlay.obj
 0001:0003d820       ?Lerp_Hermite@@YA?AVC_AnimationLayer@@MABV1@00@Z 2403e820 f i c_baseanimatingoverlay.obj
 0001:0003d8b0       ??$Lerp_Hermite@V?$CRangeCheckedVar@M$0?1$01$0A@@@@@YA?AV?$CRangeCheckedVar@M$0?1$01$0A@@@MABV0@00@Z 2403e8b0 f i c_baseanimatingoverlay.obj
 0001:0003d920       ?TimeFixup2_Hermite@?$CInterpolatedVarArray@VC_AnimationLayer@@$00@@IAEXAAUCInterpolatedVarEntry@1@AAPAU21@1M@Z 2403e920 f i c_baseanimatingoverlay.obj
 0001:0003da20       ?RemoveEntriesPreviousTo@?$CInterpolatedVarArray@VC_AnimationLayer@@$00@@IAEXM@Z 2403ea20 f i c_baseanimatingoverlay.obj
 0001:0003dcc0       ?SafeNext@?$CInterpolatedVarArray@VC_AnimationLayer@@$00@@IAEHH@Z 2403ecc0 f i c_baseanimatingoverlay.obj
 0001:0003dcf0       ?ResizeAnimationLayerCallback@@YAXPAXHH@Z 2403ecf0 f   c_baseanimatingoverlay.obj
 0001:0003de60       ??$ClientClassInit@Uignored@DT_OverlayVars@@@@YAHPAUignored@DT_OverlayVars@@@Z 2403ee60 f   c_baseanimatingoverlay.obj
 0001:0003df20       ??1C_BaseCombatCharacter@@UAE@XZ 2403ef20 f   c_basecombatcharacter.obj
 0001:0003df40       ?GetClassName@C_BaseCombatCharacter@@UAEPBDXZ 2403ef40 f   c_basecombatcharacter.obj
 0001:0003df50       ?YouForgotToImplementOrDeclareClientClass@C_BaseCombatCharacter@@UAEHXZ 2403ef50 f   c_basecombatcharacter.obj
 0001:0003df60       ?GetClientClass@C_BaseCombatCharacter@@UAEPAVClientClass@@XZ 2403ef60 f   c_basecombatcharacter.obj
 0001:0003df70       ??$ClientClassInit@Uignored@DT_BCCLocalPlayerExclusive@@@@YAHPAUignored@DT_BCCLocalPlayerExclusive@@@Z 2403ef70 f   c_basecombatcharacter.obj
 0001:0003e030       ??$ClientClassInit@Uignored@DT_BaseCombatCharacter@@@@YAHPAUignored@DT_BaseCombatCharacter@@@Z 2403f030 f   c_basecombatcharacter.obj
 0001:0003e0d0       ?GetPredDescMap@C_BaseCombatCharacter@@UAEPAUdatamap_t@@XZ 2403f0d0 f   c_basecombatcharacter.obj
 0001:0003e0e0       ??$PredMapInit@VC_BaseCombatCharacter@@@@YAPAUdatamap_t@@PAVC_BaseCombatCharacter@@@Z 2403f0e0 f   c_basecombatcharacter.obj
 0001:0003e100       ?Count@NetworkVar_m_iAmmo@C_BaseCombatCharacter@@QBEHXZ 2403f100 f i c_basecombatcharacter.obj
 0001:0003e110       ??_GC_BaseCombatCharacter@@UAEPAXI@Z 2403f110 f i c_basecombatcharacter.obj
 0001:0003e110       ??_EC_BaseCombatCharacter@@UAEPAXI@Z 2403f110 f i c_basecombatcharacter.obj
 0001:0003e150       ??0C_BaseCombatCharacter@@QAE@XZ 2403f150 f   c_basecombatcharacter.obj
 0001:0003e1f0       ?SetDormant@C_BaseCombatWeapon@@UAEX_N@Z 2403f1f0 f   c_basecombatweapon.obj
 0001:0003e230       ?Redraw@C_BaseCombatWeapon@@UAEXXZ 2403f230 f   c_basecombatweapon.obj
 0001:0003e250       ?ViewModelDrawn@C_BaseCombatWeapon@@UAEXPAVC_BaseViewModel@@@Z 2403f250 f   c_basecombatweapon.obj
 0001:0003e260       ?ShouldDrawPickup@C_BaseCombatWeapon@@UAE_NXZ 2403f260 f   c_basecombatweapon.obj
 0001:0003e270       ??B?$CNetworkVarBase@HVNetworkVar_m_iWorldModelIndex@C_BaseCombatWeapon@@@@QBE?BHXZ 2403f270 f i c_basecombatweapon.obj
 0001:0003e280       ?GetLocalPlayer@C_BasePlayer@@SAPAV1@XZ 2403f280 f i c_basecombatweapon.obj
 0001:0003e290       ?SetColor@Color@@QAEXHHHH@Z 2403f290 f i c_basecombatweapon.obj
 0001:0003e2b0       ??AColor@@QAEAAEH@Z        2403f2b0 f i c_basecombatweapon.obj
 0001:0003e2c0       ??B?$CNetworkVarBase@HVNetworkVar_m_iState@C_BaseCombatWeapon@@@@QBE?BHXZ 2403f2c0 f i c_basecombatweapon.obj
 0001:0003e2d0       ?GetActiveWeapon@@YAPAVC_BaseCombatWeapon@@XZ 2403f2d0 f   c_basecombatweapon.obj
 0001:0003e2f0       ?OnRestore@C_BaseCombatWeapon@@UAEXXZ 2403f2f0 f   c_basecombatweapon.obj
 0001:0003e320       ?IsCarriedByLocalPlayer@C_BaseCombatWeapon@@UAE_NXZ 2403f320 f   c_basecombatweapon.obj
 0001:0003e350       ?IsActiveByLocalPlayer@C_BaseCombatWeapon@@UAE_NXZ 2403f350 f   c_basecombatweapon.obj
 0001:0003e380       ?GetShootPosition@C_BaseCombatWeapon@@QAE_NAAVVector@@AAVQAngle@@@Z 2403f380 f   c_basecombatweapon.obj
 0001:0003e4a0       ?ShouldDraw@C_BaseCombatWeapon@@UAE_NXZ 2403f4a0 f   c_basecombatweapon.obj
 0001:0003e520       ?DrawModel@C_BaseCombatWeapon@@UAEHH@Z 2403f520 f   c_basecombatweapon.obj
 0001:0003e650       ??7?$CHandle@VC_BaseCombatCharacter@@@@QBE_NXZ 2403f650 f i c_basecombatweapon.obj
 0001:0003e690       ??C?$CHandle@VC_BaseCombatCharacter@@@@QBEPAVC_BaseCombatCharacter@@XZ 2403f690 f i c_basecombatweapon.obj
 0001:0003e6c0       ??0Color@@QAE@HHHH@Z       2403f6c0 f i c_basecombatweapon.obj
 0001:0003e6e0       ?IsBeingCarried@C_BaseCombatWeapon@@QBE_NXZ 2403f6e0 f   c_basecombatweapon.obj
 0001:0003e720       ?IsCarrierAlive@C_BaseCombatWeapon@@QBE_NXZ 2403f720 f   c_basecombatweapon.obj
 0001:0003e7a0       ?ShadowCastType@C_BaseCombatWeapon@@UAE?AW4ShadowType_t@@XZ 2403f7a0 f   c_basecombatweapon.obj
 0001:0003e800       ?DrawCrosshair@C_BaseCombatWeapon@@UAEXXZ 2403f800 f   c_basecombatweapon.obj
 0001:0003e990       ?OnDataChanged@C_BaseCombatWeapon@@UAEXW4DataUpdateType_t@@@Z 2403f990 f   c_basecombatweapon.obj
 0001:0003ea80       ?NotifyShouldTransmit@C_BaseCombatWeapon@@UAEXW4ShouldTransmitState_t@@@Z 2403fa80 f   c_basecombatweapon.obj
 0001:0003eac0       ?GetClassName@C_BaseDoor@@UAEPBDXZ 2403fac0 f   c_basedoor.obj
 0001:0003ead0       ?YouForgotToImplementOrDeclareClientClass@C_BaseDoor@@UAEHXZ 2403fad0 f   c_basedoor.obj
 0001:0003eae0       ?GetClientClass@C_BaseDoor@@UAEPAVClientClass@@XZ 2403fae0 f   c_basedoor.obj
 0001:0003eaf0       ??$ClientClassInit@Uignored@DT_BaseDoor@@@@YAHPAUignored@DT_BaseDoor@@@Z 2403faf0 f   c_basedoor.obj
 0001:0003eb80       ??0C_BaseDoor@@QAE@XZ      2403fb80 f   c_basedoor.obj
 0001:0003ebc0       ??1C_BaseDoor@@UAE@XZ      2403fbc0 f   c_basedoor.obj
 0001:0003ec40       ??_EC_BaseDoor@@UAEPAXI@Z  2403fc40 f i c_basedoor.obj
 0001:0003ec40       ??_GC_BaseDoor@@UAEPAXI@Z  2403fc40 f i c_basedoor.obj
 0001:0003ec80       ??0IPredictableList@@QAE@XZ 2403fc80 f i c_baseentity.obj
 0001:0003ed00       ?RecvProxy_AnimTime@@YAXPBVCRecvProxyData@@PAX1@Z 2403fd00 f   c_baseentity.obj
 0001:0003ed90       ?RecvProxy_SimulationTime@@YAXPBVCRecvProxyData@@PAX1@Z 2403fd90 f   c_baseentity.obj
 0001:0003ee20       ?GetClassName@C_BaseEntity@@UAEPBDXZ 2403fe20 f   c_baseentity.obj
 0001:0003ee30       ?YouForgotToImplementOrDeclareClientClass@C_BaseEntity@@UAEHXZ 2403fe30 f   c_baseentity.obj
 0001:0003ee40       ?GetClientClass@C_BaseEntity@@UAEPAVClientClass@@XZ 2403fe40 f   c_baseentity.obj
 0001:0003ee50       ?RecvProxy_EffectFlags@@YAXPBVCRecvProxyData@@PAX1@Z 2403fe50 f   c_baseentity.obj
 0001:0003ee70       ??$ClientClassInit@Uignored@DT_AnimTimeMustBeFirst@@@@YAHPAUignored@DT_AnimTimeMustBeFirst@@@Z 2403fe70 f   c_baseentity.obj
 0001:0003eed0       ??$ClientClassInit@Uignored@DT_PredictableId@@@@YAHPAUignored@DT_PredictableId@@@Z 2403fed0 f   c_baseentity.obj
 0001:0003ef50       ?GetPredDescMap@C_BaseEntity@@UAEPAUdatamap_t@@XZ 2403ff50 f   c_baseentity.obj
 0001:0003ef60       ??$PredMapInit@VC_BaseEntity@@@@YAPAUdatamap_t@@PAVC_BaseEntity@@@Z 2403ff60 f   c_baseentity.obj
 0001:0003ef80       ?SetAbsQueriesValid@C_BaseEntity@@SAX_N@Z 2403ff80 f   c_baseentity.obj
 0001:0003ef90       ?IsAbsQueriesValid@C_BaseEntity@@SA_NXZ 2403ff90 f   c_baseentity.obj
 0001:0003efa0       ?EnableAbsRecomputations@C_BaseEntity@@SAX_N@Z 2403ffa0 f   c_baseentity.obj
 0001:0003efb0       ?IsAbsRecomputationsEnabled@C_BaseEntity@@SA_NXZ 2403ffb0 f   c_baseentity.obj
 0001:0003efc0       ?GetTextureFrameIndex@C_BaseEntity@@QAEHXZ 2403ffc0 f   c_baseentity.obj
 0001:0003efd0       ?SetTextureFrameIndex@C_BaseEntity@@QAEXH@Z 2403ffd0 f   c_baseentity.obj
 0001:0003efe0       ??8Vector@@QBE_NABV0@@Z    2403ffe0 f i c_baseentity.obj
 0001:0003f020       ??0NetworkVar_m_Collision@C_BaseEntity@@QAE@XZ 24040020 f i c_baseentity.obj
 0001:0003f040       ??1NetworkVar_m_Collision@C_BaseEntity@@QAE@XZ 24040040 f i c_baseentity.obj
 0001:0003f050       ??0IClientNetworkable@@QAE@XZ 24040050 f i c_baseentity.obj
 0001:0003f060       ??0IClientThinkable@@QAE@XZ 24040060 f i c_baseentity.obj
 0001:0003f070       ?Spawn@C_BaseEntity@@UAEXXZ 24040070 f   c_baseentity.obj
 0001:0003f080       ?Activate@C_BaseEntity@@UAEXXZ 24040080 f   c_baseentity.obj
 0001:0003f090       ?SpawnClientEntity@C_BaseEntity@@UAEXXZ 24040090 f   c_baseentity.obj
 0001:0003f0a0       ?Precache@C_BaseEntity@@UAEXXZ 240400a0 f   c_baseentity.obj
 0001:0003f0b0       ?DistTo@Vector@@QBEMABV1@@Z 240400b0 f i c_baseentity.obj
 0001:0003f0f0       ?SetRefEHandle@C_BaseEntity@@UAEXABVCBaseHandle@@@Z 240400f0 f   c_baseentity.obj
 0001:0003f100       ?GetRefEHandle@C_BaseEntity@@UBEABVCBaseHandle@@XZ 24040100 f   c_baseentity.obj
 0001:0003f110       ?CreateModelInstance@C_BaseEntity@@QAEXXZ 24040110 f   c_baseentity.obj
 0001:0003f140       ?DestroyModelInstance@C_BaseEntity@@IAEXXZ 24040140 f   c_baseentity.obj
 0001:0003f170       ?SetRemovalFlag@C_BaseEntity@@QAEX_N@Z 24040170 f   c_baseentity.obj
 0001:0003f190       ?HealthFraction@C_BaseEntity@@QBEMXZ 24040190 f   c_baseentity.obj
 0001:0003f210       ?TestCollision@C_BaseEntity@@UAE_NABURay_t@@IAAVCGameTrace@@@Z 24040210 f   c_baseentity.obj
 0001:0003f220       ?TestHitboxes@C_BaseEntity@@UAE_NABURay_t@@IAAVCGameTrace@@@Z 24040220 f   c_baseentity.obj
 0001:0003f230       ?ComputeWorldSpaceSurroundingBox@C_BaseEntity@@UAEXPAVVector@@0@Z 24040230 f   c_baseentity.obj
 0001:0003f240       ?GetDataTableBasePtr@C_BaseEntity@@UAEPAXXZ 24040240 f   c_baseentity.obj
 0001:0003f250       ?GetShadowCastDistance@C_BaseEntity@@UBE_NPAMW4ShadowType_t@@@Z 24040250 f   c_baseentity.obj
 0001:0003f280       ?GetRotationInterpolator@C_BaseEntity@@QAEAAV?$CInterpolatedVar@VQAngle@@@@XZ 24040280 f   c_baseentity.obj
 0001:0003f290       ?GetOriginInterpolator@C_BaseEntity@@QAEAAV?$CInterpolatedVar@VVector@@@@XZ 24040290 f   c_baseentity.obj
 0001:0003f2a0       ?entindex@C_BaseEntity@@UBEHXZ 240402a0 f   c_baseentity.obj
 0001:0003f2b0       ?GetRenderOrigin@C_BaseEntity@@UAEABVVector@@XZ 240402b0 f   c_baseentity.obj
 0001:0003f2c0       ?GetRenderAngles@C_BaseEntity@@UAEABVQAngle@@XZ 240402c0 f   c_baseentity.obj
 0001:0003f2d0       ?GetPVSNotifyInterface@C_BaseEntity@@UAEPAVIPVSNotify@@XZ 240402d0 f   c_baseentity.obj
 0001:0003f2e0       ?GetRenderBoundsWorldspace@C_BaseEntity@@UAEXAAVVector@@0@Z 240402e0 f   c_baseentity.obj
 0001:0003f300       ?GetShadowRenderBounds@C_BaseEntity@@UAEXAAVVector@@0W4ShadowType_t@@@Z 24040300 f   c_baseentity.obj
 0001:0003f320       ?SetNetworkOrigin@C_BaseEntity@@QAEXABVVector@@@Z 24040320 f   c_baseentity.obj
 0001:0003f350       ?GetNetworkOrigin@C_BaseEntity@@QBEABVVector@@XZ 24040350 f   c_baseentity.obj
 0001:0003f360       ?GetNetworkAngles@C_BaseEntity@@QBEABVQAngle@@XZ 24040360 f   c_baseentity.obj
 0001:0003f370       ?GetModel@C_BaseEntity@@UBEPBUmodel_t@@XZ 24040370 f   c_baseentity.obj
 0001:0003f380       ?GetModelIndex@C_BaseEntity@@QBEHXZ 24040380 f   c_baseentity.obj
 0001:0003f390       ?SetMoveCollide@C_BaseEntity@@QAEXW4MoveCollide_t@@@Z 24040390 f   c_baseentity.obj
 0001:0003f3a0       ?IsTransparent@C_BaseEntity@@UAE_NXZ 240403a0 f   c_baseentity.obj
 0001:0003f3d0       ?UsesFrameBufferTexture@C_BaseEntity@@UAE_NXZ 240403d0 f   c_baseentity.obj
 0001:0003f3e0       ?GetMouth@C_BaseEntity@@UAEPAVCMouthInfo@@XZ 240403e0 f   c_baseentity.obj
 0001:0003f3f0       ?GetAttachment@C_BaseEntity@@UAE_NHAAVVector@@AAVQAngle@@@Z 240403f0 f   c_baseentity.obj
 0001:0003f430       ?DrawBrushModel@C_BaseEntity@@UAEH_N@Z 24040430 f   c_baseentity.obj
 0001:0003f490       ?LODTest@C_BaseEntity@@UAE_NXZ 24040490 f   c_baseentity.obj
 0001:0003f4a0       ?SetupBones@C_BaseEntity@@UAE_NPAUmatrix3x4_t@@HHM@Z 240404a0 f   c_baseentity.obj
 0001:0003f4b0       ?SetupWeights@C_BaseEntity@@UAEXXZ 240404b0 f   c_baseentity.obj
 0001:0003f4c0       ?DoAnimationEvents@C_BaseEntity@@UAEXXZ 240404c0 f   c_baseentity.obj
 0001:0003f4d0       ?MarkMessageReceived@C_BaseEntity@@IAEXXZ 240404d0 f   c_baseentity.obj
 0001:0003f4f0       ?GetOldOrigin@C_BaseEntity@@UAEABVVector@@XZ 240404f0 f   c_baseentity.obj
 0001:0003f500       ??1IHandleEntity@@UAE@XZ   24040500 f i c_baseentity.obj
 0001:0003f510       ??_EIHandleEntity@@UAEPAXI@Z 24040510 f i c_baseentity.obj
 0001:0003f510       ??_GIHandleEntity@@UAEPAXI@Z 24040510 f i c_baseentity.obj
 0001:0003f530       ??0CBaseHandle@@QAE@K@Z    24040530 f i c_baseentity.obj
 0001:0003f540       ?IsValid@CBaseHandle@@QBE_NXZ 24040540 f i c_baseentity.obj
 0001:0003f550       ?ToInt@CBaseHandle@@QBEHXZ 24040550 f i c_baseentity.obj
 0001:0003f560       ??9CBaseHandle@@QBE_NABV0@@Z 24040560 f i c_baseentity.obj
 0001:0003f580       ??8CBaseHandle@@QBE_NABV0@@Z 24040580 f i c_baseentity.obj
 0001:0003f5a0       ?IsSelfAnimating@C_BaseEntity@@UAE_NXZ 240405a0 f   c_baseentity.obj
 0001:0003f5b0       ?GetEFlags@C_BaseEntity@@UBEHXZ 240405b0 f   c_baseentity.obj
 0001:0003f5c0       ?SetEFlags@C_BaseEntity@@UAEXH@Z 240405c0 f   c_baseentity.obj
 0001:0003f5d0       ?BaseInterpolatePart2@C_BaseEntity@@IAEXAAVVector@@AAVQAngle@@H@Z 240405d0 f   c_baseentity.obj
 0001:0003f670       ?OnNewModel@C_BaseEntity@@UAEPAUstudiohdr_t@@XZ 24040670 f   c_baseentity.obj
 0001:0003f680       ?IsSubModel@C_BaseEntity@@UAE_NXZ 24040680 f   c_baseentity.obj
 0001:0003f6c0       ?MoveToLastReceivedPosition@C_BaseEntity@@IAEX_N@Z 240406c0 f   c_baseentity.obj
 0001:0003f700       ?AddEntity@C_BaseEntity@@UAEXXZ 24040700 f   c_baseentity.obj
 0001:0003f710       ?GetAimEntOrigin@C_BaseEntity@@UAEXPAVIClientEntity@@PAVVector@@PAVQAngle@@@Z 24040710 f   c_baseentity.obj
 0001:0003f750       ?GetTextureAnimationStartTime@C_BaseEntity@@UAEMXZ 24040750 f   c_baseentity.obj
 0001:0003f760       ?TextureAnimationWrapped@C_BaseEntity@@UAEXXZ 24040760 f   c_baseentity.obj
 0001:0003f770       ?ClientThink@C_BaseEntity@@UAEXXZ 24040770 f   c_baseentity.obj
 0001:0003f780       ?Simulate@C_BaseEntity@@UAEXXZ 24040780 f   c_baseentity.obj
 0001:0003f790       ?OnPreDataChanged@C_BaseEntity@@UAEXW4DataUpdateType_t@@@Z 24040790 f   c_baseentity.obj
 0001:0003f7a0       ?GetThinkHandle@C_BaseEntity@@UAEPAVCClientThinkHandlePtr@@XZ 240407a0 f   c_baseentity.obj
 0001:0003f7b0       ?SetThinkHandle@C_BaseEntity@@UAEXPAVCClientThinkHandlePtr@@@Z 240407b0 f   c_baseentity.obj
 0001:0003f7c0       ?GetFxBlend@C_BaseEntity@@UAEHXZ 240407c0 f   c_baseentity.obj
 0001:0003f7d0       ?IsBrushModel@C_BaseEntity@@QBE_NXZ 240407d0 f   c_baseentity.obj
 0001:0003f7f0       ?AddBrushModelDecal@C_BaseEntity@@AAEXABURay_t@@ABVVector@@H_NAAVCGameTrace@@@Z 240407f0 f   c_baseentity.obj
 0001:0003f860       ?RemoveAllDecals@C_BaseEntity@@QAEXXZ 24040860 f   c_baseentity.obj
 0001:0003f8b0       ??2C_BaseEntity@@SAPAXI@Z  240408b0 f   c_baseentity.obj
 0001:0003f8e0       ??_UC_BaseEntity@@SAPAXI@Z 240408e0 f   c_baseentity.obj
 0001:0003f910       ??2C_BaseEntity@@SAPAXIHPBDH@Z 24040910 f   c_baseentity.obj
 0001:0003f940       ??_UC_BaseEntity@@SAPAXIHPBDH@Z 24040940 f   c_baseentity.obj
 0001:0003f970       ??3C_BaseEntity@@SAXPAX@Z  24040970 f   c_baseentity.obj
 0001:0003f980       ?GetTeam@C_BaseEntity@@UAEPAVC_Team@@XZ 24040980 f   c_baseentity.obj
 0001:0003f990       ?GetTeamNumber@C_BaseEntity@@UAEHXZ 24040990 f   c_baseentity.obj
 0001:0003f9a0       ?GetRenderTeamNumber@C_BaseEntity@@UAEHXZ 240409a0 f   c_baseentity.obj
 0001:0003f9b0       ?InSameTeam@C_BaseEntity@@UAE_NPAV1@@Z 240409b0 f   c_baseentity.obj
 0001:0003f9f0       ?InLocalTeam@C_BaseEntity@@UAE_NXZ 240409f0 f   c_baseentity.obj
 0001:0003fa10       ?DestroyShadow@C_BaseEntity@@QAEXXZ 24040a10 f   c_baseentity.obj
 0001:0003fa40       ?SetPredictedEntity@C_BaseEntity@@QAEX_N@Z 24040a40 f   c_baseentity.obj
 0001:0003fa50       ?GetLocalOrigin@C_BaseEntity@@UBEABVVector@@XZ 24040a50 f   c_baseentity.obj
 0001:0003fa60       ?GetLocalOriginDim@C_BaseEntity@@QBEMH@Z 24040a60 f   c_baseentity.obj
 0001:0003fa70       ?SetLocalOrigin@C_BaseEntity@@UAEXABVVector@@@Z 24040a70 f   c_baseentity.obj
 0001:0003fae0       ?SetLocalOriginDim@C_BaseEntity@@QAEXHM@Z 24040ae0 f   c_baseentity.obj
 0001:0003fb20       ?GetLocalAngles@C_BaseEntity@@UBEABVQAngle@@XZ 24040b20 f   c_baseentity.obj
 0001:0003fb30       ?GetLocalAnglesDim@C_BaseEntity@@QBEMH@Z 24040b30 f   c_baseentity.obj
 0001:0003fb40       ?SetLocalAngles@C_BaseEntity@@UAEXABVQAngle@@@Z 24040b40 f   c_baseentity.obj
 0001:0003fbb0       ?SetLocalAnglesDim@C_BaseEntity@@QAEXHM@Z 24040bb0 f   c_baseentity.obj
 0001:0003fc00       ?SetLocalVelocity@C_BaseEntity@@QAEXABVVector@@@Z 24040c00 f   c_baseentity.obj
 0001:0003fc70       ?SetLocalAngularVelocity@C_BaseEntity@@QAEXABVQAngle@@@Z 24040c70 f   c_baseentity.obj
 0001:0003fcd0       ?SetLocalTransform@C_BaseEntity@@QAEXABUmatrix3x4_t@@@Z 24040cd0 f   c_baseentity.obj
 0001:0003fd20       ?BoneMergeFastCullBloat@C_BaseEntity@@UBEXAAVVector@@0ABV2@1@Z 24040d20 f   c_baseentity.obj
 0001:0003fdc0       ?GetPredictable@C_BaseEntity@@QBE_NXZ 24040dc0 f   c_baseentity.obj
 0001:0003fdd0       ?PreEntityPacketReceived@C_BaseEntity@@QAEXH@Z 24040dd0 f   c_baseentity.obj
 0001:0003fe20       ?PrecacheModel@C_BaseEntity@@SAHPBD@Z 24040e20 f   c_baseentity.obj
 0001:0003fe40       ?GetPredictionEligible@C_BaseEntity@@QBE_NXZ 24040e40 f   c_baseentity.obj
 0001:0003fe50       ?GetClassname@C_BaseEntity@@QAEPBDXZ 24040e50 f   c_baseentity.obj
 0001:0003fee0       ?CreateEntityByName@@YAPAVC_BaseEntity@@PBD@Z 24040ee0 f   c_baseentity.obj
 0001:0003ff10       ?IsClientCreated@C_BaseEntity@@UBE_NXZ 24040f10 f   c_baseentity.obj
 0001:0003ff20       ?ChangeTeam@C_BaseEntity@@UAEXH@Z 24040f20 f   c_baseentity.obj
 0001:0003ff30       ?SetModelName@C_BaseEntity@@QAEXPBD@Z 24040f30 f   c_baseentity.obj
 0001:0003ff40       ?GetModelName@C_BaseEntity@@QBEPBDXZ 24040f40 f   c_baseentity.obj
 0001:0003ff50       ?SetPredictionEligible@C_BaseEntity@@QAEX_N@Z 24040f50 f   c_baseentity.obj
 0001:0003ff60       ?GetAttackDamageScale@C_BaseEntity@@UAEMXZ 24040f60 f   c_baseentity.obj
 0001:0003ff70       ?IsDormantPredictable@C_BaseEntity@@QBE_NXZ 24040f70 f   c_baseentity.obj
 0001:0003ff80       ?SetDormantPredictable@C_BaseEntity@@QAEX_N@Z 24040f80 f   c_baseentity.obj
 0001:0003ffa0       ?BecameDormantThisPacket@C_BaseEntity@@QBE_NXZ 24040fa0 f   c_baseentity.obj
 0001:0003ffc0       ?IsIntermediateDataAllocated@C_BaseEntity@@QBE_NXZ 24040fc0 f   c_baseentity.obj
 0001:0003ffd0       ?DestroyIntermediateData@C_BaseEntity@@QAEXXZ 24040fd0 f   c_baseentity.obj
 0001:00040030       ?GetPredictedFrame@C_BaseEntity@@QAEPAXH@Z 24041030 f   c_baseentity.obj
 0001:00040060       ?GetOriginalNetworkDataObject@C_BaseEntity@@QAEPAXXZ 24041060 f   c_baseentity.obj
 0001:00040070       ??1IClientUnknown@@UAE@XZ  24041070 f i c_baseentity.obj
 0001:00040080       ??0IClientRenderable@@QAE@XZ 24041080 f i c_baseentity.obj
 0001:00040090       ??0IHandleEntity@@QAE@XZ   24041090 f i c_baseentity.obj
 0001:000400a0       ?ComputePackedSize_R@C_BaseEntity@@AAEHPAUdatamap_t@@@Z 240410a0 f   c_baseentity.obj
 0001:00040170       ?ToggleBBoxVisualization@C_BaseEntity@@QAEXH@Z 24041170 f   c_baseentity.obj
 0001:000401a0       ?SetRenderMode@C_BaseEntity@@QAEXW4RenderMode_t@@_N@Z 240411a0 f   c_baseentity.obj
 0001:000401b0       ?GetRenderGroup@C_BaseEntity@@UAE?AW4RenderGroup_t@@XZ 240411b0 f   c_baseentity.obj
 0001:00040250       ?SaveData@C_BaseEntity@@QAEHPBDHH@Z 24041250 f   c_baseentity.obj
 0001:00040350       ?IsFloating@C_BaseEntity@@QAE_NXZ 24041350 f   c_baseentity.obj
 0001:00040360       ?GetDataDescMap@C_BaseEntity@@UAEPAUdatamap_t@@XZ 24041360 f   c_baseentity.obj
 0001:00040370       ?GetBaseMap@C_BaseEntity@@SAPAUdatamap_t@@XZ 24041370 f   c_baseentity.obj
 0001:00040380       ?ShouldSavePhysics@C_BaseEntity@@UAE_NXZ 24041380 f   c_baseentity.obj
 0001:00040390       ?SaveDataDescBlock@C_BaseEntity@@AAEHAAVISave@@PAUdatamap_t@@@Z 24041390 f   c_baseentity.obj
 0001:000403b0       ?SetClassname@C_BaseEntity@@UAEXPBD@Z 240413b0 f   c_baseentity.obj
 0001:000403c0       ?RestoreDataDescBlock@C_BaseEntity@@AAEHAAVIRestore@@PAUdatamap_t@@@Z 240413c0 f   c_baseentity.obj
 0001:000403e0       ?ObjectCaps@C_BaseEntity@@UAEHXZ 240413e0 f   c_baseentity.obj
 0001:000403f0       ?MyNPCPointer@C_BaseEntity@@QAEPAVC_AI_BaseNPC@@XZ 240413f0 f   c_baseentity.obj
 0001:00040410       ?InvalidIndex@?$CUtlFixedLinkedList@UCInterpolatedVarEntry@?$CInterpolatedVarArray@VVector@@$00@@@@SAHXZ 24041410 f i c_baseentity.obj
 0001:00040420       ?InvalidIndex@?$CUtlFixedLinkedList@UCInterpolatedVarEntry@?$CInterpolatedVarArray@VQAngle@@$00@@@@SAHXZ 24041420 f i c_baseentity.obj
 0001:00040430       ??0?$CApparentVelocity@VVector@@V?$CDefaultCalcDistance@VVector@@@@@@QAE@XZ 24041430 f i c_baseentity.obj
 0001:00040440       ?ClientLeafSystem@@YAPAVIClientLeafSystem@@XZ 24041440 f i c_baseentity.obj
 0001:00040450       ?GetHead@?$CInterpolatedVarArray@VVector@@$00@@QAEHXZ 24041450 f i c_baseentity.obj
 0001:00040460       ??0?$CHandle@VC_BasePlayer@@@@QAE@XZ 24041460 f i c_baseentity.obj
 0001:00040470       ??0CInterpolationContext@@QAE@XZ 24041470 f i c_baseentity.obj
 0001:000404a0       ??1CInterpolationContext@@QAE@XZ 240414a0 f i c_baseentity.obj
 0001:000404c0       ?EnableExtrapolation@CInterpolationContext@@SAX_N@Z 240414c0 f i c_baseentity.obj
 0001:000404d0       ?SetLastTimeStamp@CInterpolationContext@@SAXM@Z 240414d0 f i c_baseentity.obj
 0001:000404e0       ?BoundingRadius@CCollisionProperty@@QBEMXZ 240414e0 f i c_baseentity.obj
 0001:000404f0       ?SetModelInstance@C_BaseEntity@@QAEXG@Z 240414f0 f i c_baseentity.obj
 0001:00040500       ?NetworkStateChanged@NetworkVar_m_bAnimatedEveryTick@C_BaseEntity@@SAXPAX@Z 24041500 f i c_baseentity.obj
 0001:00040510       ?IsServerEntity@C_BaseEntity@@QAE_NXZ 24041510 f i c_baseentity.obj
 0001:00040520       ?Count@?$CUtlVector@VCBaseHandle@@V?$CUtlMemory@VCBaseHandle@@@@@@QBEHXZ 24041520 f i c_baseentity.obj
 0001:00040530       ?Size@?$CUtlVector@VCBaseHandle@@V?$CUtlMemory@VCBaseHandle@@@@@@QBEHXZ 24041530 f i c_baseentity.obj
 0001:00040540       ?InvalidIndex@?$CUtlVector@VCBaseHandle@@V?$CUtlMemory@VCBaseHandle@@@@@@SAHXZ 24041540 f i c_baseentity.obj
 0001:00040550       ?IsPointSized@C_BaseEntity@@QBE_NXZ 24041550 f i c_baseentity.obj
 0001:00040570       ?Count@?$CUtlVector@PAVC_BaseEntity@@V?$CUtlMemory@PAVC_BaseEntity@@@@@@QBEHXZ 24041570 f i c_baseentity.obj
 0001:00040580       ?GetRenderHandle@C_BaseEntity@@QBEGXZ 24041580 f i c_baseentity.obj
 0001:00040590       ?IsInterpolationEnabled@C_BaseEntity@@KA_NXZ 24041590 f i c_baseentity.obj
 0001:000405a0       ?_Derivative_Linear@?$CInterpolatedVarArray@VVector@@$00@@IAEXPAVVector@@PAUCInterpolatedVarEntry@1@1@Z 240415a0 f i c_baseentity.obj
 0001:00040740       ?ConstructList@?$CUtlFixedLinkedList@UCInterpolatedVarEntry@?$CInterpolatedVarArray@VVector@@$00@@@@IAEXXZ 24041740 f i c_baseentity.obj
 0001:00040760       ??A?$CUtlFixedMemory@UListElem_t@?$CUtlFixedLinkedList@UCInterpolatedVarEntry@?$CInterpolatedVarArray@VVector@@$00@@@@@@QBEABUListElem_t@?$CUtlFixedLinkedList@UCInterpolatedVarEntry@?$CInterpolatedVarArray@VVector@@$00@@@@H@Z 24041760 f i c_baseentity.obj
 0001:00040770       ??A?$CUtlFixedMemory@UListElem_t@?$CUtlFixedLinkedList@UCInterpolatedVarEntry@?$CInterpolatedVarArray@VVector@@$00@@@@@@QAEAAUListElem_t@?$CUtlFixedLinkedList@UCInterpolatedVarEntry@?$CInterpolatedVarArray@VVector@@$00@@@@H@Z 24041770 f i c_baseentity.obj
 0001:00040780       ??$Destruct@UCInterpolatedVarEntry@?$CInterpolatedVarArray@VVector@@$00@@@@YAXPAUCInterpolatedVarEntry@?$CInterpolatedVarArray@VVector@@$00@@@Z 24041780 f i c_baseentity.obj
 0001:00040790       ?ConstructList@?$CUtlFixedLinkedList@UCInterpolatedVarEntry@?$CInterpolatedVarArray@VQAngle@@$00@@@@IAEXXZ 24041790 f i c_baseentity.obj
 0001:000407b0       ??A?$CUtlFixedMemory@UListElem_t@?$CUtlFixedLinkedList@UCInterpolatedVarEntry@?$CInterpolatedVarArray@VQAngle@@$00@@@@@@QBEABUListElem_t@?$CUtlFixedLinkedList@UCInterpolatedVarEntry@?$CInterpolatedVarArray@VQAngle@@$00@@@@H@Z 240417b0 f i c_baseentity.obj
 0001:000407c0       ??A?$CUtlFixedMemory@UListElem_t@?$CUtlFixedLinkedList@UCInterpolatedVarEntry@?$CInterpolatedVarArray@VQAngle@@$00@@@@@@QAEAAUListElem_t@?$CUtlFixedLinkedList@UCInterpolatedVarEntry@?$CInterpolatedVarArray@VQAngle@@$00@@@@H@Z 240417c0 f i c_baseentity.obj
 0001:000407d0       ??$Destruct@UCInterpolatedVarEntry@?$CInterpolatedVarArray@VQAngle@@$00@@@@YAXPAUCInterpolatedVarEntry@?$CInterpolatedVarArray@VQAngle@@$00@@@Z 240417d0 f i c_baseentity.obj
 0001:000407e0       ?GetAnimTime@C_BaseEntity@@QBEMXZ 240417e0 f i c_baseentity.obj
 0001:000407f0       ?GetSimulationTime@C_BaseEntity@@QBEMXZ 240417f0 f i c_baseentity.obj
 0001:00040800       ??0?$CUtlMemory@VCBaseHandle@@@@QAE@HH@Z 24041800 f i c_baseentity.obj
 0001:00040840       ?Base@?$CUtlMemory@VCBaseHandle@@@@QAEPAVCBaseHandle@@XZ 24041840 f i c_baseentity.obj
 0001:00040850       ??0?$CUtlMemory@Uthinkfunc_t@@@@QAE@HH@Z 24041850 f i c_baseentity.obj
 0001:00040880       ??0?$CUtlMemory@PAVC_BaseEntity@@@@QAE@HH@Z 24041880 f i c_baseentity.obj
 0001:000408c0       ?Base@?$CUtlMemory@PAVC_BaseEntity@@@@QAEPAPAVC_BaseEntity@@XZ 240418c0 f i c_baseentity.obj
 0001:000408d0       ??$Destruct@PAVC_BaseEntity@@@@YAXPAPAVC_BaseEntity@@@Z 240418d0 f i c_baseentity.obj
 0001:000408e0       ??0?$CUtlMemory@PAE@@QAE@HH@Z 240418e0 f i c_baseentity.obj
 0001:00040920       ?Base@?$CUtlMemory@PAE@@QAEPAPAEXZ 24041920 f i c_baseentity.obj
 0001:00040930       ??0CInterpolatedVarEntry@?$CInterpolatedVarArray@VVector@@$00@@QAE@XZ 24041930 f i c_baseentity.obj
 0001:00040940       ?Element@?$CUtlFixedLinkedList@UCInterpolatedVarEntry@?$CInterpolatedVarArray@VVector@@$00@@@@QAEAAUCInterpolatedVarEntry@?$CInterpolatedVarArray@VVector@@$00@@H@Z 24041940 f i c_baseentity.obj
 0001:00040950       ?IsValidIndex@?$CUtlFixedLinkedList@UCInterpolatedVarEntry@?$CInterpolatedVarArray@VVector@@$00@@@@QBE_NH@Z 24041950 f i c_baseentity.obj
 0001:00040970       ?Purge@?$CUtlFixedMemory@UListElem_t@?$CUtlFixedLinkedList@UCInterpolatedVarEntry@?$CInterpolatedVarArray@VVector@@$00@@@@@@QAEXXZ 24041970 f i c_baseentity.obj
 0001:000409b0       ?FirstElement@?$CUtlFixedMemory@UListElem_t@?$CUtlFixedLinkedList@UCInterpolatedVarEntry@?$CInterpolatedVarArray@VVector@@$00@@@@@@QAEHXZ 240419b0 f i c_baseentity.obj
 0001:000409c0       ?NextElement@?$CUtlFixedMemory@UListElem_t@?$CUtlFixedLinkedList@UCInterpolatedVarEntry@?$CInterpolatedVarArray@VVector@@$00@@@@@@QAEHH@Z 240419c0 f i c_baseentity.obj
 0001:00040a10       ?SetupFreeList@?$CUtlFixedMemory@UListElem_t@?$CUtlFixedLinkedList@UCInterpolatedVarEntry@?$CInterpolatedVarArray@VVector@@$00@@@@@@AAEXPAUBlockHeader_t@1@@Z 24041a10 f i c_baseentity.obj
 0001:00040a40       ?Element@?$CUtlFixedLinkedList@UCInterpolatedVarEntry@?$CInterpolatedVarArray@VQAngle@@$00@@@@QAEAAUCInterpolatedVarEntry@?$CInterpolatedVarArray@VQAngle@@$00@@H@Z 24041a40 f i c_baseentity.obj
 0001:00040a50       ?IsValidIndex@?$CUtlFixedLinkedList@UCInterpolatedVarEntry@?$CInterpolatedVarArray@VQAngle@@$00@@@@QBE_NH@Z 24041a50 f i c_baseentity.obj
 0001:00040a70       ?Purge@?$CUtlFixedMemory@UListElem_t@?$CUtlFixedLinkedList@UCInterpolatedVarEntry@?$CInterpolatedVarArray@VQAngle@@$00@@@@@@QAEXXZ 24041a70 f i c_baseentity.obj
 0001:00040ab0       ?FirstElement@?$CUtlFixedMemory@UListElem_t@?$CUtlFixedLinkedList@UCInterpolatedVarEntry@?$CInterpolatedVarArray@VQAngle@@$00@@@@@@QAEHXZ 24041ab0 f i c_baseentity.obj
 0001:00040ac0       ?NextElement@?$CUtlFixedMemory@UListElem_t@?$CUtlFixedLinkedList@UCInterpolatedVarEntry@?$CInterpolatedVarArray@VQAngle@@$00@@@@@@QAEHH@Z 24041ac0 f i c_baseentity.obj
 0001:00040b10       ?SetupFreeList@?$CUtlFixedMemory@UListElem_t@?$CUtlFixedLinkedList@UCInterpolatedVarEntry@?$CInterpolatedVarArray@VQAngle@@$00@@@@@@AAEXPAUBlockHeader_t@1@@Z 24041b10 f i c_baseentity.obj
 0001:00040b40       ??$CopyConstruct@VCBaseHandle@@@@YAXPAVCBaseHandle@@ABV0@@Z 24041b40 f i c_baseentity.obj
 0001:00040b60       ??$Destruct@VCBaseHandle@@@@YAXPAVCBaseHandle@@@Z 24041b60 f i c_baseentity.obj
 0001:00040b70       ?Base@?$CUtlMemory@VCBaseHandle@@@@QBEPBVCBaseHandle@@XZ 24041b70 f i c_baseentity.obj
 0001:00040b80       ??$CopyConstruct@PAVC_BaseEntity@@@@YAXPAPAVC_BaseEntity@@ABQAV0@@Z 24041b80 f i c_baseentity.obj
 0001:00040ba0       ??$CopyConstruct@PAE@@YAXPAPAEABQAE@Z 24041ba0 f i c_baseentity.obj
 0001:00040bc0       ?NumAllocated@?$CUtlMemory@VCBaseHandle@@@@QBEHXZ 24041bc0 f i c_baseentity.obj
 0001:00040bd0       ?IsExternallyAllocated@?$CUtlMemory@VCBaseHandle@@@@QBE_NXZ 24041bd0 f i c_baseentity.obj
 0001:00040be0       ??$Destruct@Uthinkfunc_t@@@@YAXPAUthinkfunc_t@@@Z 24041be0 f i c_baseentity.obj
 0001:00040bf0       ?NumAllocated@?$CUtlMemory@PAVC_BaseEntity@@@@QBEHXZ 24041bf0 f i c_baseentity.obj
 0001:00040c00       ?IsExternallyAllocated@?$CUtlMemory@PAVC_BaseEntity@@@@QBE_NXZ 24041c00 f i c_baseentity.obj
 0001:00040c10       ??$Destruct@PAE@@YAXPAPAE@Z 24041c10 f i c_baseentity.obj
 0001:00040c20       ?NumAllocated@?$CUtlMemory@PAE@@QBEHXZ 24041c20 f i c_baseentity.obj
 0001:00040c30       ?IsExternallyAllocated@?$CUtlMemory@PAE@@QBE_NXZ 24041c30 f i c_baseentity.obj
 0001:00040c40       ??B?$CNetworkVarBase@_NVNetworkVar_m_bAnimatedEveryTick@C_BaseEntity@@@@QBE?B_NXZ 24041c40 f i c_baseentity.obj
 0001:00040c50       ?NetworkStateChanged@?$CNetworkVarBase@_NVNetworkVar_m_bAnimatedEveryTick@C_BaseEntity@@@@IAEXXZ 24041c50 f i c_baseentity.obj
 0001:00040c60       ?CalcDistance@@YAMABVVector@@0@Z 24041c60 f i c_baseentity.obj
 0001:00040ca0       ?GetPredictableCount@CPredictableList@@UAEHXZ 24041ca0 f   c_baseentity.obj
 0001:00040cb0       ?RecvProxy_LocalVelocity@@YAXPBVCRecvProxyData@@PAX1@Z 24041cb0 f   c_baseentity.obj
 0001:00040d10       ??1IClientEntity@@UAE@XZ   24041d10 f i c_baseentity.obj
 0001:00040d20       ?VPhysicsGetObjectList@C_BaseEntity@@UAEHPAPAVIPhysicsObject@@H@Z 24041d20 f   c_baseentity.obj
 0001:00040d50       ?ShouldDraw@C_BaseEntity@@UAE_NXZ 24041d50 f   c_baseentity.obj
 0001:00040d80       ?ReceiveMessage@C_BaseEntity@@UAEXHAAVbf_read@@@Z 24041d80 f   c_baseentity.obj
 0001:00040da0       ?ShadowCastType@C_BaseEntity@@UAE?AW4ShadowType_t@@XZ 24041da0 f   c_baseentity.obj
 0001:00040dd0       ?GetShadowUseOtherEntity@C_BaseEntity@@UBEPAV1@XZ 24041dd0 f   c_baseentity.obj
 0001:00040e00       ?SetShadowUseOtherEntity@C_BaseEntity@@UAEXPAV1@@Z 24041e00 f   c_baseentity.obj
 0001:00040e30       ?GetSoundSourceIndex@C_BaseEntity@@QBEHXZ 24041e30 f   c_baseentity.obj
 0001:00040e40       ?GetRenderBounds@C_BaseEntity@@UAEXAAVVector@@0@Z 24041e40 f   c_baseentity.obj
 0001:00040f70       ?SetNetworkAngles@C_BaseEntity@@QAEXABVQAngle@@@Z 24041f70 f   c_baseentity.obj
 0001:00040fa0       ?SetMoveType@C_BaseEntity@@QAEXW4MoveType_t@@W4MoveCollide_t@@@Z 24041fa0 f   c_baseentity.obj
 0001:00040fc0       ?GetSoundSpatialization@C_BaseEntity@@UAE_NAAUSpatializationInfo_t@@@Z 24041fc0 f   c_baseentity.obj
 0001:000410e0       ?UpdatePartitionListEntry@C_BaseEntity@@QAEXXZ 240420e0 f   c_baseentity.obj
 0001:00041130       ?CreateLightEffects@C_BaseEntity@@UAEXXZ 24042130 f   c_baseentity.obj
 0001:00041230       ?UpdatePosition@C_BaseEntity@@IAEXXZ 24042230 f   c_baseentity.obj
 0001:000412c0       ?GetColorModulation@C_BaseEntity@@UAEXPAM@Z 240422c0 f   c_baseentity.obj
 0001:00041310       ?SnatchModelInstance@C_BaseEntity@@QAE_NPAV1@@Z 24042310 f   c_baseentity.obj
 0001:00041390       ?SetNextClientThink@C_BaseEntity@@UAEXM@Z 24042390 f   c_baseentity.obj
 0001:000413b0       ?AddToLeafSystem@C_BaseEntity@@QAEXW4RenderGroup_t@@@Z 240423b0 f   c_baseentity.obj
 0001:00041400       ?CreateShadow@C_BaseEntity@@QAEXXZ 24042400 f   c_baseentity.obj
 0001:00041480       ?RemoveFromLeafSystem@C_BaseEntity@@QAEXXZ 24042480 f   c_baseentity.obj
 0001:000414d0       ?IsDormant@C_BaseEntity@@UAE_NXZ 240424d0 f   c_baseentity.obj
 0001:000414e0       ?MarkRenderHandleDirty@C_BaseEntity@@QAEXXZ 240424e0 f   c_baseentity.obj
 0001:00041500       ?PostEntityPacketReceived@C_BaseEntity@@QAEXXZ 24042500 f   c_baseentity.obj
 0001:00041540       ?PostNetworkDataReceived@C_BaseEntity@@QAE_NH@Z 24042540 f   c_baseentity.obj
 0001:00041600       ?SetSize@C_BaseEntity@@QAEXABVVector@@0@Z 24042600 f   c_baseentity.obj
 0001:00041610       ?Instance@C_BaseEntity@@SAPAV1@VCBaseHandle@@@Z 24042610 f   c_baseentity.obj
 0001:00041630       ?Instance@C_BaseEntity@@SAPAV1@H@Z 24042630 f   c_baseentity.obj
 0001:00041650       ?SetOwnerEntity@C_BaseEntity@@QAEXPAV1@@Z 24042650 f   c_baseentity.obj
 0001:00041680       ??0IClientUnknown@@QAE@XZ  24042680 f i c_baseentity.obj
 0001:00041690       ??_GIClientUnknown@@UAEPAXI@Z 24042690 f i c_baseentity.obj
 0001:00041690       ??_EIClientUnknown@@UAEPAXI@Z 24042690 f i c_baseentity.obj
 0001:000416b0       ?ComputePackedOffsets@C_BaseEntity@@AAEXXZ 240426b0 f   c_baseentity.obj
 0001:000416d0       ?GetIntermediateDataSize@C_BaseEntity@@AAEHXZ 240426d0 f   c_baseentity.obj
 0001:00041700       ?FindEntityInFrontOfLocalPlayer@@YAPAVC_BaseEntity@@XZ 24042700 f   c_baseentity.obj
 0001:000418e0       ?DrawBBoxVisualizations@C_BaseEntity@@QAEXXZ 240428e0 f   c_baseentity.obj
 0001:00041a10       ?GetLastChangeTime@C_BaseEntity@@QAEMH@Z 24042a10 f   c_baseentity.obj
 0001:00041a80       ?Save@C_BaseEntity@@UAEHAAVISave@@@Z 24042a80 f   c_baseentity.obj
 0001:00041aa0       ?RemoveRecipientsIfNotCloseCaptioning@C_BaseEntity@@SAXAAVC_RecipientFilter@@@Z 24042aa0 f   c_baseentity.obj
 0001:00041ac0       ?CalcDistance@?$CDefaultCalcDistance@VVector@@@@SAMABVVector@@0@Z 24042ac0 f i c_baseentity.obj
 0001:00041b00       ??7?$CHandle@VC_BaseEntity@@@@QBE_NXZ 24042b00 f i c_baseentity.obj
 0001:00041b40       ??A?$CUtlFixedLinkedList@UCInterpolatedVarEntry@?$CInterpolatedVarArray@VVector@@$00@@@@QAEAAUCInterpolatedVarEntry@?$CInterpolatedVarArray@VVector@@$00@@H@Z 24042b40 f i c_baseentity.obj
 0001:00041b50       ??A?$CUtlFixedLinkedList@UCInterpolatedVarEntry@?$CInterpolatedVarArray@VQAngle@@$00@@@@QAEAAUCInterpolatedVarEntry@?$CInterpolatedVarArray@VQAngle@@$00@@H@Z 24042b50 f i c_baseentity.obj
 0001:00041b60       ?GetSolidFlags@CCollisionProperty@@UBEHXZ 24042b60 f i c_baseentity.obj
 0001:00041b70       ??0PredictionContext@@QAE@XZ 24042b70 f i c_baseentity.obj
 0001:00041b90       ?NetworkStateChanged@NetworkVar_m_Collision@C_BaseEntity@@UAEXXZ 24042b90 f i c_baseentity.obj
 0001:00041ba0       ?Base@?$CUtlVector@VCBaseHandle@@V?$CUtlMemory@VCBaseHandle@@@@@@QAEPAVCBaseHandle@@XZ 24042ba0 f i c_baseentity.obj
 0001:00041bb0       ?InternalElement@?$CUtlFixedLinkedList@UCInterpolatedVarEntry@?$CInterpolatedVarArray@VVector@@$00@@@@IAEAAUListElem_t@1@H@Z 24042bb0 f i c_baseentity.obj
 0001:00041bc0       ?InternalElement@?$CUtlFixedLinkedList@UCInterpolatedVarEntry@?$CInterpolatedVarArray@VVector@@$00@@@@IBEABUListElem_t@1@H@Z 24042bc0 f i c_baseentity.obj
 0001:00041bd0       ?InternalElement@?$CUtlFixedLinkedList@UCInterpolatedVarEntry@?$CInterpolatedVarArray@VQAngle@@$00@@@@IAEAAUListElem_t@1@H@Z 24042bd0 f i c_baseentity.obj
 0001:00041be0       ?InternalElement@?$CUtlFixedLinkedList@UCInterpolatedVarEntry@?$CInterpolatedVarArray@VQAngle@@$00@@@@IBEABUListElem_t@1@H@Z 24042be0 f i c_baseentity.obj
 0001:00041bf0       ?Base@?$CUtlVector@PAVC_BaseEntity@@V?$CUtlMemory@PAVC_BaseEntity@@@@@@QAEPAPAVC_BaseEntity@@XZ 24042bf0 f i c_baseentity.obj
 0001:00041c00       ?Base@?$CUtlVector@PAEV?$CUtlMemory@PAE@@@@QAEPAPAEXZ 24042c00 f i c_baseentity.obj
 0001:00041c10       ??0?$CUtlFixedMemory@UListElem_t@?$CUtlFixedLinkedList@UCInterpolatedVarEntry@?$CInterpolatedVarArray@VVector@@$00@@@@@@QAE@HH@Z 24042c10 f i c_baseentity.obj
 0001:00041c90       ??1?$CUtlFixedMemory@UListElem_t@?$CUtlFixedLinkedList@UCInterpolatedVarEntry@?$CInterpolatedVarArray@VVector@@$00@@@@@@QAE@XZ 24042c90 f i c_baseentity.obj
 0001:00041ca0       ??0?$CUtlFixedMemory@UListElem_t@?$CUtlFixedLinkedList@UCInterpolatedVarEntry@?$CInterpolatedVarArray@VQAngle@@$00@@@@@@QAE@HH@Z 24042ca0 f i c_baseentity.obj
 0001:00041d20       ??1?$CUtlFixedMemory@UListElem_t@?$CUtlFixedLinkedList@UCInterpolatedVarEntry@?$CInterpolatedVarArray@VQAngle@@$00@@@@@@QAE@XZ 24042d20 f i c_baseentity.obj
 0001:00041d30       ?IsSimulatedEveryTick@C_BaseEntity@@QBE_NXZ 24042d30 f i c_baseentity.obj
 0001:00041d40       ?IsAnimatedEveryTick@C_BaseEntity@@QBE_NXZ 24042d40 f i c_baseentity.obj
 0001:00041d50       ?ResetDbgInfo@?$CUtlVector@VCBaseHandle@@V?$CUtlMemory@VCBaseHandle@@@@@@IAEXXZ 24042d50 f i c_baseentity.obj
 0001:00041d60       ?Element@?$CUtlVector@PAVC_BaseEntity@@V?$CUtlMemory@PAVC_BaseEntity@@@@@@QAEAAPAVC_BaseEntity@@H@Z 24042d60 f i c_baseentity.obj
 0001:00041d70       ?ResetDbgInfo@?$CUtlVector@PAVC_BaseEntity@@V?$CUtlMemory@PAVC_BaseEntity@@@@@@IAEXXZ 24042d70 f i c_baseentity.obj
 0001:00041d80       ?ResetDbgInfo@?$CUtlVector@PAEV?$CUtlMemory@PAE@@@@IAEXXZ 24042d80 f i c_baseentity.obj
 0001:00041d90       ?Base@?$CUtlVector@VCBaseHandle@@V?$CUtlMemory@VCBaseHandle@@@@@@QBEPBVCBaseHandle@@XZ 24042d90 f i c_baseentity.obj
 0001:00041da0       ?RemoveAll@?$CUtlFixedMemory@UListElem_t@?$CUtlFixedLinkedList@UCInterpolatedVarEntry@?$CInterpolatedVarArray@VVector@@$00@@@@@@QAEXXZ 24042da0 f i c_baseentity.obj
 0001:00041de0       ?RemoveAll@?$CUtlFixedMemory@UListElem_t@?$CUtlFixedLinkedList@UCInterpolatedVarEntry@?$CInterpolatedVarArray@VQAngle@@$00@@@@@@QAEXXZ 24042de0 f i c_baseentity.obj
 0001:00041e20       ?Element@?$CUtlVector@VCBaseHandle@@V?$CUtlMemory@VCBaseHandle@@@@@@QAEAAVCBaseHandle@@H@Z 24042e20 f i c_baseentity.obj
 0001:00041e30       ?RemoveAll@?$CUtlVector@VCBaseHandle@@V?$CUtlMemory@VCBaseHandle@@@@@@QAEXXZ 24042e30 f i c_baseentity.obj
 0001:00041e40       ?ShiftElementsRight@?$CUtlVector@VCBaseHandle@@V?$CUtlMemory@VCBaseHandle@@@@@@IAEXHH@Z 24042e40 f i c_baseentity.obj
 0001:00041e80       ?ShiftElementsLeft@?$CUtlVector@VCBaseHandle@@V?$CUtlMemory@VCBaseHandle@@@@@@IAEXHH@Z 24042e80 f i c_baseentity.obj
 0001:00041ec0       ?Purge@?$CUtlMemory@VCBaseHandle@@@@QAEXXZ 24042ec0 f i c_baseentity.obj
 0001:00041ef0       ?Purge@?$CUtlMemory@Uthinkfunc_t@@@@QAEXXZ 24042ef0 f i c_baseentity.obj
 0001:00041f20       ?RemoveAll@?$CUtlVector@PAVC_BaseEntity@@V?$CUtlMemory@PAVC_BaseEntity@@@@@@QAEXXZ 24042f20 f i c_baseentity.obj
 0001:00041f30       ?ShiftElementsRight@?$CUtlVector@PAVC_BaseEntity@@V?$CUtlMemory@PAVC_BaseEntity@@@@@@IAEXHH@Z 24042f30 f i c_baseentity.obj
 0001:00041f70       ?Purge@?$CUtlMemory@PAVC_BaseEntity@@@@QAEXXZ 24042f70 f i c_baseentity.obj
 0001:00041fa0       ?Element@?$CUtlVector@PAEV?$CUtlMemory@PAE@@@@QAEAAPAEH@Z 24042fa0 f i c_baseentity.obj
 0001:00041fb0       ?RemoveAll@?$CUtlVector@PAEV?$CUtlMemory@PAE@@@@QAEXXZ 24042fb0 f i c_baseentity.obj
 0001:00041fc0       ?ShiftElementsRight@?$CUtlVector@PAEV?$CUtlMemory@PAE@@@@IAEXHH@Z 24042fc0 f i c_baseentity.obj
 0001:00042000       ?Purge@?$CUtlMemory@PAE@@QAEXXZ 24043000 f i c_baseentity.obj
 0001:00042030       ?TimeFixup2_Hermite@?$CInterpolatedVarArray@VVector@@$00@@IAEXAAUCInterpolatedVarEntry@1@AAPAU21@1M@Z 24043030 f i c_baseentity.obj
 0001:000421a0       ?Previous@?$CUtlFixedLinkedList@UCInterpolatedVarEntry@?$CInterpolatedVarArray@VVector@@$00@@@@QBEHH@Z 240431a0 f i c_baseentity.obj
 0001:000421b0       ?Previous@?$CUtlFixedLinkedList@UCInterpolatedVarEntry@?$CInterpolatedVarArray@VQAngle@@$00@@@@QBEHH@Z 240431b0 f i c_baseentity.obj
 0001:000421c0       ?Grow@?$CUtlMemory@VCBaseHandle@@@@QAEXH@Z 240431c0 f i c_baseentity.obj
 0001:00042230       ?Grow@?$CUtlMemory@PAVC_BaseEntity@@@@QAEXH@Z 24043230 f i c_baseentity.obj
 0001:000422a0       ?Grow@?$CUtlMemory@PAE@@QAEXH@Z 240432a0 f i c_baseentity.obj
 0001:00042310       ?Set@?$CNetworkVarBase@_NVNetworkVar_m_bAnimatedEveryTick@C_BaseEntity@@@@QAEAB_NAB_N@Z 24043310 f i c_baseentity.obj
 0001:00042350       ??$ClientClassInit@Uignored@DT_BaseEntity@@@@YAHPAUignored@DT_BaseEntity@@@Z 24043350 f   c_baseentity.obj
 0001:00042640       ?Interp_RestoreToLastNetworked@C_BaseEntity@@QAEXPAUVarMapping_t@@@Z 24043640 f   c_baseentity.obj
 0001:000426e0       ?Interp_LatchChanges@C_BaseEntity@@QAEXPAUVarMapping_t@@HM@Z 240436e0 f   c_baseentity.obj
 0001:00042740       ?Interp_Reset@C_BaseEntity@@QAEXPAUVarMapping_t@@@Z 24043740 f   c_baseentity.obj
 0001:00042780       ?Interp_Interpolate@C_BaseEntity@@QAEXPAUVarMapping_t@@M@Z 24043780 f   c_baseentity.obj
 0001:00042810       ??0IClientEntity@@QAE@XZ   24043810 f i c_baseentity.obj
 0001:00042850       ??_EIClientEntity@@UAEPAXI@Z 24043850 f i c_baseentity.obj
 0001:00042850       ??_GIClientEntity@@UAEPAXI@Z 24043850 f i c_baseentity.obj
 0001:00042870       ?GetShadowCastDirection@C_BaseEntity@@UBE_NPAVVector@@W4ShadowType_t@@@Z 24043870 f   c_baseentity.obj
 0001:000428e0       ?ShouldReceiveProjectedTextures@C_BaseEntity@@UAE_NH@Z 240438e0 f   c_baseentity.obj
 0001:00042940       ?DrawModel@C_BaseEntity@@UAEHH@Z 24043940 f   c_baseentity.obj
 0001:00042a20       ?PreDataUpdate@C_BaseEntity@@UAEXW4DataUpdateType_t@@@Z 24043a20 f   c_baseentity.obj
 0001:00042b10       ?OnLatchInterpolatedVariables@C_BaseEntity@@UAEXH@Z 24043b10 f   c_baseentity.obj
 0001:00042b40       ?Teleported@C_BaseEntity@@UAE_NXZ 24043b40 f   c_baseentity.obj
 0001:00042bb0       ?IsFollowingEntity@C_BaseEntity@@QAE_NXZ 24043bb0 f   c_baseentity.obj
 0001:00042c00       ?GetFollowedEntity@C_BaseEntity@@QAEPAV1@XZ 24043c00 f   c_baseentity.obj
 0001:00042c70       ?ShouldCollide@C_BaseEntity@@UAE?AW4CollideType_t@@XZ 24043c70 f   c_baseentity.obj
 0001:00042ce0       ?AddStudioDecal@C_BaseEntity@@AAEXABURay_t@@HH_NAAVCGameTrace@@H@Z 24043ce0 f   c_baseentity.obj
 0001:00042e30       ?AddDecal@C_BaseEntity@@UAEXABVVector@@00HH_NAAVCGameTrace@@H@Z 24043e30 f   c_baseentity.obj
 0001:00042f00       ?AddToLeafSystem@C_BaseEntity@@QAEXXZ 24043f00 f   c_baseentity.obj
 0001:00042f50       ?SetAbsOrigin@C_BaseEntity@@QAEXABVVector@@@Z 24043f50 f   c_baseentity.obj
 0001:00043050       ?SetAbsAngles@C_BaseEntity@@QAEXABVQAngle@@@Z 24044050 f   c_baseentity.obj
 0001:000431b0       ?MoveToAimEnt@C_BaseEntity@@AAEXXZ 240441b0 f   c_baseentity.obj
 0001:00043220       ?GetParentToWorldTransform@C_BaseEntity@@QAEAAUmatrix3x4_t@@AAU2@@Z 24044220 f   c_baseentity.obj
 0001:000432d0       ?CalcAbsolutePosition@C_BaseEntity@@AAEXXZ 240442d0 f   c_baseentity.obj
 0001:00043480       ?CalcAbsoluteVelocity@C_BaseEntity@@AAEXXZ 24044480 f   c_baseentity.obj
 0001:00043550       ?ComputeAbsPosition@C_BaseEntity@@QAEXABVVector@@PAV2@@Z 24044550 f   c_baseentity.obj
 0001:000435c0       ?ComputeAbsDirection@C_BaseEntity@@QAEXABVVector@@PAV2@@Z 240445c0 f   c_baseentity.obj
 0001:00043630       ?Remove@C_BaseEntity@@QAEXXZ 24044630 f   c_baseentity.obj
 0001:00043690       ?AllocateIntermediateData@C_BaseEntity@@QAEXXZ 24044690 f   c_baseentity.obj
 0001:00043730       ?SUB_Remove@C_BaseEntity@@UAEXXZ 24044730 f   c_baseentity.obj
 0001:00043760       ?ResetLatched@C_BaseEntity@@UAEXXZ 24044760 f   c_baseentity.obj
 0001:00043850       ?GetInterpolationAmount@C_BaseEntity@@QAEMH@Z 24044850 f   c_baseentity.obj
 0001:000439c0       ?OnSave@C_BaseEntity@@UAEXXZ 240449c0 f   c_baseentity.obj
 0001:000439d0       ?Restore@C_BaseEntity@@UAEHAAVIRestore@@@Z 240449d0 f   c_baseentity.obj
 0001:00043a70       ?AddSample@?$CApparentVelocity@VVector@@V?$CDefaultCalcDistance@VVector@@@@@@QAEMMVVector@@@Z 24044a70 f i c_baseentity.obj
 0001:00043af0       ??0?$CUtlFixedLinkedList@UCInterpolatedVarEntry@?$CInterpolatedVarArray@VVector@@$00@@@@QAE@HH@Z 24044af0 f i c_baseentity.obj
 0001:00043b20       ?Next@?$CUtlFixedLinkedList@UCInterpolatedVarEntry@?$CInterpolatedVarArray@VVector@@$00@@@@QBEHH@Z 24044b20 f i c_baseentity.obj
 0001:00043b30       ??0?$CUtlFixedLinkedList@UCInterpolatedVarEntry@?$CInterpolatedVarArray@VQAngle@@$00@@@@QAE@HH@Z 24044b30 f i c_baseentity.obj
 0001:00043b60       ?Next@?$CUtlFixedLinkedList@UCInterpolatedVarEntry@?$CInterpolatedVarArray@VQAngle@@$00@@@@QBEHH@Z 24044b60 f i c_baseentity.obj
 0001:00043b70       ??A?$CUtlVector@VCBaseHandle@@V?$CUtlMemory@VCBaseHandle@@@@@@QAEAAVCBaseHandle@@H@Z 24044b70 f i c_baseentity.obj
 0001:00043b80       ??A?$CUtlVector@PAVC_BaseEntity@@V?$CUtlMemory@PAVC_BaseEntity@@@@@@QAEAAPAVC_BaseEntity@@H@Z 24044b80 f i c_baseentity.obj
 0001:00043b90       ?FastRemove@?$CUtlVector@PAVC_BaseEntity@@V?$CUtlMemory@PAVC_BaseEntity@@@@@@QAEXH@Z 24044b90 f i c_baseentity.obj
 0001:00043bb0       ??A?$CUtlVector@PAEV?$CUtlMemory@PAE@@@@QAEAAPAEH@Z 24044bb0 f i c_baseentity.obj
 0001:00043bc0       ?RemoveAll@?$CUtlFixedLinkedList@UCInterpolatedVarEntry@?$CInterpolatedVarArray@VVector@@$00@@@@QAEXXZ 24044bc0 f i c_baseentity.obj
 0001:00043bf0       ?RemoveAll@?$CUtlFixedLinkedList@UCInterpolatedVarEntry@?$CInterpolatedVarArray@VQAngle@@$00@@@@QAEXXZ 24044bf0 f i c_baseentity.obj
 0001:00043c20       ?Element@?$CUtlVector@VCBaseHandle@@V?$CUtlMemory@VCBaseHandle@@@@@@QBEABVCBaseHandle@@H@Z 24044c20 f i c_baseentity.obj
 0001:00043c30       ?Remove@?$CUtlVector@VCBaseHandle@@V?$CUtlMemory@VCBaseHandle@@@@@@QAEXH@Z 24044c30 f i c_baseentity.obj
 0001:00043c70       ?Purge@?$CUtlVector@VCBaseHandle@@V?$CUtlMemory@VCBaseHandle@@@@@@QAEXXZ 24044c70 f i c_baseentity.obj
 0001:00043cb0       ??1?$CUtlMemory@VCBaseHandle@@@@QAE@XZ 24044cb0 f i c_baseentity.obj
 0001:00043ce0       ??1?$CUtlMemory@Uthinkfunc_t@@@@QAE@XZ 24044ce0 f i c_baseentity.obj
 0001:00043d10       ?Purge@?$CUtlVector@PAVC_BaseEntity@@V?$CUtlMemory@PAVC_BaseEntity@@@@@@QAEXXZ 24044d10 f i c_baseentity.obj
 0001:00043d50       ??1?$CUtlMemory@PAVC_BaseEntity@@@@QAE@XZ 24044d50 f i c_baseentity.obj
 0001:00043d80       ?Purge@?$CUtlVector@PAEV?$CUtlMemory@PAE@@@@QAEXXZ 24044d80 f i c_baseentity.obj
 0001:00043dc0       ??1?$CUtlMemory@PAE@@QAE@XZ 24044dc0 f i c_baseentity.obj
 0001:00043df0       ?TimeFixup_Hermite@?$CInterpolatedVarArray@VVector@@$00@@IAEXAAUCInterpolatedVarEntry@1@AAPAU21@11@Z 24044df0 f i c_baseentity.obj
 0001:00043e20       ?IsInList@?$CUtlFixedLinkedList@UCInterpolatedVarEntry@?$CInterpolatedVarArray@VVector@@$00@@@@QBE_NH@Z 24044e20 f i c_baseentity.obj
 0001:00043e40       ?IsInList@?$CUtlFixedLinkedList@UCInterpolatedVarEntry@?$CInterpolatedVarArray@VQAngle@@$00@@@@QBE_NH@Z 24044e40 f i c_baseentity.obj
 0001:00043e60       ?GrowVector@?$CUtlVector@VCBaseHandle@@V?$CUtlMemory@VCBaseHandle@@@@@@IAEXH@Z 24044e60 f i c_baseentity.obj
 0001:00043e90       ?RemoveAll@?$CUtlVector@Uthinkfunc_t@@V?$CUtlMemory@Uthinkfunc_t@@@@@@QAEXXZ 24044e90 f i c_baseentity.obj
 0001:00043ea0       ?GrowVector@?$CUtlVector@PAVC_BaseEntity@@V?$CUtlMemory@PAVC_BaseEntity@@@@@@IAEXH@Z 24044ea0 f i c_baseentity.obj
 0001:00043ed0       ?GrowVector@?$CUtlVector@PAEV?$CUtlMemory@PAE@@@@IAEXH@Z 24044ed0 f i c_baseentity.obj
 0001:00043f00       ??4?$CNetworkVarBase@_NVNetworkVar_m_bAnimatedEveryTick@C_BaseEntity@@@@QAEAB_NAB_N@Z 24044f00 f i c_baseentity.obj
 0001:00043f20       ?GetPredictable@CPredictableList@@UAEPAVC_BaseEntity@@H@Z 24044f20 f   c_baseentity.obj
 0001:00043f40       ?Interp_SetupMappings@C_BaseEntity@@QAEXPAUVarMapping_t@@@Z 24044f40 f   c_baseentity.obj
 0001:00043fb0       ?Interp_UpdateInterpolationAmounts@C_BaseEntity@@QAEXPAUVarMapping_t@@@Z 24044fb0 f   c_baseentity.obj
 0001:00044010       ?Interp_HierarchyUpdateInterpolationAmounts@C_BaseEntity@@QAEXXZ 24045010 f   c_baseentity.obj
 0001:00044090       ?Init@C_BaseEntity@@UAE_NHH@Z 24045090 f   c_baseentity.obj
 0001:000440e0       ?GetVectors@C_BaseEntity@@QBEXPAVVector@@00@Z 240450e0 f   c_baseentity.obj
 0001:00044160       ?UpdateVisibility@C_BaseEntity@@QAEXXZ 24045160 f   c_baseentity.obj
 0001:000441d0       ?GetAbsOrigin@C_BaseEntity@@UBEABVVector@@XZ 240451d0 f   c_baseentity.obj
 0001:000441e0       ?GetAbsAngles@C_BaseEntity@@UBEABVQAngle@@XZ 240451e0 f   c_baseentity.obj
 0001:000441f0       ?SetModelPointer@C_BaseEntity@@QAEXPBUmodel_t@@@Z 240451f0 f   c_baseentity.obj
 0001:00044240       ?MarkAimEntsDirty@C_BaseEntity@@SAXXZ 24045240 f   c_baseentity.obj
 0001:00044270       ?CalcAimEntPositions@C_BaseEntity@@SAXXZ 24045270 f   c_baseentity.obj
 0001:000442a0       ?RemoveFromAimEntsList@C_BaseEntity@@QAEXXZ 240452a0 f   c_baseentity.obj
 0001:00044320       ?BaseInterpolatePart1@C_BaseEntity@@IAEHAAMAAVVector@@AAVQAngle@@@Z 24045320 f   c_baseentity.obj
 0001:00044430       ?Interpolate@C_BaseEntity@@UAE_NM@Z 24045430 f   c_baseentity.obj
 0001:000444a0       ?InterpolateServerEntities@C_BaseEntity@@CAXXZ 240454a0 f   c_baseentity.obj
 0001:00044610       ?AddVisibleEntities@C_BaseEntity@@CAXXZ 24045610 f   c_baseentity.obj
 0001:000446a0       ?SetDormant@C_BaseEntity@@UAEX_N@Z 240456a0 f   c_baseentity.obj
 0001:000446c0       ?SetAbsVelocity@C_BaseEntity@@QAEXABVVector@@@Z 240456c0 f   c_baseentity.obj
 0001:000447e0       ?SetPredictable@C_BaseEntity@@QAEX_N@Z 240457e0 f   c_baseentity.obj
 0001:00044800       ?OnRestore@C_BaseEntity@@UAEXXZ 24045800 f   c_baseentity.obj
 0001:00044860       ??1?$CUtlFixedLinkedList@UCInterpolatedVarEntry@?$CInterpolatedVarArray@VVector@@$00@@@@QAE@XZ 24045860 f i c_baseentity.obj
 0001:00044890       ??1?$CUtlFixedLinkedList@UCInterpolatedVarEntry@?$CInterpolatedVarArray@VQAngle@@$00@@@@QAE@XZ 24045890 f i c_baseentity.obj
 0001:000448c0       ??0?$CUtlVector@VCBaseHandle@@V?$CUtlMemory@VCBaseHandle@@@@@@QAE@HH@Z 240458c0 f i c_baseentity.obj
 0001:00044900       ??1?$CUtlVector@VCBaseHandle@@V?$CUtlMemory@VCBaseHandle@@@@@@QAE@XZ 24045900 f i c_baseentity.obj
 0001:00044960       ?Find@?$CUtlVector@VCBaseHandle@@V?$CUtlMemory@VCBaseHandle@@@@@@QBEHABVCBaseHandle@@@Z 24045960 f i c_baseentity.obj
 0001:00044990       ?FindAndRemove@?$CUtlVector@VCBaseHandle@@V?$CUtlMemory@VCBaseHandle@@@@@@QAEXABVCBaseHandle@@@Z 24045990 f i c_baseentity.obj
 0001:000449f0       ??0?$CUtlVector@Uthinkfunc_t@@V?$CUtlMemory@Uthinkfunc_t@@@@@@QAE@HH@Z 240459f0 f i c_baseentity.obj
 0001:00044a30       ??0?$CUtlVector@PAVC_BaseEntity@@V?$CUtlMemory@PAVC_BaseEntity@@@@@@QAE@HH@Z 24045a30 f i c_baseentity.obj
 0001:00044a70       ??1?$CUtlVector@PAVC_BaseEntity@@V?$CUtlMemory@PAVC_BaseEntity@@@@@@QAE@XZ 24045a70 f i c_baseentity.obj
 0001:00044ad0       ??0?$CUtlVector@PAEV?$CUtlMemory@PAE@@@@QAE@HH@Z 24045ad0 f i c_baseentity.obj
 0001:00044b10       ??1?$CUtlVector@PAEV?$CUtlMemory@PAE@@@@QAE@XZ 24045b10 f i c_baseentity.obj
 0001:00044b70       ?_Derivative_Hermite_SmoothVelocity@?$CInterpolatedVarArray@VVector@@$00@@IAEXPAVVector@@MPAUCInterpolatedVarEntry@1@11@Z 24045b70 f i c_baseentity.obj
 0001:00044ea0       ?Unlink@?$CUtlFixedLinkedList@UCInterpolatedVarEntry@?$CInterpolatedVarArray@VVector@@$00@@@@QAEXH@Z 24045ea0 f i c_baseentity.obj
 0001:00044f00       ?Unlink@?$CUtlFixedLinkedList@UCInterpolatedVarEntry@?$CInterpolatedVarArray@VQAngle@@$00@@@@QAEXH@Z 24045f00 f i c_baseentity.obj
 0001:00044f60       ?ClearEffects@C_BaseEntity@@QAEXXZ 24045f60 f i c_baseentity.obj
 0001:00044f70       ?InsertBefore@?$CUtlVector@VCBaseHandle@@V?$CUtlMemory@VCBaseHandle@@@@@@QAEHHABVCBaseHandle@@@Z 24045f70 f i c_baseentity.obj
 0001:00044fe0       ?Purge@?$CUtlVector@Uthinkfunc_t@@V?$CUtlMemory@Uthinkfunc_t@@@@@@QAEXXZ 24045fe0 f i c_baseentity.obj
 0001:00045020       ?InsertBefore@?$CUtlVector@PAVC_BaseEntity@@V?$CUtlMemory@PAVC_BaseEntity@@@@@@QAEHHABQAVC_BaseEntity@@@Z 24046020 f i c_baseentity.obj
 0001:00045090       ?InsertBefore@?$CUtlVector@PAEV?$CUtlMemory@PAE@@@@QAEHHABQAE@Z 24046090 f i c_baseentity.obj
 0001:00045100       ?cc_cl_interp_changed@@YAXPAVConVar@@PBD@Z 24046100 f   c_baseentity.obj
 0001:00045150       ??0CPredictableList@@QAE@XZ 24046150 f i c_baseentity.obj
 0001:00045170       ??1CPredictableList@@QAE@XZ 24046170 f i c_baseentity.obj
 0001:00045180       ?RemoveFromPredictablesList@CPredictableList@@IAEXVCBaseHandle@@@Z 24046180 f   c_baseentity.obj
 0001:00045190       ?Clear@C_BaseEntity@@UAEXXZ 24046190 f   c_baseentity.obj
 0001:00045330       ?Term@C_BaseEntity@@QAEXXZ 24046330 f   c_baseentity.obj
 0001:00045470       ?SetModelIndex@C_BaseEntity@@QAEXH@Z 24046470 f   c_baseentity.obj
 0001:000454d0       ?UnlinkChild@C_BaseEntity@@AAEXPAV1@0@Z 240464d0 f   c_baseentity.obj
 0001:00045620       ?UnlinkFromHierarchy@C_BaseEntity@@AAEXXZ 24046620 f   c_baseentity.obj
 0001:00045730       ?SetModelByIndex@C_BaseEntity@@QAEXH@Z 24046730 f   c_baseentity.obj
 0001:00045740       ?SetModel@C_BaseEntity@@QAE_NPBD@Z 24046740 f   c_baseentity.obj
 0001:00045780       ?ComputeFxBlend@C_BaseEntity@@UAEXXZ 24046780 f   c_baseentity.obj
 0001:00045d40       ?ShutdownPredictable@C_BaseEntity@@QAEXXZ 24046d40 f   c_baseentity.obj
 0001:00045d80       ?UpdateOnRemove@C_BaseEntity@@UAEXXZ 24046d80 f   c_baseentity.obj
 0001:00045da0       ??$DataMapInit@VC_BaseEntity@@@@YAPAUdatamap_t@@PAVC_BaseEntity@@@Z 24046da0 f   c_baseentity.obj
 0001:00045e20       ?Free@?$CUtlFixedLinkedList@UCInterpolatedVarEntry@?$CInterpolatedVarArray@VVector@@$00@@@@QAEXH@Z 24046e20 f i c_baseentity.obj
 0001:00045e40       ?Free@?$CUtlFixedLinkedList@UCInterpolatedVarEntry@?$CInterpolatedVarArray@VQAngle@@$00@@@@QAEXH@Z 24046e40 f i c_baseentity.obj
 0001:00045e60       ?AddVar@C_BaseEntity@@QAEXPAXPAVIInterpolatedVar@@H_N@Z 24046e60 f i c_baseentity.obj
 0001:00045ed0       ?AddToTail@?$CUtlVector@VCBaseHandle@@V?$CUtlMemory@VCBaseHandle@@@@@@QAEHABVCBaseHandle@@@Z 24046ed0 f i c_baseentity.obj
 0001:00045ef0       ??1?$CUtlVector@Uthinkfunc_t@@V?$CUtlMemory@Uthinkfunc_t@@@@@@QAE@XZ 24046ef0 f i c_baseentity.obj
 0001:00045f50       ?AddToTail@?$CUtlVector@PAVC_BaseEntity@@V?$CUtlMemory@PAVC_BaseEntity@@@@@@QAEHABQAVC_BaseEntity@@@Z 24046f50 f i c_baseentity.obj
 0001:00045f70       ?AddToTail@?$CUtlVector@PAEV?$CUtlMemory@PAE@@@@QAEHABQAE@Z 24046f70 f i c_baseentity.obj
 0001:00045f90       ?AddToPredictableList@CPredictableList@@IAEXVCBaseHandle@@@Z 24046f90 f   c_baseentity.obj
 0001:000460f0       ?InitializeAsClientEntityByIndex@C_BaseEntity@@AAE_NHW4RenderGroup_t@@@Z 240470f0 f   c_baseentity.obj
 0001:00046180       ?Release@C_BaseEntity@@UAEXXZ 24047180 f   c_baseentity.obj
 0001:000461d0       ?NotifyShouldTransmit@C_BaseEntity@@UAEXW4ShouldTransmitState_t@@@Z 240471d0 f   c_baseentity.obj
 0001:000462a0       ?AddToAimEntsList@C_BaseEntity@@QAEXXZ 240472a0 f   c_baseentity.obj
 0001:000462d0       ?InitPredictable@C_BaseEntity@@QAEXXZ 240472d0 f   c_baseentity.obj
 0001:00046330       ?CreatePredictedEntityByName@C_BaseEntity@@SAPAV1@PBD0H_N@Z 24047330 f   c_baseentity.obj
 0001:000464a0       ?ShiftIntermediateDataForward@C_BaseEntity@@QAEXHH@Z 240474a0 f   c_baseentity.obj
 0001:000465e0       ?OnPostRestoreData@C_BaseEntity@@AAEXXZ 240475e0 f   c_baseentity.obj
 0001:00046680       ?VarHistory@?$CInterpolatedVarArray@VVector@@$00@@KAAAV?$CUtlFixedLinkedList@UCInterpolatedVarEntry@?$CInterpolatedVarArray@VVector@@$00@@@@XZ 24047680 f i c_baseentity.obj
 0001:000466e0       ?VarHistory@?$CInterpolatedVarArray@VQAngle@@$00@@KAAAV?$CUtlFixedLinkedList@UCInterpolatedVarEntry@?$CInterpolatedVarArray@VQAngle@@$00@@@@XZ 240476e0 f i c_baseentity.obj
 0001:00046740       ?ClearHistory@?$CInterpolatedVarArray@VVector@@$00@@QAEXXZ 24047740 f i c_baseentity.obj
 0001:000468c0       ?GetPrev@?$CInterpolatedVarArray@VVector@@$00@@QBEABVVector@@H@Z 240478c0 f i c_baseentity.obj
 0001:00046910       ?GetHistoryValue@?$CInterpolatedVarArray@VVector@@$00@@QAEPAVVector@@HAAMH@Z 24047910 f i c_baseentity.obj
 0001:00046950       ?GetNext@?$CInterpolatedVarArray@VVector@@$00@@QAEHH@Z 24047950 f i c_baseentity.obj
 0001:00046960       ??0?$CInterpolatedVarArray@VQAngle@@$00@@QAE@PBD@Z 24047960 f i c_baseentity.obj
 0001:000469b0       ?Setup@?$CInterpolatedVarArray@VQAngle@@$00@@UAEXPAXH@Z 240479b0 f i c_baseentity.obj
 0001:000469d0       ?SetInterpolationAmount@?$CInterpolatedVarArray@VQAngle@@$00@@UAEXM@Z 240479d0 f i c_baseentity.obj
 0001:000469e0       ?GetType@?$CInterpolatedVarArray@VQAngle@@$00@@UBEHXZ 240479e0 f i c_baseentity.obj
 0001:000469f0       ?RestoreToLastNetworked@?$CInterpolatedVarArray@VQAngle@@$00@@UAEXXZ 240479f0 f i c_baseentity.obj
 0001:00046a10       ?ClearHistory@?$CInterpolatedVarArray@VQAngle@@$00@@QAEXXZ 24047a10 f i c_baseentity.obj
 0001:00046b90       ?GetPrev@?$CInterpolatedVarArray@VQAngle@@$00@@QBEABVQAngle@@H@Z 24047b90 f i c_baseentity.obj
 0001:00046be0       ??0?$CInterpolatedVarArray@VVector@@$00@@QAE@PBD@Z 24047be0 f i c_baseentity.obj
 0001:00046c30       ?Setup@?$CInterpolatedVarArray@VVector@@$00@@UAEXPAXH@Z 24047c30 f i c_baseentity.obj
 0001:00046c50       ?SetInterpolationAmount@?$CInterpolatedVarArray@VVector@@$00@@UAEXM@Z 24047c50 f i c_baseentity.obj
 0001:00046c60       ?GetType@?$CInterpolatedVarArray@VVector@@$00@@UBEHXZ 24047c60 f i c_baseentity.obj
 0001:00046c70       ?RestoreToLastNetworked@?$CInterpolatedVarArray@VVector@@$00@@UAEXXZ 24047c70 f i c_baseentity.obj
 0001:00046c90       ?IsValidIndex@?$CInterpolatedVarArray@VVector@@$00@@QAE_NH@Z 24047c90 f i c_baseentity.obj
 0001:00046cc0       ?GetInterpolationInfo@?$CInterpolatedVarArray@VVector@@$00@@IAE_NPAVCInterpolationInfo@1@MM@Z 24047cc0 f i c_baseentity.obj
 0001:00046f20       ?SafeNext@?$CInterpolatedVarArray@VVector@@$00@@IAEHH@Z 24047f20 f i c_baseentity.obj
 0001:00046f50       ??1?$CInterpolatedVarArray@VVector@@$00@@UAE@XZ 24047f50 f i c_baseentity.obj
 0001:00046f60       ?Reset@?$CInterpolatedVarArray@VVector@@$00@@UAEXXZ 24047f60 f i c_baseentity.obj
 0001:00046fd0       ?AddToHead@?$CInterpolatedVarArray@VVector@@$00@@QAEXMPBVVector@@_N@Z 24047fd0 f i c_baseentity.obj
 0001:00047400       ??$Construct@UCInterpolatedVarEntry@?$CInterpolatedVarArray@VVector@@$00@@@@YAXPAUCInterpolatedVarEntry@?$CInterpolatedVarArray@VVector@@$00@@@Z 24048400 f i c_baseentity.obj
 0001:00047410       ?AllocInternal@?$CUtlFixedLinkedList@UCInterpolatedVarEntry@?$CInterpolatedVarArray@VVector@@$00@@@@IAEH_N@Z 24048410 f i c_baseentity.obj
 0001:00047480       ?Grow@?$CUtlFixedMemory@UListElem_t@?$CUtlFixedLinkedList@UCInterpolatedVarEntry@?$CInterpolatedVarArray@VVector@@$00@@@@@@AAEXH@Z 24048480 f i c_baseentity.obj
 0001:00047510       ?LinkBefore@?$CUtlFixedLinkedList@UCInterpolatedVarEntry@?$CInterpolatedVarArray@VVector@@$00@@@@QAEXHH@Z 24048510 f i c_baseentity.obj
 0001:00047560       ?LinkAfter@?$CUtlFixedLinkedList@UCInterpolatedVarEntry@?$CInterpolatedVarArray@VVector@@$00@@@@QAEXHH@Z 24048560 f i c_baseentity.obj
 0001:000475c0       ??1?$CInterpolatedVarArray@VQAngle@@$00@@UAE@XZ 240485c0 f i c_baseentity.obj
 0001:000475d0       ?Reset@?$CInterpolatedVarArray@VQAngle@@$00@@UAEXXZ 240485d0 f i c_baseentity.obj
 0001:00047640       ?AddToHead@?$CInterpolatedVarArray@VQAngle@@$00@@QAEXMPBVQAngle@@_N@Z 24048640 f i c_baseentity.obj
 0001:00047a60       ?Alloc@?$CUtlFixedLinkedList@UCInterpolatedVarEntry@?$CInterpolatedVarArray@VQAngle@@$00@@@@QAEH_N@Z 24048a60 f i c_baseentity.obj
 0001:00047a90       ?AllocInternal@?$CUtlFixedLinkedList@UCInterpolatedVarEntry@?$CInterpolatedVarArray@VQAngle@@$00@@@@IAEH_N@Z 24048a90 f i c_baseentity.obj
 0001:00047b00       ?Grow@?$CUtlFixedMemory@UListElem_t@?$CUtlFixedLinkedList@UCInterpolatedVarEntry@?$CInterpolatedVarArray@VQAngle@@$00@@@@@@AAEXH@Z 24048b00 f i c_baseentity.obj
 0001:00047b90       ?LinkBefore@?$CUtlFixedLinkedList@UCInterpolatedVarEntry@?$CInterpolatedVarArray@VQAngle@@$00@@@@QAEXHH@Z 24048b90 f i c_baseentity.obj
 0001:00047be0       ?LinkAfter@?$CUtlFixedLinkedList@UCInterpolatedVarEntry@?$CInterpolatedVarArray@VQAngle@@$00@@@@QAEXHH@Z 24048be0 f i c_baseentity.obj
 0001:00047c40       ??0?$CInterpolatedVar@VQAngle@@@@QAE@PBD@Z 24048c40 f i c_baseentity.obj
 0001:00047c90       ??_G?$CInterpolatedVarArray@VVector@@$00@@UAEPAXI@Z 24048c90 f i c_baseentity.obj
 0001:00047c90       ??_E?$CInterpolatedVarArray@VVector@@$00@@UAEPAXI@Z 24048c90 f i c_baseentity.obj
 0001:00047cc0       ??_E?$CInterpolatedVarArray@VQAngle@@$00@@UAEPAXI@Z 24048cc0 f i c_baseentity.obj
 0001:00047cc0       ??_G?$CInterpolatedVarArray@VQAngle@@$00@@UAEPAXI@Z 24048cc0 f i c_baseentity.obj
 0001:00047cf0       ?SpewInterpolatedVar@@YAXPAV?$CInterpolatedVar@VVector@@@@@Z 24048cf0 f   c_baseentity.obj
 0001:00047f20       ??1?$CInterpolatedVar@VVector@@@@UAE@XZ 24048f20 f i c_baseentity.obj
 0001:00047f30       ?InitializeAsClientEntity@C_BaseEntity@@UAE_NPBDW4RenderGroup_t@@@Z 24048f30 f   c_baseentity.obj
 0001:00047f80       ?LinkChild@C_BaseEntity@@AAEXPAV1@0@Z 24048f80 f   c_baseentity.obj
 0001:00048060       ?HierarchySetParent@C_BaseEntity@@AAEXPAV1@@Z 24049060 f   c_baseentity.obj
 0001:000480e0       ?SetParent@C_BaseEntity@@QAEXPAV1@H@Z 240490e0 f   c_baseentity.obj
 0001:00048220       ?CheckInitPredictable@C_BaseEntity@@QAEXPBD@Z 24049220 f   c_baseentity.obj
 0001:000482a0       ?StopFollowingEntity@C_BaseEntity@@QAEXXZ 240492a0 f   c_baseentity.obj
 0001:000482e0       ?OnDataChanged@C_BaseEntity@@UAEXW4DataUpdateType_t@@@Z 240492e0 f   c_baseentity.obj
 0001:00048310       ?OnPredictedEntityRemove@C_BaseEntity@@UAE_N_NPAV1@@Z 24049310 f   c_baseentity.obj
 0001:00048380       ?RestoreData@C_BaseEntity@@UAEHPBDHH@Z 24049380 f   c_baseentity.obj
 0001:00048480       ?GetPrevLocalOrigin@C_BaseEntity@@UBEABVVector@@XZ 24049480 f   c_baseentity.obj
 0001:000484c0       ?GetPrevLocalAngles@C_BaseEntity@@UBEABVQAngle@@XZ 240494c0 f   c_baseentity.obj
 0001:00048500       ?GetDerivative_SmoothVelocity@?$CInterpolatedVarArray@VVector@@$00@@QAEXPAVVector@@M@Z 24049500 f i c_baseentity.obj
 0001:000486a0       ??0?$CInterpolatedVar@VVector@@@@QAE@PBD@Z 240496a0 f i c_baseentity.obj
 0001:000486f0       ??_E?$CInterpolatedVar@VVector@@@@UAEPAXI@Z 240496f0 f i c_baseentity.obj
 0001:000486f0       ??_G?$CInterpolatedVar@VVector@@@@UAEPAXI@Z 240496f0 f i c_baseentity.obj
 0001:00048720       ??1?$CInterpolatedVar@VQAngle@@@@UAE@XZ 24049720 f i c_baseentity.obj
 0001:00048730       ?NoteChanged@?$CInterpolatedVarArray@VVector@@$00@@UAEXM@Z 24049730 f i c_baseentity.obj
 0001:00048750       ?NoteChanged@?$CInterpolatedVarArray@VVector@@$00@@QAEXMM@Z 24049750 f i c_baseentity.obj
 0001:000487b0       ?RemoveOldEntries@?$CInterpolatedVarArray@VVector@@$00@@IAEXM@Z 240497b0 f i c_baseentity.obj
 0001:00048940       ?Copy@?$CInterpolatedVarArray@VVector@@$00@@UAEXPAVIInterpolatedVar@@@Z 24049940 f i c_baseentity.obj
 0001:00048d30       ?InsertBefore@?$CUtlFixedLinkedList@UCInterpolatedVarEntry@?$CInterpolatedVarArray@VVector@@$00@@@@QAEHHABUCInterpolatedVarEntry@?$CInterpolatedVarArray@VVector@@$00@@@Z 24049d30 f i c_baseentity.obj
 0001:00048dd0       ?NoteChanged@?$CInterpolatedVarArray@VQAngle@@$00@@UAEXM@Z 24049dd0 f i c_baseentity.obj
 0001:00048df0       ?NoteChanged@?$CInterpolatedVarArray@VQAngle@@$00@@QAEXMM@Z 24049df0 f i c_baseentity.obj
 0001:00048e50       ?RemoveOldEntries@?$CInterpolatedVarArray@VQAngle@@$00@@IAEXM@Z 24049e50 f i c_baseentity.obj
 0001:00048fe0       ?Copy@?$CInterpolatedVarArray@VQAngle@@$00@@UAEXPAVIInterpolatedVar@@@Z 24049fe0 f i c_baseentity.obj
 0001:000493d0       ?InsertBefore@?$CUtlFixedLinkedList@UCInterpolatedVarEntry@?$CInterpolatedVarArray@VQAngle@@$00@@@@QAEHHABUCInterpolatedVarEntry@?$CInterpolatedVarArray@VQAngle@@$00@@@Z 2404a3d0 f i c_baseentity.obj
 0001:00049470       ??_G?$CInterpolatedVar@VQAngle@@@@UAEPAXI@Z 2404a470 f i c_baseentity.obj
 0001:00049470       ??_E?$CInterpolatedVar@VQAngle@@@@UAEPAXI@Z 2404a470 f i c_baseentity.obj
 0001:000494a0       ??0C_BaseEntity@@QAE@XZ    2404a4a0 f   c_baseentity.obj
 0001:000496e0       ??1C_BaseEntity@@UAE@XZ    2404a6e0 f   c_baseentity.obj
 0001:00049770       ?PostDataUpdate@C_BaseEntity@@UAEXW4DataUpdateType_t@@@Z 2404a770 f   c_baseentity.obj
 0001:00049a30       ?EstimateAbsVelocity@C_BaseEntity@@QAEXAAVVector@@@Z 2404aa30 f   c_baseentity.obj
 0001:00049ae0       ?Interpolate@?$CInterpolatedVarArray@VVector@@$00@@UAEXM@Z 2404aae0 f i c_baseentity.obj
 0001:00049b00       ?Interpolate@?$CInterpolatedVarArray@VVector@@$00@@QAEXMM@Z 2404ab00 f i c_baseentity.obj
 0001:00049c20       ?_Extrapolate@?$CInterpolatedVarArray@VVector@@$00@@IAEXPAVVector@@PAUCInterpolatedVarEntry@1@1MM@Z 2404ac20 f i c_baseentity.obj
 0001:00049d40       ?ExtrapolateInterpolatedVarType@@YA?AVVector@@ABV1@0MM@Z 2404ad40 f i c_baseentity.obj
 0001:00049e00       ?_Interpolate@?$CInterpolatedVarArray@VVector@@$00@@IAEXPAVVector@@MPAUCInterpolatedVarEntry@1@1@Z 2404ae00 f i c_baseentity.obj
 0001:0004a030       ?_Interpolate_Hermite@?$CInterpolatedVarArray@VVector@@$00@@IAEXPAVVector@@MPAUCInterpolatedVarEntry@1@11_N@Z 2404b030 f i c_baseentity.obj
 0001:0004a190       ??$Lerp_Hermite@VVector@@@@YA?AVVector@@MABV0@00@Z 2404b190 f i c_baseentity.obj
 0001:0004a380       ?RemoveEntriesPreviousTo@?$CInterpolatedVarArray@VVector@@$00@@IAEXM@Z 2404b380 f i c_baseentity.obj
 0001:0004a790       ??_EC_BaseEntity@@UAEPAXI@Z 2404b790 f i c_baseentity.obj
 0001:0004a790       ??_GC_BaseEntity@@UAEPAXI@Z 2404b790 f i c_baseentity.obj
 0001:0004a7b0       ?Interpolate@?$CInterpolatedVarArray@VQAngle@@$00@@UAEXM@Z 2404b7b0 f i c_baseentity.obj
 0001:0004a7d0       ?Interpolate@?$CInterpolatedVarArray@VQAngle@@$00@@QAEXMM@Z 2404b7d0 f i c_baseentity.obj
 0001:0004a910       ?_Extrapolate@?$CInterpolatedVarArray@VQAngle@@$00@@IAEXPAVQAngle@@PAUCInterpolatedVarEntry@1@1MM@Z 2404b910 f i c_baseentity.obj
 0001:0004aa30       ?ExtrapolateInterpolatedVarType@@YA?AVQAngle@@ABV1@0MM@Z 2404ba30 f i c_baseentity.obj
 0001:0004aae0       ?_Interpolate@?$CInterpolatedVarArray@VQAngle@@$00@@IAEXPAVQAngle@@MPAUCInterpolatedVarEntry@1@1@Z 2404bae0 f i c_baseentity.obj
 0001:0004ac90       ??$LoopingLerp@VQAngle@@@@YA?AVQAngle@@MV0@0@Z 2404bc90 f i c_baseentity.obj
 0001:0004ad60       ?_Interpolate_Hermite@?$CInterpolatedVarArray@VQAngle@@$00@@IAEXPAVQAngle@@MPAUCInterpolatedVarEntry@1@11_N@Z 2404bd60 f i c_baseentity.obj
 0001:0004aee0       ??$Lerp_Hermite@VQAngle@@@@YA?AVQAngle@@MABV0@00@Z 2404bee0 f i c_baseentity.obj
 0001:0004af80       ?TimeFixup2_Hermite@?$CInterpolatedVarArray@VQAngle@@$00@@IAEXAAUCInterpolatedVarEntry@1@AAPAU21@1M@Z 2404bf80 f i c_baseentity.obj
 0001:0004b0e0       ?GetInterpolationInfo@?$CInterpolatedVarArray@VQAngle@@$00@@IAE_NPAVCInterpolationInfo@1@MM@Z 2404c0e0 f i c_baseentity.obj
 0001:0004b340       ?RemoveEntriesPreviousTo@?$CInterpolatedVarArray@VQAngle@@$00@@IAEXM@Z 2404c340 f i c_baseentity.obj
 0001:0004b5e0       ?SafeNext@?$CInterpolatedVarArray@VQAngle@@$00@@IAEHH@Z 2404c5e0 f i c_baseentity.obj
 0001:0004b610       _expf                      2404c610 f i c_baseflex.obj
 0001:0004b630       _logf                      2404c630 f i c_baseflex.obj
 0001:0004b640       ?GetClassName@C_BaseFlex@@UAEPBDXZ 2404c640 f   c_baseflex.obj
 0001:0004b650       ?YouForgotToImplementOrDeclareClientClass@C_BaseFlex@@UAEHXZ 2404c650 f   c_baseflex.obj
 0001:0004b660       ?GetClientClass@C_BaseFlex@@UAEPAVClientClass@@XZ 2404c660 f   c_baseflex.obj
 0001:0004b670       ??$ClientClassInit@Uignored@DT_BaseFlex@@@@YAHPAUignored@DT_BaseFlex@@@Z 2404c670 f   c_baseflex.obj
 0001:0004b770       ?GetPredDescMap@C_BaseFlex@@UAEPAUdatamap_t@@XZ 2404c770 f   c_baseflex.obj
 0001:0004b780       ??$PredMapInit@VC_BaseFlex@@@@YAPAUdatamap_t@@PAVC_BaseFlex@@@Z 2404c780 f   c_baseflex.obj
 0001:0004b7a0       ?OnNewModel@C_BaseFlex@@UAEPAUstudiohdr_t@@XZ 2404c7a0 f   c_baseflex.obj
 0001:0004b860       ??1CBaseGameSystem@@UAE@XZ 2404c860 f i c_baseflex.obj
 0001:0004b870       ?ComputeBlendedSetting@C_BaseFlex@@AAEXPAUEmphasized_Phoneme@1@M@Z 2404c870 f   c_baseflex.obj
 0001:0004b930       ?AddGlobalFlexController@C_BaseFlex@@SAHPAD@Z 2404c930 f   c_baseflex.obj
 0001:0004b990       ?InvalidIndex@?$CUtlFixedLinkedList@UCInterpolatedVarEntry@?$CInterpolatedVarArray@M$0EA@@@@@SAHXZ 2404c990 f i c_baseflex.obj
 0001:0004b9a0       ?ExponentialDecay@@YAMMMM@Z 2404c9a0 f i c_baseflex.obj
 0001:0004b9d0       ?Size@?$CUtlVector@PAVCFlexSceneFile@@V?$CUtlMemory@PAVCFlexSceneFile@@@@@@QBEHXZ 2404c9d0 f i c_baseflex.obj
 0001:0004b9e0       ?ConstructList@?$CUtlFixedLinkedList@UCInterpolatedVarEntry@?$CInterpolatedVarArray@M$0EA@@@@@IAEXXZ 2404c9e0 f i c_baseflex.obj
 0001:0004ba00       ??A?$CUtlFixedMemory@UListElem_t@?$CUtlFixedLinkedList@UCInterpolatedVarEntry@?$CInterpolatedVarArray@M$0EA@@@@@@@QBEABUListElem_t@?$CUtlFixedLinkedList@UCInterpolatedVarEntry@?$CInterpolatedVarArray@M$0EA@@@@@H@Z 2404ca00 f i c_baseflex.obj
 0001:0004ba10       ??A?$CUtlFixedMemory@UListElem_t@?$CUtlFixedLinkedList@UCInterpolatedVarEntry@?$CInterpolatedVarArray@M$0EA@@@@@@@QAEAAUListElem_t@?$CUtlFixedLinkedList@UCInterpolatedVarEntry@?$CInterpolatedVarArray@M$0EA@@@@@H@Z 2404ca10 f i c_baseflex.obj
 0001:0004ba20       ??$Destruct@UCInterpolatedVarEntry@?$CInterpolatedVarArray@M$0EA@@@@@YAXPAUCInterpolatedVarEntry@?$CInterpolatedVarArray@M$0EA@@@@Z 2404ca20 f i c_baseflex.obj
 0001:0004ba30       ??0?$CUtlMemory@PAVCFlexSceneFile@@@@QAE@HH@Z 2404ca30 f i c_baseflex.obj
 0001:0004ba70       ?Base@?$CUtlMemory@PAVCFlexSceneFile@@@@QAEPAPAVCFlexSceneFile@@XZ 2404ca70 f i c_baseflex.obj
 0001:0004ba80       ??$Destruct@PAVCFlexSceneFile@@@@YAXPAPAVCFlexSceneFile@@@Z 2404ca80 f i c_baseflex.obj
 0001:0004ba90       ?pszName@mstudioflexcontroller_t@@QBEQADXZ 2404ca90 f i c_baseflex.obj
 0001:0004baa0       ?iFlexOp@mstudioflexrule_t@@QBEPAUmstudioflexop_t@@H@Z 2404caa0 f i c_baseflex.obj
 0001:0004bab0       ?Element@?$CUtlFixedLinkedList@UCInterpolatedVarEntry@?$CInterpolatedVarArray@M$0EA@@@@@QAEAAUCInterpolatedVarEntry@?$CInterpolatedVarArray@M$0EA@@@H@Z 2404cab0 f i c_baseflex.obj
 0001:0004bac0       ?IsValidIndex@?$CUtlFixedLinkedList@UCInterpolatedVarEntry@?$CInterpolatedVarArray@M$0EA@@@@@QBE_NH@Z 2404cac0 f i c_baseflex.obj
 0001:0004baf0       ?Purge@?$CUtlFixedMemory@UListElem_t@?$CUtlFixedLinkedList@UCInterpolatedVarEntry@?$CInterpolatedVarArray@M$0EA@@@@@@@QAEXXZ 2404caf0 f i c_baseflex.obj
 0001:0004bb30       ?FirstElement@?$CUtlFixedMemory@UListElem_t@?$CUtlFixedLinkedList@UCInterpolatedVarEntry@?$CInterpolatedVarArray@M$0EA@@@@@@@QAEHXZ 2404cb30 f i c_baseflex.obj
 0001:0004bb40       ?NextElement@?$CUtlFixedMemory@UListElem_t@?$CUtlFixedLinkedList@UCInterpolatedVarEntry@?$CInterpolatedVarArray@M$0EA@@@@@@@QAEHH@Z 2404cb40 f i c_baseflex.obj
 0001:0004bba0       ?SetupFreeList@?$CUtlFixedMemory@UListElem_t@?$CUtlFixedLinkedList@UCInterpolatedVarEntry@?$CInterpolatedVarArray@M$0EA@@@@@@@AAEXPAUBlockHeader_t@1@@Z 2404cba0 f i c_baseflex.obj
 0001:0004bbf0       ?pFlexcontroller@studiohdr_t@@QBEPAUmstudioflexcontroller_t@@H@Z 2404cbf0 f i c_baseflex.obj
 0001:0004bc10       ?pFlexRule@studiohdr_t@@QBEPAUmstudioflexrule_t@@H@Z 2404cc10 f i c_baseflex.obj
 0001:0004bc30       ?pszName@flexsetting_t@@QBEPADXZ 2404cc30 f i c_baseflex.obj
 0001:0004bc40       ?IsMarkov@flexsetting_t@@QBE_NXZ 2404cc40 f i c_baseflex.obj
 0001:0004bc50       ?pMarkovGroup@flexsetting_t@@QBEPAUflexmarkovgroup_t@@H@Z 2404cc50 f i c_baseflex.obj
 0001:0004bc80       ?GetMarkovSetting@flexsetting_t@@QBEHH@Z 2404cc80 f i c_baseflex.obj
 0001:0004bcb0       ?pSetting@flexsettinghdr_t@@QBEPAUflexsetting_t@@H@Z 2404ccb0 f i c_baseflex.obj
 0001:0004bcd0       ?pIndexedSetting@flexsettinghdr_t@@QBEPAUflexsetting_t@@H@Z 2404ccd0 f i c_baseflex.obj
 0001:0004bd00       ??$CopyConstruct@PAVCFlexSceneFile@@@@YAXPAPAVCFlexSceneFile@@ABQAV0@@Z 2404cd00 f i c_baseflex.obj
 0001:0004bd20       ?pLocalName@flexsettinghdr_t@@QBEPADH@Z 2404cd20 f i c_baseflex.obj
 0001:0004bd40       ?pLocalToGlobal@flexsettinghdr_t@@QBEPAHH@Z 2404cd40 f i c_baseflex.obj
 0001:0004bd50       ?LocalToGlobal@flexsettinghdr_t@@QBEHH@Z 2404cd50 f i c_baseflex.obj
 0001:0004bd60       ?pTranslatedSetting@flexsettinghdr_t@@QBEPAUflexsetting_t@@H@Z 2404cd60 f i c_baseflex.obj
 0001:0004bdb0       ?psetting@flexsetting_t@@QBEHPAEHPAPAUflexweight_t@@@Z 2404cdb0 f i c_baseflex.obj
 0001:0004be30       ?GetElapsedTime@CVoiceData@@QBEMXZ 2404ce30 f i c_baseflex.obj
 0001:0004be40       ?GetSource@CVoiceData@@QAEPAVCAudioSource@@XZ 2404ce40 f i c_baseflex.obj
 0001:0004be50       ?GetNumVoiceSources@CMouthInfo@@QAEHXZ 2404ce50 f i c_baseflex.obj
 0001:0004be60       ?GetVoiceSource@CMouthInfo@@QAEPAVCVoiceData@@H@Z 2404ce60 f i c_baseflex.obj
 0001:0004be80       ?NumAllocated@?$CUtlMemory@PAVCFlexSceneFile@@@@QBEHXZ 2404ce80 f i c_baseflex.obj
 0001:0004be90       ?IsExternallyAllocated@?$CUtlMemory@PAVCFlexSceneFile@@@@QBE_NXZ 2404ce90 f i c_baseflex.obj
 0001:0004bea0       ?GetSoundSpatialization@C_BaseFlex@@UAE_NAAUSpatializationInfo_t@@@Z 2404cea0 f   c_baseflex.obj
 0001:0004bf40       ?RunFlexRules@C_BaseFlex@@UAEXPAM@Z 2404cf40 f   c_baseflex.obj
 0001:0004c0f0       ??1CAutoGameSystem@@UAE@XZ 2404d0f0 f i c_baseflex.obj
 0001:0004c100       ?SetViewTarget@C_BaseFlex@@UAEXXZ 2404d100 f   c_baseflex.obj
 0001:0004c3f0       ?FindNamedSetting@C_BaseFlex@@AAEPBUflexsetting_t@@PBUflexsettinghdr_t@@PBD@Z 2404d3f0 f   c_baseflex.obj
 0001:0004c440       ?InternalElement@?$CUtlFixedLinkedList@UCInterpolatedVarEntry@?$CInterpolatedVarArray@M$0EA@@@@@IAEAAUListElem_t@1@H@Z 2404d440 f i c_baseflex.obj
 0001:0004c450       ?InternalElement@?$CUtlFixedLinkedList@UCInterpolatedVarEntry@?$CInterpolatedVarArray@M$0EA@@@@@IBEABUListElem_t@1@H@Z 2404d450 f i c_baseflex.obj
 0001:0004c460       ?Base@?$CUtlVector@PAVCFlexSceneFile@@V?$CUtlMemory@PAVCFlexSceneFile@@@@@@QAEPAPAVCFlexSceneFile@@XZ 2404d460 f i c_baseflex.obj
 0001:0004c470       ??0?$CUtlFixedMemory@UListElem_t@?$CUtlFixedLinkedList@UCInterpolatedVarEntry@?$CInterpolatedVarArray@M$0EA@@@@@@@QAE@HH@Z 2404d470 f i c_baseflex.obj
 0001:0004c4d0       ??1?$CUtlFixedMemory@UListElem_t@?$CUtlFixedLinkedList@UCInterpolatedVarEntry@?$CInterpolatedVarArray@M$0EA@@@@@@@QAE@XZ 2404d4d0 f i c_baseflex.obj
 0001:0004c4e0       ?Element@?$CUtlVector@PAVCFlexSceneFile@@V?$CUtlMemory@PAVCFlexSceneFile@@@@@@QAEAAPAVCFlexSceneFile@@H@Z 2404d4e0 f i c_baseflex.obj
 0001:0004c4f0       ?ResetDbgInfo@?$CUtlVector@PAVCFlexSceneFile@@V?$CUtlMemory@PAVCFlexSceneFile@@@@@@IAEXXZ 2404d4f0 f i c_baseflex.obj
 0001:0004c500       ?RemoveAll@?$CUtlFixedMemory@UListElem_t@?$CUtlFixedLinkedList@UCInterpolatedVarEntry@?$CInterpolatedVarArray@M$0EA@@@@@@@QAEXXZ 2404d500 f i c_baseflex.obj
 0001:0004c550       ?RemoveAll@?$CUtlVector@PAVCFlexSceneFile@@V?$CUtlMemory@PAVCFlexSceneFile@@@@@@QAEXXZ 2404d550 f i c_baseflex.obj
 0001:0004c560       ?ShiftElementsRight@?$CUtlVector@PAVCFlexSceneFile@@V?$CUtlMemory@PAVCFlexSceneFile@@@@@@IAEXHH@Z 2404d560 f i c_baseflex.obj
 0001:0004c5a0       ?Purge@?$CUtlMemory@PAVCFlexSceneFile@@@@QAEXXZ 2404d5a0 f i c_baseflex.obj
 0001:0004c5d0       ?Previous@?$CUtlFixedLinkedList@UCInterpolatedVarEntry@?$CInterpolatedVarArray@M$0EA@@@@@QBEHH@Z 2404d5d0 f i c_baseflex.obj
 0001:0004c5e0       ?IsActive@CMouthInfo@@QAE_NXZ 2404d5e0 f i c_baseflex.obj
 0001:0004c5f0       ?Grow@?$CUtlMemory@PAVCFlexSceneFile@@@@QAEXH@Z 2404d5f0 f i c_baseflex.obj
 0001:0004c660       ??0?$CUtlFixedLinkedList@UCInterpolatedVarEntry@?$CInterpolatedVarArray@M$0EA@@@@@QAE@HH@Z 2404d660 f i c_baseflex.obj
 0001:0004c690       ?Next@?$CUtlFixedLinkedList@UCInterpolatedVarEntry@?$CInterpolatedVarArray@M$0EA@@@@@QBEHH@Z 2404d690 f i c_baseflex.obj
 0001:0004c6a0       ??A?$CUtlVector@PAVCFlexSceneFile@@V?$CUtlMemory@PAVCFlexSceneFile@@@@@@QAEAAPAVCFlexSceneFile@@H@Z 2404d6a0 f i c_baseflex.obj
 0001:0004c6b0       ?RemoveAll@?$CUtlFixedLinkedList@UCInterpolatedVarEntry@?$CInterpolatedVarArray@M$0EA@@@@@QAEXXZ 2404d6b0 f i c_baseflex.obj
 0001:0004c6e0       ?Purge@?$CUtlVector@PAVCFlexSceneFile@@V?$CUtlMemory@PAVCFlexSceneFile@@@@@@QAEXXZ 2404d6e0 f i c_baseflex.obj
 0001:0004c720       ??1?$CUtlMemory@PAVCFlexSceneFile@@@@QAE@XZ 2404d720 f i c_baseflex.obj
 0001:0004c750       ?IsInList@?$CUtlFixedLinkedList@UCInterpolatedVarEntry@?$CInterpolatedVarArray@M$0EA@@@@@QBE_NH@Z 2404d750 f i c_baseflex.obj
 0001:0004c770       ?GrowVector@?$CUtlVector@PAVCFlexSceneFile@@V?$CUtlMemory@PAVCFlexSceneFile@@@@@@IAEXH@Z 2404d770 f i c_baseflex.obj
 0001:0004c7a0       ??1?$CUtlFixedLinkedList@UCInterpolatedVarEntry@?$CInterpolatedVarArray@M$0EA@@@@@QAE@XZ 2404d7a0 f i c_baseflex.obj
 0001:0004c7d0       ??0?$CUtlVector@PAVCFlexSceneFile@@V?$CUtlMemory@PAVCFlexSceneFile@@@@@@QAE@HH@Z 2404d7d0 f i c_baseflex.obj
 0001:0004c810       ??1?$CUtlVector@PAVCFlexSceneFile@@V?$CUtlMemory@PAVCFlexSceneFile@@@@@@QAE@XZ 2404d810 f i c_baseflex.obj
 0001:0004c870       ?Unlink@?$CUtlFixedLinkedList@UCInterpolatedVarEntry@?$CInterpolatedVarArray@M$0EA@@@@@QAEXH@Z 2404d870 f i c_baseflex.obj
 0001:0004c8f0       ?InsertBefore@?$CUtlVector@PAVCFlexSceneFile@@V?$CUtlMemory@PAVCFlexSceneFile@@@@@@QAEHHABQAVCFlexSceneFile@@@Z 2404d8f0 f i c_baseflex.obj
 0001:0004c960       ??0CFlexSceneFileManager@@QAE@XZ 2404d960 f i c_baseflex.obj
 0001:0004c990       ?LevelInitPreEntity@CBaseGameSystem@@UAEXXZ 2404d990 f i c_baseflex.obj
 0001:0004c9a0       ?LevelInitPostEntity@CBaseGameSystem@@UAEXXZ 2404d9a0 f i c_baseflex.obj
 0001:0004c9b0       ?LevelShutdownPreEntity@CBaseGameSystem@@UAEXXZ 2404d9b0 f i c_baseflex.obj
 0001:0004c9c0       ?LevelShutdownPostEntity@CBaseGameSystem@@UAEXXZ 2404d9c0 f i c_baseflex.obj
 0001:0004c9d0       ?OnSave@CBaseGameSystem@@UAEXXZ 2404d9d0 f i c_baseflex.obj
 0001:0004c9e0       ?OnRestore@CBaseGameSystem@@UAEXXZ 2404d9e0 f i c_baseflex.obj
 0001:0004c9f0       ?PreRender@CBaseGameSystem@@UAEXXZ 2404d9f0 f i c_baseflex.obj
 0001:0004ca00       ?Update@CBaseGameSystem@@UAEXM@Z 2404da00 f i c_baseflex.obj
 0001:0004ca10       ?Shutdown@CFlexSceneFileManager@@UAEXXZ 2404da10 f i c_baseflex.obj
 0001:0004ca20       ?DeleteSceneFiles@CFlexSceneFileManager@@AAEXXZ 2404da20 f i c_baseflex.obj
 0001:0004ca70       ?ShiftElementsLeft@?$CUtlVector@PAVCFlexSceneFile@@V?$CUtlMemory@PAVCFlexSceneFile@@@@@@IAEXHH@Z 2404da70 f i c_baseflex.obj
 0001:0004cab0       ??1CFlexSceneFileManager@@UAE@XZ 2404dab0 f i c_baseflex.obj
 0001:0004cad0       ??_ECFlexSceneFileManager@@UAEPAXI@Z 2404dad0 f i c_baseflex.obj
 0001:0004cad0       ??_GCFlexSceneFileManager@@UAEPAXI@Z 2404dad0 f i c_baseflex.obj
 0001:0004cb00       ?Free@?$CUtlFixedLinkedList@UCInterpolatedVarEntry@?$CInterpolatedVarArray@M$0EA@@@@@QAEXH@Z 2404db00 f i c_baseflex.obj
 0001:0004cb20       ?AddToTail@?$CUtlVector@PAVCFlexSceneFile@@V?$CUtlMemory@PAVCFlexSceneFile@@@@@@QAEHABQAVCFlexSceneFile@@@Z 2404db20 f i c_baseflex.obj
 0001:0004cb40       ?AddVar@C_BaseFlex@@QAEXPAXPAVIInterpolatedVar@@H_N@Z 2404db40 f i c_baseflex.obj
 0001:0004cbb0       ?FindSceneFile@CFlexSceneFileManager@@QAEPAXPBD@Z 2404dbb0 f i c_baseflex.obj
 0001:0004cd30       ?FindSceneFile@C_BaseFlex@@AAEPAXPBD@Z 2404dd30 f   c_baseflex.obj
 0001:0004cd40       ?SetupEmphasisBlend@C_BaseFlex@@AAE_NPAUEmphasized_Phoneme@1@H@Z 2404dd40 f   c_baseflex.obj
 0001:0004ceb0       ?VarHistory@?$CInterpolatedVarArray@M$0EA@@@KAAAV?$CUtlFixedLinkedList@UCInterpolatedVarEntry@?$CInterpolatedVarArray@M$0EA@@@@@XZ 2404deb0 f i c_baseflex.obj
 0001:0004cf10       ??0?$CInterpolatedVarArray@M$0EA@@@QAE@PBD@Z 2404df10 f i c_baseflex.obj
 0001:0004cf80       ?Setup@?$CInterpolatedVarArray@M$0EA@@@UAEXPAXH@Z 2404df80 f i c_baseflex.obj
 0001:0004cfa0       ?SetInterpolationAmount@?$CInterpolatedVarArray@M$0EA@@@UAEXM@Z 2404dfa0 f i c_baseflex.obj
 0001:0004cfb0       ?GetType@?$CInterpolatedVarArray@M$0EA@@@UBEHXZ 2404dfb0 f i c_baseflex.obj
 0001:0004cfc0       ?RestoreToLastNetworked@?$CInterpolatedVarArray@M$0EA@@@UAEXXZ 2404dfc0 f i c_baseflex.obj
 0001:0004cfe0       ?ClearHistory@?$CInterpolatedVarArray@M$0EA@@@QAEXXZ 2404dfe0 f i c_baseflex.obj
 0001:0004d140       ?Alloc@?$CUtlFixedLinkedList@UCInterpolatedVarEntry@?$CInterpolatedVarArray@VVector@@$00@@@@QAEH_N@Z 2404e140 f i c_baseflex.obj
 0001:0004d170       ??1?$CInterpolatedVarArray@M$0EA@@@UAE@XZ 2404e170 f i c_baseflex.obj
 0001:0004d180       ?Reset@?$CInterpolatedVarArray@M$0EA@@@UAEXXZ 2404e180 f i c_baseflex.obj
 0001:0004d1e0       ?AddToHead@?$CInterpolatedVarArray@M$0EA@@@QAEXMPBM_N@Z 2404e1e0 f i c_baseflex.obj
 0001:0004d5e0       ?AllocInternal@?$CUtlFixedLinkedList@UCInterpolatedVarEntry@?$CInterpolatedVarArray@M$0EA@@@@@IAEH_N@Z 2404e5e0 f i c_baseflex.obj
 0001:0004d660       ?Grow@?$CUtlFixedMemory@UListElem_t@?$CUtlFixedLinkedList@UCInterpolatedVarEntry@?$CInterpolatedVarArray@M$0EA@@@@@@@AAEXH@Z 2404e660 f i c_baseflex.obj
 0001:0004d6e0       ?LinkBefore@?$CUtlFixedLinkedList@UCInterpolatedVarEntry@?$CInterpolatedVarArray@M$0EA@@@@@QAEXHH@Z 2404e6e0 f i c_baseflex.obj
 0001:0004d750       ?LinkAfter@?$CUtlFixedLinkedList@UCInterpolatedVarEntry@?$CInterpolatedVarArray@M$0EA@@@@@QAEXHH@Z 2404e750 f i c_baseflex.obj
 0001:0004d7c0       ??_G?$CInterpolatedVarArray@M$0EA@@@UAEPAXI@Z 2404e7c0 f i c_baseflex.obj
 0001:0004d7c0       ??_E?$CInterpolatedVarArray@M$0EA@@@UAEPAXI@Z 2404e7c0 f i c_baseflex.obj
 0001:0004d7f0       ??1C_BaseFlex@@UAE@XZ      2404e7f0 f   c_baseflex.obj
 0001:0004d880       ?Init@CFlexSceneFileManager@@UAE_NXZ 2404e880 f i c_baseflex.obj
 0001:0004d8b0       ?AddViseme@C_BaseFlex@@AAEXPAUEmphasized_Phoneme@1@MHM_N@Z 2404e8b0 f   c_baseflex.obj
 0001:0004db00       ?AddVisemesForSentence@C_BaseFlex@@AAEXPAUEmphasized_Phoneme@1@MPAVCSentence@@MM_N@Z 2404eb00 f   c_baseflex.obj
 0001:0004dc80       ?ProcessVisemes@C_BaseFlex@@AAEXPAUEmphasized_Phoneme@1@@Z 2404ec80 f   c_baseflex.obj
 0001:0004dd80       ?SetupWeights@C_BaseFlex@@UAEXXZ 2404ed80 f   c_baseflex.obj
 0001:0004e060       ?NoteChanged@?$CInterpolatedVarArray@M$0EA@@@UAEXM@Z 2404f060 f i c_baseflex.obj
 0001:0004e080       ?NoteChanged@?$CInterpolatedVarArray@M$0EA@@@QAEXMM@Z 2404f080 f i c_baseflex.obj
 0001:0004e0e0       ?RemoveOldEntries@?$CInterpolatedVarArray@M$0EA@@@IAEXM@Z 2404f0e0 f i c_baseflex.obj
 0001:0004e250       ?Copy@?$CInterpolatedVarArray@M$0EA@@@UAEXPAVIInterpolatedVar@@@Z 2404f250 f i c_baseflex.obj
 0001:0004e6a0       ?InsertBefore@?$CUtlFixedLinkedList@UCInterpolatedVarEntry@?$CInterpolatedVarArray@M$0EA@@@@@QAEHHABUCInterpolatedVarEntry@?$CInterpolatedVarArray@M$0EA@@@@Z 2404f6a0 f i c_baseflex.obj
 0001:0004e710       ??0C_BaseFlex@@QAE@XZ      2404f710 f   c_baseflex.obj
 0001:0004e860       ??_EC_BaseFlex@@UAEPAXI@Z  2404f860 f i c_baseflex.obj
 0001:0004e860       ??_GC_BaseFlex@@UAEPAXI@Z  2404f860 f i c_baseflex.obj
 0001:0004e8c0       ?Interpolate@?$CInterpolatedVarArray@M$0EA@@@UAEXM@Z 2404f8c0 f i c_baseflex.obj
 0001:0004e8e0       ?Interpolate@?$CInterpolatedVarArray@M$0EA@@@QAEXMM@Z 2404f8e0 f i c_baseflex.obj
 0001:0004ea20       ?_Interpolate@?$CInterpolatedVarArray@M$0EA@@@IAEXPAMMPAUCInterpolatedVarEntry@1@1@Z 2404fa20 f i c_baseflex.obj
 0001:0004eac0       ?_Extrapolate@?$CInterpolatedVarArray@M$0EA@@@IAEXPAMPAUCInterpolatedVarEntry@1@1MM@Z 2404fac0 f i c_baseflex.obj
 0001:0004eb90       ?_Interpolate_Hermite@?$CInterpolatedVarArray@M$0EA@@@IAEXPAMMPAUCInterpolatedVarEntry@1@11_N@Z 2404fb90 f i c_baseflex.obj
 0001:0004ec80       ?TimeFixup2_Hermite@?$CInterpolatedVarArray@M$0EA@@@IAEXAAUCInterpolatedVarEntry@1@AAPAU21@1M@Z 2404fc80 f i c_baseflex.obj
 0001:0004ed20       ?GetInterpolationInfo@?$CInterpolatedVarArray@M$0EA@@@IAE_NPAVCInterpolationInfo@1@MM@Z 2404fd20 f i c_baseflex.obj
 0001:0004ef90       ?RemoveEntriesPreviousTo@?$CInterpolatedVarArray@M$0EA@@@IAEXM@Z 2404ff90 f i c_baseflex.obj
 0001:0004f2a0       ?Random@Vector@@QAEXMM@Z   240502a0 f i c_baseplayer.obj
 0001:0004f310       ??$ClientClassInit@Uignored@DT_PlayerState@@@@YAHPAUignored@DT_PlayerState@@@Z 24050310 f   c_baseplayer.obj
 0001:0004f370       ?GetClassName@C_BasePlayer@@UAEPBDXZ 24050370 f   c_baseplayer.obj
 0001:0004f380       ?YouForgotToImplementOrDeclareClientClass@C_BasePlayer@@UAEHXZ 24050380 f   c_baseplayer.obj
 0001:0004f390       ?GetClientClass@C_BasePlayer@@UAEPAVClientClass@@XZ 24050390 f   c_baseplayer.obj
 0001:0004f3a0       ??$ClientClassInit@Uignored@DT_BasePlayer@@@@YAHPAUignored@DT_BasePlayer@@@Z 240503a0 f   c_baseplayer.obj
 0001:0004f4f0       ?GetPredDescMap@CPlayerState@@UAEPAUdatamap_t@@XZ 240504f0 f   c_baseplayer.obj
 0001:0004f500       ??$PredMapInit@VCPlayerState@@@@YAPAUdatamap_t@@PAVCPlayerState@@@Z 24050500 f   c_baseplayer.obj
 0001:0004f520       ?GetPredDescMap@CPlayerLocalData@@UAEPAUdatamap_t@@XZ 24050520 f   c_baseplayer.obj
 0001:0004f530       ??$PredMapInit@VCPlayerLocalData@@@@YAPAUdatamap_t@@PAVCPlayerLocalData@@@Z 24050530 f   c_baseplayer.obj
 0001:0004f550       ?RandomVector@@YA?AVVector@@MM@Z 24050550 f i c_baseplayer.obj
 0001:0004f590       ?GetPredDescMap@C_BasePlayer@@UAEPAUdatamap_t@@XZ 24050590 f   c_baseplayer.obj
 0001:0004f5a0       ??$PredMapInit@VC_BasePlayer@@@@YAPAUdatamap_t@@PAVC_BasePlayer@@@Z 240505a0 f   c_baseplayer.obj
 0001:0004f5c0       ??_GCFlashlightEffect@@QAEPAXI@Z 240505c0 f i c_baseplayer.obj
 0001:0004f5e0       ?GetObserverTargetPlayer@C_BasePlayer@@UBEPAVC_BaseEntity@@XZ 240505e0 f   c_baseplayer.obj
 0001:0004f5f0       ?GetObserverMode@C_BasePlayer@@UBEHXZ 240505f0 f   c_baseplayer.obj
 0001:0004f600       ?ViewModel_IsTransparent@C_BasePlayer@@UAE_NXZ 24050600 f   c_baseplayer.obj
 0001:0004f610       ?SetLocalViewAngles@C_BasePlayer@@IAEXABVQAngle@@@Z 24050610 f   c_baseplayer.obj
 0001:0004f640       ?GetPlayerName@C_BasePlayer@@QAEPBDXZ 24050640 f   c_baseplayer.obj
 0001:0004f680       ?OnPreDataChanged@C_BasePlayer@@UAEXW4DataUpdateType_t@@@Z 24050680 f   c_baseplayer.obj
 0001:0004f6c0       ?ReceiveMessage@C_BasePlayer@@UAEXHAAVbf_read@@@Z 240506c0 f   c_baseplayer.obj
 0001:0004f710       ?TeamChange@C_BasePlayer@@UAEXH@Z 24050710 f   c_baseplayer.obj
 0001:0004f720       ?OverrideView@C_BasePlayer@@UAEXPAVCViewSetup@@@Z 24050720 f   c_baseplayer.obj
 0001:0004f730       ?GetActiveWeaponForSelection@C_BasePlayer@@UAEPAVC_BaseCombatWeapon@@XZ 24050730 f   c_baseplayer.obj
 0001:0004f740       ?IsLocalPlayer@C_BasePlayer@@QBE_NXZ 24050740 f   c_baseplayer.obj
 0001:0004f760       ?GetUserID@C_BasePlayer@@QAEHXZ 24050760 f   c_baseplayer.obj
 0001:0004f7a0       ?SetAnimation@C_BasePlayer@@UAEXW4PLAYER_ANIM@@@Z 240507a0 f   c_baseplayer.obj
 0001:0004f7b0       ?UpdateClientData@C_BasePlayer@@UAEXXZ 240507b0 f   c_baseplayer.obj
 0001:0004f7f0       ?SetSuitUpdate@C_BasePlayer@@QAEXPADHH@Z 240507f0 f   c_baseplayer.obj
 0001:0004f800       ?ResetAutoaim@C_BasePlayer@@QAEXXZ 24050800 f   c_baseplayer.obj
 0001:0004f810       ?ShouldPredict@C_BasePlayer@@UAE_NXZ 24050810 f   c_baseplayer.obj
 0001:0004f830       ?GetWaterJumpTime@C_BasePlayer@@QBEMXZ 24050830 f   c_baseplayer.obj
 0001:0004f840       ?SetWaterJumpTime@C_BasePlayer@@QAEXM@Z 24050840 f   c_baseplayer.obj
 0001:0004f850       ?GetSwimSoundTime@C_BasePlayer@@QBEMXZ 24050850 f   c_baseplayer.obj
 0001:0004f860       ?SetSwimSoundTime@C_BasePlayer@@QAEXM@Z 24050860 f   c_baseplayer.obj
 0001:0004f870       ?IsUseableEntity@C_BasePlayer@@UAE_NPAVC_BaseEntity@@I@Z 24050870 f   c_baseplayer.obj
 0001:0004f880       ?RecvProxy_DefaultFOV@@YAXPBVCRecvProxyData@@PAX1@Z 24050880 f   c_baseplayer.obj
 0001:0004f8a0       ?GetMinFOV@C_BasePlayer@@UBEMXZ 240508a0 f   c_baseplayer.obj
 0001:0004f8c0       ?GetFinalPredictedTime@C_BasePlayer@@QBEMXZ 240508c0 f   c_baseplayer.obj
 0001:0004f8d0       ?NotePredictionError@C_BasePlayer@@QAEXABVVector@@@Z 240508d0 f   c_baseplayer.obj
 0001:0004f910       ?RemapVal@@YAMMMMMM@Z      24050910 f i c_baseplayer.obj
 0001:0004f940       ?GetRepresentativeRagdoll@C_BasePlayer@@UBEPAVIRagdoll@@XZ 24050940 f   c_baseplayer.obj
 0001:0004f950       ?Get@?$CNetworkVarBase@VQAngle@@VNetworkVar_m_vecPunchAngle@CPlayerLocalData@@@@QBEABVQAngle@@XZ 24050950 f i c_baseplayer.obj
 0001:0004f960       ??B?$CNetworkVarBase@_NVNetworkVar_deadflag@CPlayerState@@@@QBE?B_NXZ 24050960 f i c_baseplayer.obj
 0001:0004f970       ?SimpleSpline@@YAMM@Z      24050970 f i c_baseplayer.obj
 0001:0004f990       ?SimpleSplineRemapVal@@YAMMMMMM@Z 24050990 f i c_baseplayer.obj
 0001:0004f9d0       ??0?$CHandle@VC_FuncLadder@@@@QAE@XZ 240509d0 f i c_baseplayer.obj
 0001:0004f9e0       ??0?$CHandle@VC_BaseViewModel@@@@QAE@XZ 240509e0 f i c_baseplayer.obj
 0001:0004f9f0       ??0?$CSmartPtr@VWaterDebrisEffect@@VCRefCountAccessor@@@@QAE@XZ 240509f0 f i c_baseplayer.obj
 0001:0004fa00       ??C?$CSmartPtr@VWaterDebrisEffect@@VCRefCountAccessor@@@@QAEPAVWaterDebrisEffect@@XZ 24050a00 f i c_baseplayer.obj
 0001:0004fa10       ??8?$CSmartPtr@VWaterDebrisEffect@@VCRefCountAccessor@@@@QBE_NPBVWaterDebrisEffect@@@Z 24050a10 f i c_baseplayer.obj
 0001:0004fa20       ?GetLocalVelocity@C_BaseEntity@@QBEABVVector@@XZ 24050a20 f i c_baseplayer.obj
 0001:0004fa30       ??0?$CUtlMemory@V?$CHandle@VC_BaseEntity@@@@@@QAE@HH@Z 24050a30 f i c_baseplayer.obj
 0001:0004fa70       ?Get@?$CHandle@VC_BaseViewModel@@@@QBEPAVC_BaseViewModel@@XZ 24050a70 f i c_baseplayer.obj
 0001:0004faa0       ??$Release@VWaterDebrisEffect@@@CRefCountAccessor@@SAXPAVWaterDebrisEffect@@@Z 24050aa0 f i c_baseplayer.obj
 0001:0004fab0       ??$AddRef@VWaterDebrisEffect@@@CRefCountAccessor@@SAXPAVWaterDebrisEffect@@@Z 24050ab0 f i c_baseplayer.obj
 0001:0004fac0       ?GetEffects@C_BaseEntity@@QBEHXZ 24050ac0 f i c_baseplayer.obj
 0001:0004fad0       ?Get@NetworkVar_localSound@audioparams_t@@QBEABVVector@@H@Z 24050ad0 f i c_baseplayer.obj
 0001:0004fae0       ??0?$CNetworkVarBase@VQAngle@@VNetworkVar_m_vecPunchAngle@CPlayerLocalData@@@@QAE@XZ 24050ae0 f i c_baseplayer.obj
 0001:0004faf0       ??0?$CNetworkVarBase@VQAngle@@VNetworkVar_m_vecPunchAngleVel@CPlayerLocalData@@@@QAE@XZ 24050af0 f i c_baseplayer.obj
 0001:0004fb00       ??0NetworkVar_localSound@audioparams_t@@QAE@XZ 24050b00 f i c_baseplayer.obj
 0001:0004fb10       ??0?$CNetworkVarBase@VVector@@VNetworkVar_origin@sky3dparams_t@@@@QAE@XZ 24050b10 f i c_baseplayer.obj
 0001:0004fb20       ??0?$CNetworkVarBase@VVector@@VNetworkVar_dirPrimary@fogparams_t@@@@QAE@XZ 24050b20 f i c_baseplayer.obj
 0001:0004fb30       ??0?$CNetworkVarBase@VCBaseHandle@@VNetworkVar_ent@audioparams_t@@@@QAE@XZ 24050b30 f i c_baseplayer.obj
 0001:0004fb40       ??1CPlayerState@@UAE@XZ    24050b40 f i c_baseplayer.obj
 0001:0004fb50       ?NetworkStateChanged@CPlayerState@@UAEXXZ 24050b50 f i c_baseplayer.obj
 0001:0004fb60       ??_GCPlayerState@@UAEPAXI@Z 24050b60 f i c_baseplayer.obj
 0001:0004fb60       ??_ECPlayerState@@UAEPAXI@Z 24050b60 f i c_baseplayer.obj
 0001:0004fb80       ??1CUserCmd@@UAE@XZ        24050b80 f i c_baseplayer.obj
 0001:0004fb90       ?Reset@CUserCmd@@QAEXXZ    24050b90 f i c_baseplayer.obj
 0001:0004fbd0       ??_GCUserCmd@@UAEPAXI@Z    24050bd0 f i c_baseplayer.obj
 0001:0004fbf0       ??0TimedEvent@@QAE@XZ      24050bf0 f i c_baseplayer.obj
 0001:0004fc00       ?Init@TimedEvent@@QAEXM@Z  24050c00 f i c_baseplayer.obj
 0001:0004fc20       ?NextEvent@TimedEvent@@QAE_NAAM@Z 24050c20 f i c_baseplayer.obj
 0001:0004fc50       ?GetCommandContext@C_BasePlayer@@QAEPAVC_CommandContext@@XZ 24050c50 f i c_baseplayer.obj
 0001:0004fc60       ??0CPlayerState@@QAE@XZ    24050c60 f i c_baseplayer.obj
 0001:0004fc70       ??0?$CNetworkVarBase@V?$CHandle@VC_BaseCombatWeapon@@@@VNetworkVar_m_hLastWeapon@C_BasePlayer@@@@QAE@XZ 24050c70 f i c_baseplayer.obj
 0001:0004fc80       ??1C_CommandContext@@QAE@XZ 24050c80 f i c_baseplayer.obj
 0001:0004fc90       ?Spawn@C_BasePlayer@@UAEXXZ 24050c90 f   c_baseplayer.obj
 0001:0004fd10       ?IsHLTV@C_BasePlayer@@QBE_NXZ 24050d10 f   c_baseplayer.obj
 0001:0004fd40       ?GetObserverTarget@C_BasePlayer@@UBEPAVC_BaseEntity@@XZ 24050d40 f   c_baseplayer.obj
 0001:0004fd80       ?IsPlayerDead@C_BasePlayer@@QAE_NXZ 24050d80 f   c_baseplayer.obj
 0001:0004fd90       ?OnRestore@C_BasePlayer@@UAEXXZ 24050d90 f   c_baseplayer.obj
 0001:0004fdf0       ?OnDataChanged@C_BasePlayer@@UAEXW4DataUpdateType_t@@@Z 24050df0 f   c_baseplayer.obj
 0001:0004fed0       ?IsInVGuiInputMode@C_BasePlayer@@QBE_NXZ 24050ed0 f   c_baseplayer.obj
 0001:0004ff10       ?UpdateFlashlight@C_BasePlayer@@QAEXXZ 24050f10 f   c_baseplayer.obj
 0001:0004ffe0       ?Flashlight@C_BasePlayer@@QAEXXZ 24050fe0 f   c_baseplayer.obj
 0001:00050020       ?ShouldDraw@C_BasePlayer@@UAE_NXZ 24051020 f   c_baseplayer.obj
 0001:00050070       ?DrawModel@C_BasePlayer@@UAEHH@Z 24051070 f   c_baseplayer.obj
 0001:00050130       ?PreThink@C_BasePlayer@@UAEXXZ 24051130 f   c_baseplayer.obj
 0001:00050180       ?PostThink@C_BasePlayer@@UAEXXZ 24051180 f   c_baseplayer.obj
 0001:000501d0       ?GetActiveWeapon@C_BasePlayer@@UBEPAVC_BaseCombatWeapon@@XZ 240511d0 f   c_baseplayer.obj
 0001:00050220       ?GetAutoaimVector@C_BasePlayer@@UAE?AVVector@@M@Z 24051220 f   c_baseplayer.obj
 0001:000502b0       ?GetPunchAngle@C_BasePlayer@@QAEABVQAngle@@XZ 240512b0 f   c_baseplayer.obj
 0001:000502c0       ?RecvProxy_FOV@@YAXPBVCRecvProxyData@@PAX1@Z 240512c0 f   c_baseplayer.obj
 0001:00050340       ?RecvProxy_LocalVelocityX@@YAXPBVCRecvProxyData@@PAX1@Z 24051340 f   c_baseplayer.obj
 0001:00050390       ?RecvProxy_LocalVelocityY@@YAXPBVCRecvProxyData@@PAX1@Z 24051390 f   c_baseplayer.obj
 0001:000503e0       ?RecvProxy_LocalVelocityZ@@YAXPBVCRecvProxyData@@PAX1@Z 240513e0 f   c_baseplayer.obj
 0001:00050430       ?LeaveVehicle@C_BasePlayer@@QAEXXZ 24051430 f   c_baseplayer.obj
 0001:00050440       ?UTIL_TraceRay@@YAXABURay_t@@IPBVIHandleEntity@@HPAVCGameTrace@@@Z 24051440 f i c_baseplayer.obj
 0001:000504b0       ??B?$CHandle@VC_BaseViewModel@@@@QAEPAVC_BaseViewModel@@XZ 240514b0 f i c_baseplayer.obj
 0001:000504e0       ??1?$CSmartPtr@VWaterDebrisEffect@@VCRefCountAccessor@@@@QAE@XZ 240514e0 f i c_baseplayer.obj
 0001:000504f0       ??4?$CSmartPtr@VWaterDebrisEffect@@VCRefCountAccessor@@@@QAEPAVWaterDebrisEffect@@PAV1@@Z 240514f0 f i c_baseplayer.obj
 0001:00050520       ??ANetworkVar_localSound@audioparams_t@@QBEABVVector@@H@Z 24051520 f i c_baseplayer.obj
 0001:00050530       ??0?$CNetworkVectorBase@VQAngle@@VNetworkVar_m_vecPunchAngle@CPlayerLocalData@@@@QAE@XZ 24051530 f i c_baseplayer.obj
 0001:00050540       ??0?$CNetworkVectorBase@VQAngle@@VNetworkVar_m_vecPunchAngleVel@CPlayerLocalData@@@@QAE@XZ 24051540 f i c_baseplayer.obj
 0001:00050550       ??0?$CNetworkVectorBase@VVector@@VNetworkVar_origin@sky3dparams_t@@@@QAE@XZ 24051550 f i c_baseplayer.obj
 0001:00050560       ??0?$CNetworkVectorBase@VVector@@VNetworkVar_dirPrimary@fogparams_t@@@@QAE@XZ 24051560 f i c_baseplayer.obj
 0001:00050570       ??0?$CNetworkHandleBase@VC_BaseEntity@@VNetworkVar_ent@audioparams_t@@@@QAE@XZ 24051570 f i c_baseplayer.obj
 0001:00050580       ?Purge@?$CUtlMemory@V?$CHandle@VC_BaseEntity@@@@@@QAEXXZ 24051580 f i c_baseplayer.obj
 0001:000505b0       ??0CUserCmd@@QAE@XZ        240515b0 f i c_baseplayer.obj
 0001:000505f0       ??$ClientClassInit@Uignored@DT_Local@@@@YAHPAUignored@DT_Local@@@Z 240515f0 f   c_baseplayer.obj
 0001:00050bc0       ??$ClientClassInit@Uignored@DT_LocalPlayerExclusive@@@@YAHPAUignored@DT_LocalPlayerExclusive@@@Z 24051bc0 f   c_baseplayer.obj
 0001:00050f80       ??0C_CommandContext@@QAE@XZ 24051f80 f i c_baseplayer.obj
 0001:00050fc0       ?GetGroundSurface@C_BasePlayer@@IAEPAUsurfacedata_t@@XZ 24051fc0 f   c_baseplayer.obj
 0001:00051090       ?SetVehicleRole@C_BasePlayer@@UAEXH@Z 24052090 f   c_baseplayer.obj
 0001:00051100       ?JustEnteredVehicle@C_BasePlayer@@IAE_NXZ 24052100 f   c_baseplayer.obj
 0001:000511a0       ?DetermineVguiInputMode@C_BasePlayer@@IAEXPAVCUserCmd@@@Z 240521a0 f   c_baseplayer.obj
 0001:00051350       ?CreateMove@C_BasePlayer@@UAEXMPAVCUserCmd@@@Z 24052350 f   c_baseplayer.obj
 0001:00051450       ?CreateWaterEffects@C_BasePlayer@@QAEXXZ 24052450 f   c_baseplayer.obj
 0001:00051820       ?CalcChaseCamView@C_BasePlayer@@IAEXAAVVector@@AAVQAngle@@AAM@Z 24052820 f   c_baseplayer.obj
 0001:00051af0       ?CalcInEyeCamView@C_BasePlayer@@IAEXAAVVector@@AAVQAngle@@AAM@Z 24052af0 f   c_baseplayer.obj
 0001:00051c40       ?CalcDeathCamView@C_BasePlayer@@IAEXAAVVector@@AAVQAngle@@AAM@Z 24052c40 f   c_baseplayer.obj
 0001:00051ef0       ?Simulate@C_BasePlayer@@UAEXXZ 24052ef0 f   c_baseplayer.obj
 0001:00051f80       ?GetViewModel@C_BasePlayer@@QAEPAVC_BaseViewModel@@H@Z 24052f80 f   c_baseplayer.obj
 0001:00051ff0       ?PhysicsSimulate@C_BasePlayer@@UAEXXZ 24052ff0 f   c_baseplayer.obj
 0001:000520f0       ?GetFOV@C_BasePlayer@@UAEMXZ 240530f0 f   c_baseplayer.obj
 0001:00052230       ?GetPredictionErrorSmoothingVector@C_BasePlayer@@QAEXAAVVector@@@Z 24053230 f   c_baseplayer.obj
 0001:00052300       ??1?$CUtlMemory@V?$CHandle@VC_BaseEntity@@@@@@QAE@XZ 24053300 f i c_baseplayer.obj
 0001:00052330       ??0fogparams_t@@QAE@XZ     24053330 f i c_baseplayer.obj
 0001:00052340       ?NetworkStateChanged@fogparams_t@@UAEXXZ 24053340 f i c_baseplayer.obj
 0001:00052350       ??0audioparams_t@@QAE@XZ   24053350 f i c_baseplayer.obj
 0001:00052360       ?NetworkStateChanged@audioparams_t@@UAEXXZ 24053360 f i c_baseplayer.obj
 0001:00052370       ??0NetworkVar_fog@sky3dparams_t@@QAE@XZ 24053370 f i c_baseplayer.obj
 0001:00052380       ?NetworkStateChanged@NetworkVar_fog@sky3dparams_t@@UAEXXZ 24053380 f i c_baseplayer.obj
 0001:00052390       ?AddEntity@C_BasePlayer@@UAEXXZ 24053390 f   c_baseplayer.obj
 0001:00052400       ?CalcRoamingView@C_BasePlayer@@IAEXAAVVector@@AAVQAngle@@AAM@Z 24053400 f   c_baseplayer.obj
 0001:00052570       ?GetRenderedWeaponModel@C_BasePlayer@@UAEPAVC_BaseAnimating@@XZ 24053570 f   c_baseplayer.obj
 0001:000525a0       ??0?$CUtlVector@V?$CHandle@VC_BaseEntity@@@@V?$CUtlMemory@V?$CHandle@VC_BaseEntity@@@@@@@@QAE@HH@Z 240535a0 f i c_baseplayer.obj
 0001:000525e0       ?Purge@?$CUtlVector@V?$CHandle@VC_BaseEntity@@@@V?$CUtlMemory@V?$CHandle@VC_BaseEntity@@@@@@@@QAEXXZ 240535e0 f i c_baseplayer.obj
 0001:00052620       ??0sky3dparams_t@@QAE@XZ   24053620 f i c_baseplayer.obj
 0001:00052630       ?NetworkStateChanged@sky3dparams_t@@UAEXXZ 24053630 f i c_baseplayer.obj
 0001:00052640       ?PostDataUpdate@C_BasePlayer@@UAEXW4DataUpdateType_t@@@Z 24053640 f   c_baseplayer.obj
 0001:00052860       ?SetPunchAngle@C_BasePlayer@@QAEXABVQAngle@@@Z 24053860 f   c_baseplayer.obj
 0001:00052870       ??1?$CUtlVector@V?$CHandle@VC_BaseEntity@@@@V?$CUtlMemory@V?$CHandle@VC_BaseEntity@@@@@@@@QAE@XZ 24053870 f i c_baseplayer.obj
 0001:000528d0       ?AddVar@C_BasePlayer@@QAEXPAXPAVIInterpolatedVar@@H_N@Z 240538d0 f i c_baseplayer.obj
 0001:00052940       ?PlayPlayerJingle@C_BasePlayer@@UAEXXZ 24053940 f   c_baseplayer.obj
 0001:00052ac0       ??1CPlayerLocalData@@QAE@XZ 24053ac0 f i c_baseplayer.obj
 0001:00052ad0       ??0CPlayerLocalData@@QAE@XZ 24053ad0 f i c_baseplayer.obj
 0001:00052b70       ?NetworkStateChanged@CPlayerLocalData@@UAEXXZ 24053b70 f i c_baseplayer.obj
 0001:00052b80       ??0NetworkVar_m_Local@C_BasePlayer@@QAE@XZ 24053b80 f i c_baseplayer.obj
 0001:00052ba0       ?NetworkStateChanged@NetworkVar_m_Local@C_BasePlayer@@UAEXXZ 24053ba0 f i c_baseplayer.obj
 0001:00052bb0       ??1NetworkVar_m_Local@C_BasePlayer@@QAE@XZ 24053bb0 f i c_baseplayer.obj
 0001:00052bc0       ??1C_BasePlayer@@UAE@XZ    24053bc0 f   c_baseplayer.obj
 0001:00052cb0       ?GetVarMapping@C_BasePlayer@@UAEPAUVarMapping_t@@XZ 24053cb0 f i c_baseplayer.obj
 0001:00052ce0       ?Weapon_DropPrimary@C_BasePlayer@@UAEXXZ 24053ce0 f i c_baseplayer.obj
 0001:00052cf0       ?IsPlayer@C_BasePlayer@@UBE_NXZ 24053cf0 f i c_baseplayer.obj
 0001:00052d00       ?GetHealth@C_BasePlayer@@UBEHXZ 24053d00 f i c_baseplayer.obj
 0001:00052d10       ?IsOverridingViewmodel@C_BasePlayer@@UAE_NXZ 24053d10 f i c_baseplayer.obj
 0001:00052d20       ?DrawOverriddenViewmodel@C_BasePlayer@@UAEHPAVC_BaseViewModel@@H@Z 24053d20 f i c_baseplayer.obj
 0001:00052d30       ?GetDefaultAnimSpeed@C_BasePlayer@@UAEMXZ 24053d30 f i c_baseplayer.obj
 0001:00052d40       ?ShadowCastType@C_BasePlayer@@UAE?AW4ShadowType_t@@XZ 24053d40 f i c_baseplayer.obj
 0001:00052d50       ?ShouldReceiveProjectedTextures@C_BasePlayer@@UAE_NH@Z 24053d50 f i c_baseplayer.obj
 0001:00052d60       ?PhysicsSolidMaskForEntity@C_BasePlayer@@UBEIXZ 24053d60 f i c_baseplayer.obj
 0001:00052d70       ?Weapon_ShouldSetLast@C_BasePlayer@@UAE_NPAVC_BaseCombatWeapon@@0@Z 24053d70 f i c_baseplayer.obj
 0001:00052d80       ?IsZoomed@C_BasePlayer@@UAE_NXZ 24053d80 f i c_baseplayer.obj
 0001:00052d90       ?ExitLadder@C_BasePlayer@@UAEXXZ 24053d90 f i c_baseplayer.obj
 0001:00052da0       ?IsAllowedToSwitchWeapons@C_BasePlayer@@UAE_NXZ 24053da0 f i c_baseplayer.obj
 0001:00052de0       ?GetLastWeapon@C_BasePlayer@@UAEPAVC_BaseCombatWeapon@@XZ 24053de0 f i c_baseplayer.obj
 0001:00052df0       ??0C_BasePlayer@@QAE@XZ    24053df0 f   c_baseplayer.obj
 0001:00052ff0       ??_EC_BasePlayer@@UAEPAXI@Z 24053ff0 f i c_baseplayer.obj
 0001:00052ff0       ??_GC_BasePlayer@@UAEPAXI@Z 24053ff0 f i c_baseplayer.obj
 0001:00053070       ??0CplayerFoo@@QAE@XZ      24054070 f i c_baseplayer.obj
 0001:000530a0       ?IsViewModel@C_BaseViewModel@@MBE_NXZ 240540a0 f   c_baseviewmodel.obj
 0001:000530b0       ?ShouldFlipViewModel@C_BaseViewModel@@QAE_NXZ 240540b0 f i c_baseviewmodel.obj
 0001:000530c0       ?DrawOverriddenViewmodel@C_BaseViewModel@@QAEHH@Z 240540c0 f   c_baseviewmodel.obj
 0001:000530d0       ?OnDataChanged@C_BaseViewModel@@UAEXW4DataUpdateType_t@@@Z 240540d0 f   c_baseviewmodel.obj
 0001:000530f0       ?PostDataUpdate@C_BaseViewModel@@UAEXW4DataUpdateType_t@@@Z 240540f0 f   c_baseviewmodel.obj
 0001:00053120       ?GetBoneControllers@C_BaseViewModel@@UAEXQAM@Z 24054120 f   c_baseviewmodel.obj
 0001:00053150       ?GetRenderGroup@C_BaseViewModel@@UAE?AW4RenderGroup_t@@XZ 24054150 f   c_baseviewmodel.obj
 0001:00053160       ?FormatViewModelAttachment@@YAXAAVVector@@_N@Z 24054160 f   c_baseviewmodel.obj
 0001:00053410       ?FormatViewModelAttachment@C_BaseViewModel@@MAEXHAAVVector@@AAVQAngle@@@Z 24054410 f   c_baseviewmodel.obj
 0001:00053430       ?UncorrectViewModelAttachment@C_BaseViewModel@@UAEXAAVVector@@@Z 24054430 f   c_baseviewmodel.obj
 0001:00053450       ?FireEvent@C_BaseViewModel@@UAEXABVVector@@ABVQAngle@@HPBD@Z 24054450 f   c_baseviewmodel.obj
 0001:00053510       ?ApplyBoneMatrixTransform@C_BaseViewModel@@UAEXAAUmatrix3x4_t@@@Z 24054510 f   c_baseviewmodel.obj
 0001:00053520       ?DrawModel@C_BaseViewModel@@UAEHH@Z 24054520 f   c_baseviewmodel.obj
 0001:00053630       ?GetFxBlend@C_BaseViewModel@@UAEHXZ 24054630 f   c_baseviewmodel.obj
 0001:00053660       ?IsTransparent@C_BaseViewModel@@UAE_NXZ 24054660 f   c_baseviewmodel.obj
 0001:000536a0       ?UpdateAnimationParity@C_BaseViewModel@@QAEXXZ 240546a0 f   c_baseviewmodel.obj
 0001:00053720       ?AddEntity@C_BaseViewModel@@UAEXXZ 24054720 f   c_baseviewmodel.obj
 0001:00053740       ?Interpolate@C_BaseViewModel@@UAE_NM@Z 24054740 f   c_baseviewmodel.obj
 0001:00053850       ?GetClassName@C_BreakableProp@@UAEPBDXZ 24054850 f   c_breakableprop.obj
 0001:00053860       ?YouForgotToImplementOrDeclareClientClass@C_BreakableProp@@UAEHXZ 24054860 f   c_breakableprop.obj
 0001:00053870       ?GetClientClass@C_BreakableProp@@UAEPAVClientClass@@XZ 24054870 f   c_breakableprop.obj
 0001:00053880       ??$ClientClassInit@Uignored@DT_BreakableProp@@@@YAHPAUignored@DT_BreakableProp@@@Z 24054880 f   c_breakableprop.obj
 0001:00053950       ??0C_BreakableProp@@QAE@XZ 24054950 f   c_breakableprop.obj
 0001:000539a0       ?GetClientSideFade@C_BreakableProp@@UAEEXZ 240549a0 f   c_breakableprop.obj
 0001:000539c0       ?SetFadeMinMax@C_BreakableProp@@UAEXMM@Z 240549c0 f   c_breakableprop.obj
 0001:000539e0       ?CopyFadeFrom@C_BreakableProp@@QAEXPAV1@@Z 240549e0 f   c_breakableprop.obj
 0001:00053a40       ??_GC_BreakableProp@@UAEPAXI@Z 24054a40 f i c_breakableprop.obj
 0001:00053a40       ??_EC_BreakableProp@@UAEPAXI@Z 24054a40 f i c_breakableprop.obj
 0001:00053a60       ?GetClassName@C_DynamicLight@@UAEPBDXZ 24054a60 f   c_dynamiclight.obj
 0001:00053a70       ?YouForgotToImplementOrDeclareClientClass@C_DynamicLight@@UAEHXZ 24054a70 f   c_dynamiclight.obj
 0001:00053a80       ?GetClientClass@C_DynamicLight@@UAEPAVClientClass@@XZ 24054a80 f   c_dynamiclight.obj
 0001:00053a90       ??$ClientClassInit@Uignored@DT_DynamicLight@@@@YAHPAUignored@DT_DynamicLight@@@Z 24054a90 f   c_dynamiclight.obj
 0001:00053bc0       ??0C_DynamicLight@@QAE@XZ  24054bc0 f   c_dynamiclight.obj
 0001:00053c00       ?OnDataChanged@C_DynamicLight@@UAEXW4DataUpdateType_t@@@Z 24054c00 f   c_dynamiclight.obj
 0001:00053c30       ?ShouldDraw@C_DynamicLight@@UAE_NXZ 24054c30 f   c_dynamiclight.obj
 0001:00053cb0       ??_GC_DynamicLight@@UAEPAXI@Z 24054cb0 f i c_dynamiclight.obj
 0001:00053cb0       ??_EC_DynamicLight@@UAEPAXI@Z 24054cb0 f i c_dynamiclight.obj
 0001:00053cd0       ?ClientThink@C_DynamicLight@@UAEXXZ 24054cd0 f   c_dynamiclight.obj
 0001:00054040       ?GetClassName@C_EntityDissolve@@UAEPBDXZ 24055040 f   c_entitydissolve.obj
 0001:00054050       ?YouForgotToImplementOrDeclareClientClass@C_EntityDissolve@@UAEHXZ 24055050 f   c_entitydissolve.obj
 0001:00054060       ?GetClientClass@C_EntityDissolve@@UAEPAVClientClass@@XZ 24055060 f   c_entitydissolve.obj
 0001:00054070       ??$ClientClassInit@Uignored@DT_EntityDissolve@@@@YAHPAUignored@DT_EntityDissolve@@@Z 24055070 f   c_entitydissolve.obj
 0001:000541c0       ??0IMotionEvent@@QAE@XZ    240551c0 f i c_entitydissolve.obj
 0001:000541d0       ?OnDataChanged@C_EntityDissolve@@UAEXW4DataUpdateType_t@@@Z 240551d0 f   c_entitydissolve.obj
 0001:00054210       ?UpdateOnRemove@C_EntityDissolve@@UAEXXZ 24055210 f   c_entitydissolve.obj
 0001:00054240       ?GetFadeInPercentage@C_EntityDissolve@@IAEMXZ 24055240 f   c_entitydissolve.obj
 0001:000542c0       ?GetFadeOutPercentage@C_EntityDissolve@@IAEMXZ 240552c0 f   c_entitydissolve.obj
 0001:00054330       ?GetModelFadeOutPercentage@C_EntityDissolve@@IAEMXZ 24055330 f   c_entitydissolve.obj
 0001:000543a0       ??XVector2D@@QAEAAV0@M@Z   240553a0 f i c_entitydissolve.obj
 0001:000543c0       ?Vector2DMax@@YAXABVVector2D@@0AAV1@@Z 240553c0 f i c_entitydissolve.obj
 0001:00054400       ??0?$CSmartPtr@VCSimpleEmitter@@VCRefCountAccessor@@@@QAE@XZ 24055400 f i c_entitydissolve.obj
 0001:00054410       ??C?$CSmartPtr@VCSimpleEmitter@@VCRefCountAccessor@@@@QAEPAVCSimpleEmitter@@XZ 24055410 f i c_entitydissolve.obj
 0001:00054420       ??7?$CSmartPtr@VCSimpleEmitter@@VCRefCountAccessor@@@@QBE_NXZ 24055420 f i c_entitydissolve.obj
 0001:00054430       ?anglemod@@YAMM@Z          24055430 f i c_entitydissolve.obj
 0001:00054470       ??$Release@VCSimpleEmitter@@@CRefCountAccessor@@SAXPAVCSimpleEmitter@@@Z 24055470 f i c_entitydissolve.obj
 0001:00054480       ??$AddRef@VCSimpleEmitter@@@CRefCountAccessor@@SAXPAVCSimpleEmitter@@@Z 24055480 f i c_entitydissolve.obj
 0001:00054490       ?ReleaseRagdoll@C_ClientRagdoll@@QAEXXZ 24055490 f i c_entitydissolve.obj
 0001:000544a0       ??0BeamInfo_t@@QAE@XZ      240554a0 f i c_entitydissolve.obj
 0001:000544c0       ?Cache@ClientEffectRegister@PrecacheEffectBuild@@UAEX_N@Z 240554c0 f   c_entitydissolve.obj
 0001:00054520       ??0ClientEffectRegister@PrecacheEffectBuild@@QAE@XZ 24055520 f i c_entitydissolve.obj
 0001:00054540       ?Simulate@C_EntityDissolve@@UAE?AW4simresult_e@IMotionEvent@@PAVIPhysicsMotionController@@PAVIPhysicsObject@@MAAVVector@@2@Z 24055540 f   c_entitydissolve.obj
 0001:00054850       ?ComputeRenderInfo@C_EntityDissolve@@IAEXPAUmstudiobbox_t@@ABUmatrix3x4_t@@PAVVector@@22@Z 24055850 f   c_entitydissolve.obj
 0001:00054be0       ??1?$CSmartPtr@VCSimpleEmitter@@VCRefCountAccessor@@@@QAE@XZ 24055be0 f i c_entitydissolve.obj
 0001:00054bf0       ??4?$CSmartPtr@VCSimpleEmitter@@VCRefCountAccessor@@@@QAEPAVCSimpleEmitter@@PAV1@@Z 24055bf0 f i c_entitydissolve.obj
 0001:00054c20       ??0C_EntityDissolve@@QAE@XZ 24055c20 f   c_entitydissolve.obj
 0001:00054c70       ?ShouldDraw@C_EntityDissolve@@UAE_NXZ 24055c70 f i c_entitydissolve.obj
 0001:00054c80       ?GetRenderBounds@C_EntityDissolve@@UAEXAAVVector@@0@Z 24055c80 f   c_entitydissolve.obj
 0001:00054d10       ?BuildTeslaEffect@C_EntityDissolve@@IAEXPAUmstudiobbox_t@@ABUmatrix3x4_t@@_NM@Z 24055d10 f   c_entitydissolve.obj
 0001:000551f0       ?DoSparks@C_EntityDissolve@@IAEXPAUmstudiohitboxset_t@@QAPAUmatrix3x4_t@@@Z 240561f0 f   c_entitydissolve.obj
 0001:00055380       ??4?$CSmartPtr@VCSimpleEmitter@@VCRefCountAccessor@@@@QAEXABV0@@Z 24056380 f i c_entitydissolve.obj
 0001:000553f0       ??_EC_EntityDissolve@@UAEPAXI@Z 240563f0 f i c_entitydissolve.obj
 0001:000553f0       ??_GC_EntityDissolve@@UAEPAXI@Z 240563f0 f i c_entitydissolve.obj
 0001:00055420       ?SetupEmitter@C_EntityDissolve@@QAEXXZ 24056420 f   c_entitydissolve.obj
 0001:00055490       ?DrawModel@C_EntityDissolve@@UAEHH@Z 24056490 f   c_entitydissolve.obj
 0001:00055dc0       ?ClientThink@C_EntityDissolve@@UAEXXZ 24056dc0 f   c_entitydissolve.obj
 0001:00055fb0       ?GetClassName@C_EntityParticleTrail@@UAEPBDXZ 24056fb0 f   c_entityparticletrail.obj
 0001:00055fc0       ?YouForgotToImplementOrDeclareClientClass@C_EntityParticleTrail@@UAEHXZ 24056fc0 f   c_entityparticletrail.obj
 0001:00055fd0       ?GetClientClass@C_EntityParticleTrail@@UAEPAVClientClass@@XZ 24056fd0 f   c_entityparticletrail.obj
 0001:00055fe0       ??$ClientClassInit@Uignored@DT_EntityParticleTrail@@@@YAHPAUignored@DT_EntityParticleTrail@@@Z 24056fe0 f   c_entityparticletrail.obj
 0001:000560a0       ??B?$CNetworkVarBase@MVNetworkVar_m_flLifetime@EntityParticleTrailInfo_t@@@@QBE?BMXZ 240570a0 f i c_entityparticletrail.obj
 0001:000560b0       ??B?$CNetworkVarBase@MVNetworkVar_m_flStartSize@EntityParticleTrailInfo_t@@@@QBE?BMXZ 240570b0 f i c_entityparticletrail.obj
 0001:000560c0       ??B?$CNetworkVarBase@MVNetworkVar_m_flEndSize@EntityParticleTrailInfo_t@@@@QBE?BMXZ 240570c0 f i c_entityparticletrail.obj
 0001:000560d0       ??1C_BaseParticleEntity@@UAE@XZ 240570d0 f i c_entityparticletrail.obj
 0001:00056110       ??1C_EntityParticleTrail@@UAE@XZ 24057110 f   c_entityparticletrail.obj
 0001:00056170       ??_EC_EntityParticleTrail@@WEIA@AEPAXI@Z 24057170 f i c_entityparticletrail.obj
 0001:00056180       ?Start@C_EntityParticleTrail@@AAEXXZ 24057180 f   c_entityparticletrail.obj
 0001:000561f0       ?SimulateParticles@C_EntityParticleTrail@@UAEXPAVCParticleSimulateIterator@@@Z 240571f0 f i c_entityparticletrail.obj
 0001:000562a0       ??0C_EntityParticleTrail@@QAE@XZ 240572a0 f   c_entityparticletrail.obj
 0001:00056300       ??_EC_EntityParticleTrail@@UAEPAXI@Z 24057300 f i c_entityparticletrail.obj
 0001:00056300       ??_GC_EntityParticleTrail@@UAEPAXI@Z 24057300 f i c_entityparticletrail.obj
 0001:00056320       ?OnDataChanged@C_EntityParticleTrail@@UAEXW4DataUpdateType_t@@@Z 24057320 f   c_entityparticletrail.obj
 0001:00056340       ?AddParticle@C_EntityParticleTrail@@AAEXMABVVector@@0ABUmatrix3x4_t@@@Z 24057340 f   c_entityparticletrail.obj
 0001:00056560       ?Update@C_EntityParticleTrail@@UAEXM@Z 24057560 f   c_entityparticletrail.obj
 0001:00056710       ?RenderParticles@C_EntityParticleTrail@@UAEXPAVCParticleRenderIterator@@@Z 24057710 f i c_entityparticletrail.obj
 0001:00056840       ?TransformParticle@@YAXABVVMatrix@@ABVVector@@AAV2@@Z 24057840 f i c_entityparticletrail.obj
 0001:000568a0       ?GetFirst@CParticleRenderIterator@@QAEPBUParticle@@XZ 240578a0 f i c_entityparticletrail.obj
 0001:000568d0       ?RenderParticle_ColorSize@@YAXPAVParticleDraw@@ABVVector@@1MM@Z 240578d0 f i c_entityparticletrail.obj
 0001:00056aa0       ?GetNext@CParticleRenderIterator@@QAEPBUParticle@@M@Z 24057aa0 f i c_entityparticletrail.obj
 0001:00056b80       ?TestFlushBatch@CParticleRenderIterator@@AAEXXZ 24057b80 f i c_entityparticletrail.obj
 0001:00056c10       ?GetClassName@C_EnvParticleScript@@UAEPBDXZ 24057c10 f   c_env_particlescript.obj
 0001:00056c20       ?YouForgotToImplementOrDeclareClientClass@C_EnvParticleScript@@UAEHXZ 24057c20 f   c_env_particlescript.obj
 0001:00056c30       ?GetClientClass@C_EnvParticleScript@@UAEPAVClientClass@@XZ 24057c30 f   c_env_particlescript.obj
 0001:00056c40       ??$ClientClassInit@Uignored@DT_EnvParticleScript@@@@YAHPAUignored@DT_EnvParticleScript@@@Z 24057c40 f   c_env_particlescript.obj
 0001:00056cd0       ?DestroyAllParticles@C_EnvParticleScript@@AAEXPBD@Z 24057cd0 f   c_env_particlescript.obj
 0001:00056d40       ?DestroyAllParticles@C_EnvParticleScript@@AAEXXZ 24057d40 f   c_env_particlescript.obj
 0001:00056da0       ?GetSortOrigin@C_EnvParticleScript@@UAEABVVector@@XZ 24057da0 f   c_env_particlescript.obj
 0001:00056db0       ?RoundFloatToInt@@YAHM@Z   24057db0 f i c_env_particlescript.obj
 0001:00056dc0       ?GetModelView@CParticleMgr@@QAEAAVVMatrix@@XZ 24057dc0 f i c_env_particlescript.obj
 0001:00056dd0       ?UnlinkParticle@@YAXPAUParticle@@@Z 24057dd0 f i c_env_particlescript.obj
 0001:00056df0       ?InsertParticleBefore@@YAXPAUParticle@@0@Z 24057df0 f i c_env_particlescript.obj
 0001:00056e10       ?SwapParticles@@YAXPAUParticle@@0@Z 24057e10 f i c_env_particlescript.obj
 0001:00056e40       ?Position3f@CMeshBuilder@@QAEXMMM@Z 24057e40 f i c_env_particlescript.obj
 0001:00056e60       ?GetMeshBuilder@ParticleDraw@@QAEPAVCMeshBuilder@@XZ 24057e60 f i c_env_particlescript.obj
 0001:00056e70       ?GetParticleDraw@CParticleRenderIterator@@QBEPAVParticleDraw@@XZ 24057e70 f i c_env_particlescript.obj
 0001:00056e80       ?GetFirst@CParticleSimulateIterator@@QAEPAUParticle@@XZ 24057e80 f i c_env_particlescript.obj
 0001:00056ea0       ?GetNext@CParticleSimulateIterator@@QAEPAUParticle@@XZ 24057ea0 f i c_env_particlescript.obj
 0001:00056ec0       ?RemoveParticle@CParticleSimulateIterator@@QAEXPAUParticle@@@Z 24057ec0 f i c_env_particlescript.obj
 0001:00056ed0       ??0C_EnvParticleScript@@QAE@XZ 24057ed0 f   c_env_particlescript.obj
 0001:00056f20       ?ShouldDraw@C_EnvParticleScript@@UAE_NXZ 24057f20 f i c_env_particlescript.obj
 0001:00056f30       ?DrawModel@C_EnvParticleScript@@UAEHH@Z 24057f30 f i c_env_particlescript.obj
 0001:00056f40       ?GetFxBlend@C_EnvParticleScript@@UAEHXZ 24057f40 f i c_env_particlescript.obj
 0001:00056f50       ??_EC_EnvParticleScript@@WHII@AEPAXI@Z 24057f50 f i c_env_particlescript.obj
 0001:00056f60       ?OnPreDataChanged@C_EnvParticleScript@@UAEXW4DataUpdateType_t@@@Z 24057f60 f   c_env_particlescript.obj
 0001:00056f80       ?OnDataChanged@C_EnvParticleScript@@UAEXW4DataUpdateType_t@@@Z 24057f80 f   c_env_particlescript.obj
 0001:00056fd0       ?CreateParticle@C_EnvParticleScript@@AAEXPBD0@Z 24057fd0 f   c_env_particlescript.obj
 0001:00057120       ?FireEvent@C_EnvParticleScript@@UAEXABVVector@@ABVQAngle@@HPBD@Z 24058120 f   c_env_particlescript.obj
 0001:000571f0       ?SimulateParticles@C_EnvParticleScript@@UAEXPAVCParticleSimulateIterator@@@Z 240581f0 f   c_env_particlescript.obj
 0001:00057310       ??_GC_EnvParticleScript@@UAEPAXI@Z 24058310 f i c_env_particlescript.obj
 0001:00057310       ??_EC_EnvParticleScript@@UAEPAXI@Z 24058310 f i c_env_particlescript.obj
 0001:00057350       ?RenderParticles@C_EnvParticleScript@@UAEXPAVCParticleRenderIterator@@@Z 24058350 f   c_env_particlescript.obj
 0001:00057470       ?GetClassName@C_EnvScreenOverlay@@UAEPBDXZ 24058470 f   c_env_screenoverlay.obj
 0001:00057480       ?YouForgotToImplementOrDeclareClientClass@C_EnvScreenOverlay@@UAEHXZ 24058480 f   c_env_screenoverlay.obj
 0001:00057490       ?GetClientClass@C_EnvScreenOverlay@@UAEPAVClientClass@@XZ 24058490 f   c_env_screenoverlay.obj
 0001:000574a0       ??0C_EnvScreenOverlay@@QAE@XZ 240584a0 f i c_env_screenoverlay.obj
 0001:000574d0       ??$ClientClassInit@Uignored@DT_EnvScreenOverlay@@@@YAHPAUignored@DT_EnvScreenOverlay@@@Z 240584d0 f   c_env_screenoverlay.obj
 0001:00057600       ?PreDataUpdate@C_EnvScreenOverlay@@UAEXW4DataUpdateType_t@@@Z 24058600 f   c_env_screenoverlay.obj
 0001:00057620       ?StopOverlays@C_EnvScreenOverlay@@QAEXXZ 24058620 f   c_env_screenoverlay.obj
 0001:000576c0       ??_GC_EnvScreenOverlay@@UAEPAXI@Z 240586c0 f i c_env_screenoverlay.obj
 0001:000576c0       ??_EC_EnvScreenOverlay@@UAEPAXI@Z 240586c0 f i c_env_screenoverlay.obj
 0001:000576e0       ?StartCurrentOverlay@C_EnvScreenOverlay@@QAEXXZ 240586e0 f   c_env_screenoverlay.obj
 0001:000577e0       ?ClientThink@C_EnvScreenOverlay@@UAEXXZ 240587e0 f   c_env_screenoverlay.obj
 0001:00057820       ?HandleOverlaySwitch@C_EnvScreenOverlay@@QAEXXZ 24058820 f   c_env_screenoverlay.obj
 0001:00057840       ?StartOverlays@C_EnvScreenOverlay@@QAEXXZ 24058840 f   c_env_screenoverlay.obj
 0001:00057890       ?PostDataUpdate@C_EnvScreenOverlay@@UAEXW4DataUpdateType_t@@@Z 24058890 f   c_env_screenoverlay.obj
 0001:00057990       ?GetSmokeMaterial@CLitSmokeEmitter@@QBEPAVCParticleSubTexture@@XZ 24058990 f i c_fire_smoke.obj
 0001:000579a0       ?RecvProxy_Scale@@YAXPBVCRecvProxyData@@PAX1@Z 240589a0 f   c_fire_smoke.obj
 0001:000579f0       ?RecvProxy_ScaleTime@@YAXPBVCRecvProxyData@@PAX1@Z 240589f0 f   c_fire_smoke.obj
 0001:00057a70       ?GetClassName@C_FireSmoke@@UAEPBDXZ 24058a70 f   c_fire_smoke.obj
 0001:00057a80       ?YouForgotToImplementOrDeclareClientClass@C_FireSmoke@@UAEHXZ 24058a80 f   c_fire_smoke.obj
 0001:00057a90       ?GetClientClass@C_FireSmoke@@UAEPAVClientClass@@XZ 24058a90 f   c_fire_smoke.obj
 0001:00057aa0       ??$ClientClassInit@Uignored@DT_FireSmoke@@@@YAHPAUignored@DT_FireSmoke@@@Z 24058aa0 f   c_fire_smoke.obj
 0001:00057ba0       ??_I@YGXPAXIHP6EX0@Z@Z     24058ba0 f i c_fire_smoke.obj
 0001:00057be0       ??1C_Sprite@@UAE@XZ        24058be0 f i c_fire_smoke.obj
 0001:00057bf0       ?UpdateScale@C_FireSmoke@@IAEXXZ 24058bf0 f   c_fire_smoke.obj
 0001:00057cb0       ?GetClassName@C_EntityFlame@@UAEPBDXZ 24058cb0 f   c_fire_smoke.obj
 0001:00057cc0       ?YouForgotToImplementOrDeclareClientClass@C_EntityFlame@@UAEHXZ 24058cc0 f   c_fire_smoke.obj
 0001:00057cd0       ?GetClientClass@C_EntityFlame@@UAEPAVClientClass@@XZ 24058cd0 f   c_fire_smoke.obj
 0001:00057ce0       ??$ClientClassInit@Uignored@DT_EntityFlame@@@@YAHPAUignored@DT_EntityFlame@@@Z 24058ce0 f   c_fire_smoke.obj
 0001:00057da0       ?GetRenderGroup@C_EntityFlame@@UAE?AW4RenderGroup_t@@XZ 24058da0 f   c_fire_smoke.obj
 0001:00057db0       ?CalcBoxVolume@@YAMABVVector@@0@Z 24058db0 f i c_fire_smoke.obj
 0001:00057dd0       ?SortHitboxVolumes@@YAHPAUHitboxVolume_t@@0@Z 24058dd0 f   c_fire_smoke.obj
 0001:00057e30       ??B?$CNetworkVarBase@MVNetworkVar_m_flSpriteFramerate@C_Sprite@@@@QBE?BMXZ 24058e30 f i c_fire_smoke.obj
 0001:00057e40       ??B?$CNetworkVarBase@MVNetworkVar_m_flFrame@C_Sprite@@@@QBE?BMXZ 24058e40 f i c_fire_smoke.obj
 0001:00057e50       ??B?$CNetworkVarBase@MVNetworkVar_m_flSpriteScale@C_Sprite@@@@QBE?BMXZ 24058e50 f i c_fire_smoke.obj
 0001:00057e60       ??0?$CSmartPtr@VCLitSmokeEmitter@@VCRefCountAccessor@@@@QAE@XZ 24058e60 f i c_fire_smoke.obj
 0001:00057e70       ??C?$CSmartPtr@VCLitSmokeEmitter@@VCRefCountAccessor@@@@QAEPAVCLitSmokeEmitter@@XZ 24058e70 f i c_fire_smoke.obj
 0001:00057e80       ?IsValid@?$CSmartPtr@VCLitSmokeEmitter@@VCRefCountAccessor@@@@QBE_NXZ 24058e80 f i c_fire_smoke.obj
 0001:00057e90       ??0?$CSmartPtr@VCEmberEffect@@VCRefCountAccessor@@@@QAE@XZ 24058e90 f i c_fire_smoke.obj
 0001:00057ea0       ??C?$CSmartPtr@VCEmberEffect@@VCRefCountAccessor@@@@QAEPAVCEmberEffect@@XZ 24058ea0 f i c_fire_smoke.obj
 0001:00057eb0       ??7?$CSmartPtr@VCEmberEffect@@VCRefCountAccessor@@@@QBE_NXZ 24058eb0 f i c_fire_smoke.obj
 0001:00057ec0       ?IsValid@?$CSmartPtr@VCEmberEffect@@VCRefCountAccessor@@@@QBE_NXZ 24058ec0 f i c_fire_smoke.obj
 0001:00057ed0       ??0VPlane@@QAE@XZ          24058ed0 f i c_fire_smoke.obj
 0001:00057ee0       ?Init@VPlane@@QAEXABVVector@@M@Z 24058ee0 f i c_fire_smoke.obj
 0001:00057f00       ??$Release@VCLitSmokeEmitter@@@CRefCountAccessor@@SAXPAVCLitSmokeEmitter@@@Z 24058f00 f i c_fire_smoke.obj
 0001:00057f10       ??$AddRef@VCLitSmokeEmitter@@@CRefCountAccessor@@SAXPAVCLitSmokeEmitter@@@Z 24058f10 f i c_fire_smoke.obj
 0001:00057f20       ??$Release@VCEmberEffect@@@CRefCountAccessor@@SAXPAVCEmberEffect@@@Z 24058f20 f i c_fire_smoke.obj
 0001:00057f30       ??$AddRef@VCEmberEffect@@@CRefCountAccessor@@SAXPAVCEmberEffect@@@Z 24058f30 f i c_fire_smoke.obj
 0001:00057f40       ?GetScale@C_Sprite@@QAEMXZ 24058f40 f i c_fire_smoke.obj
 0001:00057f50       ?NetworkStateChanged@NetworkVar_m_flSpriteFramerate@C_Sprite@@SAXPAX@Z 24058f50 f i c_fire_smoke.obj
 0001:00057f60       ?NetworkStateChanged@NetworkVar_m_flFrame@C_Sprite@@SAXPAX@Z 24058f60 f i c_fire_smoke.obj
 0001:00057f70       ?Cache@ClientEffectRegister@SmokeStackMaterials@@UAEX_N@Z 24058f70 f   c_fire_smoke.obj
 0001:00057fd0       ??0ClientEffectRegister@SmokeStackMaterials@@QAE@XZ 24058fd0 f i c_fire_smoke.obj
 0001:00057ff0       ??0C_FireSprite@@QAE@XZ    24058ff0 f i c_fire_smoke.obj
 0001:00058030       ??1C_FireSprite@@UAE@XZ    24059030 f i c_fire_smoke.obj
 0001:00058040       ??_GC_FireSprite@@UAEPAXI@Z 24059040 f i c_fire_smoke.obj
 0001:00058040       ??_EC_FireSprite@@UAEPAXI@Z 24059040 f i c_fire_smoke.obj
 0001:00058060       ?UpdateEffects@C_FireSmoke@@IAEXXZ 24059060 f   c_fire_smoke.obj
 0001:000580b0       ?RemoveClientOnly@C_FireSmoke@@QAEXXZ 240590b0 f   c_fire_smoke.obj
 0001:00058100       ?UpdateFlames@C_FireSmoke@@IAEXXZ 24059100 f   c_fire_smoke.obj
 0001:00058290       ?SpawnSmoke@C_FireSmoke@@IAEXXZ 24059290 f   c_fire_smoke.obj
 0001:000584d0       ?DeleteHitBoxFlames@C_EntityFlame@@IAEXXZ 240594d0 f   c_fire_smoke.obj
 0001:00058550       ?NetworkStateChanged@?$CNetworkVarBase@MVNetworkVar_m_flSpriteFramerate@C_Sprite@@@@IAEXXZ 24059550 f i c_fire_smoke.obj
 0001:00058560       ?NetworkStateChanged@?$CNetworkVarBase@MVNetworkVar_m_flFrame@C_Sprite@@@@IAEXXZ 24059560 f i c_fire_smoke.obj
 0001:00058570       ??1?$CSmartPtr@VCLitSmokeEmitter@@VCRefCountAccessor@@@@QAE@XZ 24059570 f i c_fire_smoke.obj
 0001:00058580       ??4?$CSmartPtr@VCLitSmokeEmitter@@VCRefCountAccessor@@@@QAEPAVCLitSmokeEmitter@@PAV1@@Z 24059580 f i c_fire_smoke.obj
 0001:000585b0       ??1?$CSmartPtr@VCEmberEffect@@VCRefCountAccessor@@@@QAE@XZ 240595b0 f i c_fire_smoke.obj
 0001:000585c0       ??4?$CSmartPtr@VCEmberEffect@@VCRefCountAccessor@@@@QAEPAVCEmberEffect@@PAV1@@Z 240595c0 f i c_fire_smoke.obj
 0001:000585f0       ??0C_FireSmoke@@QAE@XZ     240595f0 f   c_fire_smoke.obj
 0001:00058710       ??1C_FireSmoke@@UAE@XZ     24059710 f   c_fire_smoke.obj
 0001:00058790       ?ShouldDraw@C_FireSmoke@@UAE_NXZ 24059790 f   c_fire_smoke.obj
 0001:00058810       ?FindClipPlane@C_FireSmoke@@IAEXXZ 24059810 f   c_fire_smoke.obj
 0001:000588f0       ??0C_EntityFlame@@QAE@XZ   240598f0 f   c_fire_smoke.obj
 0001:00058970       ??1C_EntityFlame@@UAE@XZ   24059970 f   c_fire_smoke.obj
 0001:000589e0       ?ClientThink@C_EntityFlame@@UAEXXZ 240599e0 f   c_fire_smoke.obj
 0001:00058c40       ?Set@?$CNetworkVarBase@MVNetworkVar_m_flSpriteFramerate@C_Sprite@@@@QAEABMABM@Z 24059c40 f i c_fire_smoke.obj
 0001:00058c60       ?Set@?$CNetworkVarBase@MVNetworkVar_m_flFrame@C_Sprite@@@@QAEABMABM@Z 24059c60 f i c_fire_smoke.obj
 0001:00058c80       ??0?$CSmartPtr@VCLitSmokeEmitter@@VCRefCountAccessor@@@@QAE@PAVCLitSmokeEmitter@@@Z 24059c80 f i c_fire_smoke.obj
 0001:00058cb0       ??4?$CSmartPtr@VCLitSmokeEmitter@@VCRefCountAccessor@@@@QAEXABV0@@Z 24059cb0 f i c_fire_smoke.obj
 0001:00058ce0       ??4?$CSmartPtr@VCEmberEffect@@VCRefCountAccessor@@@@QAEXABV0@@Z 24059ce0 f i c_fire_smoke.obj
 0001:00058d10       ?Create@CLitSmokeEmitter@@SA?AV?$CSmartPtr@VCLitSmokeEmitter@@VCRefCountAccessor@@@@PBD@Z 24059d10 f i c_fire_smoke.obj
 0001:00058da0       ??_GC_FireSmoke@@UAEPAXI@Z 24059da0 f i c_fire_smoke.obj
 0001:00058da0       ??_EC_FireSmoke@@UAEPAXI@Z 24059da0 f i c_fire_smoke.obj
 0001:00058e00       ??_GC_EntityFlame@@UAEPAXI@Z 24059e00 f i c_fire_smoke.obj
 0001:00058e00       ??_EC_EntityFlame@@UAEPAXI@Z 24059e00 f i c_fire_smoke.obj
 0001:00058e20       ??4?$CNetworkVarBase@MVNetworkVar_m_flSpriteFramerate@C_Sprite@@@@QAEABMABM@Z 24059e20 f i c_fire_smoke.obj
 0001:00058e40       ??4?$CNetworkVarBase@MVNetworkVar_m_flFrame@C_Sprite@@@@QAEABMABM@Z 24059e40 f i c_fire_smoke.obj
 0001:00058e60       ??Y?$CNetworkVarBase@MVNetworkVar_m_flFrame@C_Sprite@@@@QAEABMABM@Z 24059e60 f i c_fire_smoke.obj
 0001:00058e90       ?AddFlames@C_FireSmoke@@IAEXXZ 24059e90 f   c_fire_smoke.obj
 0001:00058f20       ?Start@C_FireSmoke@@QAEXXZ 24059f20 f   c_fire_smoke.obj
 0001:000591b0       ?StartClientOnly@C_FireSmoke@@QAEXXZ 2405a1b0 f   c_fire_smoke.obj
 0001:000591f0       ?UpdateAnimation@C_FireSmoke@@IAEXXZ 2405a1f0 f   c_fire_smoke.obj
 0001:000592c0       ?Update@C_FireSmoke@@IAEXXZ 2405a2c0 f   c_fire_smoke.obj
 0001:000593a0       ?AttachToHitBoxes@C_EntityFlame@@IAEXXZ 2405a3a0 f   c_fire_smoke.obj
 0001:000596f0       ?UpdateHitBoxFlames@C_EntityFlame@@IAEXXZ 2405a6f0 f   c_fire_smoke.obj
 0001:00059840       ?Simulate@C_FireSmoke@@UAEXXZ 2405a840 f   c_fire_smoke.obj
 0001:000598d0       ?OnDataChanged@C_FireSmoke@@UAEXW4DataUpdateType_t@@@Z 2405a8d0 f   c_fire_smoke.obj
 0001:00059940       ?OnDataChanged@C_EntityFlame@@UAEXW4DataUpdateType_t@@@Z 2405a940 f   c_fire_smoke.obj
 0001:00059a90       ?Simulate@C_EntityFlame@@UAEXXZ 2405aa90 f   c_fire_smoke.obj
 0001:00059e70       ?GetClassName@C_FuncAreaPortalWindow@@UAEPBDXZ 2405ae70 f   c_func_areaportalwindow.obj
 0001:00059e80       ?YouForgotToImplementOrDeclareClientClass@C_FuncAreaPortalWindow@@UAEHXZ 2405ae80 f   c_func_areaportalwindow.obj
 0001:00059e90       ?GetClientClass@C_FuncAreaPortalWindow@@UAEPAVClientClass@@XZ 2405ae90 f   c_func_areaportalwindow.obj
 0001:00059ea0       ??0C_FuncAreaPortalWindow@@QAE@XZ 2405aea0 f i c_func_areaportalwindow.obj
 0001:00059ed0       ??$ClientClassInit@Uignored@DT_FuncAreaPortalWindow@@@@YAHPAUignored@DT_FuncAreaPortalWindow@@@Z 2405aed0 f   c_func_areaportalwindow.obj
 0001:00059fb0       ?ComputeFxBlend@C_FuncAreaPortalWindow@@UAEXXZ 2405afb0 f   c_func_areaportalwindow.obj
 0001:00059fc0       ?IsTransparent@C_FuncAreaPortalWindow@@UAE_NXZ 2405afc0 f   c_func_areaportalwindow.obj
 0001:00059fd0       ?ShouldReceiveProjectedTextures@C_FuncAreaPortalWindow@@UAE_NH@Z 2405afd0 f   c_func_areaportalwindow.obj
 0001:0005a040       ??_EC_FuncAreaPortalWindow@@UAEPAXI@Z 2405b040 f i c_func_areaportalwindow.obj
 0001:0005a040       ??_GC_FuncAreaPortalWindow@@UAEPAXI@Z 2405b040 f i c_func_areaportalwindow.obj
 0001:0005a060       ?GetDistanceBlend@C_FuncAreaPortalWindow@@AAEMXZ 2405b060 f   c_func_areaportalwindow.obj
 0001:0005a0f0       ?DrawModel@C_FuncAreaPortalWindow@@UAEHH@Z 2405b0f0 f   c_func_areaportalwindow.obj
 0001:0005a200       ?Get@NetworkVar_m_RawPanelBitVec@C_BreakableSurface@@QBEAB_NH@Z 2405b200 f i c_func_breakablesurf.obj
 0001:0005a210       ?Base@NetworkVar_m_RawPanelBitVec@C_BreakableSurface@@QBEPB_NXZ 2405b210 f i c_func_breakablesurf.obj
 0001:0005a220       ?SetStyleType@C_BreakableSurface@@AAEXHHH@Z 2405b220 f i c_func_breakablesurf.obj
 0001:0005a250       ?GetStyleType@C_BreakableSurface@@AAEHHH@Z 2405b250 f i c_func_breakablesurf.obj
 0001:0005a270       ?GetDataDescMap@C_BreakableSurface@@UAEPAUdatamap_t@@XZ 2405b270 f   c_func_breakablesurf.obj
 0001:0005a280       ?InLegalRange@C_BreakableSurface@@AAE_NHH@Z 2405b280 f i c_func_breakablesurf.obj
 0001:0005a2b0       ?IsPanelSolid@C_BreakableSurface@@AAE_NHH@Z 2405b2b0 f i c_func_breakablesurf.obj
 0001:0005a2d0       ?IsPanelStale@C_BreakableSurface@@AAE_NHH@Z 2405b2d0 f i c_func_breakablesurf.obj
 0001:0005a2f0       ?SetPanelSolid@C_BreakableSurface@@AAEXHH_N@Z 2405b2f0 f i c_func_breakablesurf.obj
 0001:0005a330       ?SetPanelStale@C_BreakableSurface@@AAEXHH_N@Z 2405b330 f i c_func_breakablesurf.obj
 0001:0005a370       ?GetClassName@C_BreakableSurface@@UAEPBDXZ 2405b370 f   c_func_breakablesurf.obj
 0001:0005a380       ?YouForgotToImplementOrDeclareClientClass@C_BreakableSurface@@UAEHXZ 2405b380 f   c_func_breakablesurf.obj
 0001:0005a390       ?GetClientClass@C_BreakableSurface@@UAEPAVClientClass@@XZ 2405b390 f   c_func_breakablesurf.obj
 0001:0005a3a0       ?FindCrackedMaterial@C_BreakableSurface@@AAEXXZ 2405b3a0 f   c_func_breakablesurf.obj
 0001:0005a4b0       ??0IBrushRenderer@@QAE@XZ  2405b4b0 f i c_func_breakablesurf.obj
 0001:0005a4c0       ??0EdgeTexture_t@@QAE@XZ   2405b4c0 f i c_func_breakablesurf.obj
 0001:0005a4e0       ??1EdgeTexture_t@@QAE@XZ   2405b4e0 f i c_func_breakablesurf.obj
 0001:0005a500       ?IsTransparent@C_BreakableSurface@@UAE_NXZ 2405b500 f   c_func_breakablesurf.obj
 0001:0005a520       ?DrawModel@C_BreakableSurface@@UAEHH@Z 2405b520 f   c_func_breakablesurf.obj
 0001:0005a590       ?HavePanel@C_BreakableSurface@@QAE_NHH@Z 2405b590 f   c_func_breakablesurf.obj
 0001:0005a5d0       ?Base@Vector2D@@QAEPAMXZ   2405b5d0 f i c_func_breakablesurf.obj
 0001:0005a5e0       ?ShouldReceiveProjectedTextures@C_BreakableSurface@@UAE_NH@Z 2405b5e0 f   c_func_breakablesurf.obj
 0001:0005a5f0       ??1CBreakableSurfaceProxy@@UAE@XZ 2405b5f0 f   c_func_breakablesurf.obj
 0001:0005a600       ?Init@CBreakableSurfaceProxy@@UAE_NPAVIMaterial@@PAVKeyValues@@@Z 2405b600 f   c_func_breakablesurf.obj
 0001:0005a630       ?OnBind@CBreakableSurfaceProxy@@UAEXPAVC_BaseEntity@@@Z 2405b630 f   c_func_breakablesurf.obj
 0001:0005a670       ?InvalidIndex@?$CUtlLinkedList@UPanel_t@@G@@SAGXZ 2405b670 f i c_func_breakablesurf.obj
 0001:0005a680       ??BCMaterialReference@@QAEPAVIMaterial@@XZ 2405b680 f i c_func_breakablesurf.obj
 0001:0005a690       ??BCTextureReference@@QAEPAVITexture@@XZ 2405b690 f i c_func_breakablesurf.obj
 0001:0005a6a0       ?Head@?$CUtlLinkedList@UPanel_t@@G@@QBEGXZ 2405b6a0 f i c_func_breakablesurf.obj
 0001:0005a6b0       ??$DataMapAccess@VC_BaseEntity@@@@YAXPAVC_BaseEntity@@PAPAUdatamap_t@@@Z 2405b6b0 f i c_func_breakablesurf.obj
 0001:0005a6c0       ?ConstructList@?$CUtlLinkedList@UPanel_t@@G@@IAEXXZ 2405b6c0 f i c_func_breakablesurf.obj
 0001:0005a6e0       ??0?$CUtlMemory@UListElem_t@?$CUtlLinkedList@UPanel_t@@G@@@@QAE@HH@Z 2405b6e0 f i c_func_breakablesurf.obj
 0001:0005a720       ??A?$CUtlMemory@UListElem_t@?$CUtlLinkedList@UPanel_t@@G@@@@QBEABUListElem_t@?$CUtlLinkedList@UPanel_t@@G@@H@Z 2405b720 f i c_func_breakablesurf.obj
 0001:0005a730       ??A?$CUtlMemory@UListElem_t@?$CUtlLinkedList@UPanel_t@@G@@@@QAEAAUListElem_t@?$CUtlLinkedList@UPanel_t@@G@@H@Z 2405b730 f i c_func_breakablesurf.obj
 0001:0005a740       ?Base@?$CUtlMemory@UListElem_t@?$CUtlLinkedList@UPanel_t@@G@@@@QAEPAUListElem_t@?$CUtlLinkedList@UPanel_t@@G@@XZ 2405b740 f i c_func_breakablesurf.obj
 0001:0005a750       ??$Construct@UPanel_t@@@@YAXPAUPanel_t@@@Z 2405b750 f i c_func_breakablesurf.obj
 0001:0005a760       ?InternalElement@?$CUtlLinkedList@UPanel_t@@G@@IAEAAUListElem_t@1@G@Z 2405b760 f i c_func_breakablesurf.obj
 0001:0005a770       ?NumAllocated@?$CUtlMemory@UListElem_t@?$CUtlLinkedList@UPanel_t@@G@@@@QBEHXZ 2405b770 f i c_func_breakablesurf.obj
 0001:0005a780       ??$Destruct@UPanel_t@@@@YAXPAUPanel_t@@@Z 2405b780 f i c_func_breakablesurf.obj
 0001:0005a790       ?IsExternallyAllocated@?$CUtlMemory@UListElem_t@?$CUtlLinkedList@UPanel_t@@G@@@@QBE_NXZ 2405b790 f i c_func_breakablesurf.obj
 0001:0005a7a0       ?Normal3fv@CMeshBuilder@@QAEXPBM@Z 2405b7a0 f i c_func_breakablesurf.obj
 0001:0005a7d0       ?Color4ub@CMeshBuilder@@QAEXEEEE@Z 2405b7d0 f i c_func_breakablesurf.obj
 0001:0005a800       ?TexCoord2fv@CMeshBuilder@@QAEXHPBM@Z 2405b800 f i c_func_breakablesurf.obj
 0001:0005a820       ??ANetworkVar_m_RawPanelBitVec@C_BreakableSurface@@QBEAB_NH@Z 2405b820 f i c_func_breakablesurf.obj
 0001:0005a830       ?NetworkStateChanged@NetworkVar_m_RawPanelBitVec@C_BreakableSurface@@IAEXXZ 2405b830 f i c_func_breakablesurf.obj
 0001:0005a840       ?GetBaseMap@C_BreakableSurface@@SAPAUdatamap_t@@XZ 2405b840 f   c_func_breakablesurf.obj
 0001:0005a850       ??$ClientClassInit@Uignored@DT_BreakableSurface@@@@YAHPAUignored@DT_BreakableSurface@@@Z 2405b850 f   c_func_breakablesurf.obj
 0001:0005aa00       ?InitMaterial@C_BreakableSurface@@QAEXW4WinEdge_t@@HPBD@Z 2405ba00 f   c_func_breakablesurf.obj
 0001:0005aa90       ??A?$CUtlLinkedList@UPanel_t@@G@@QAEAAUPanel_t@@G@Z 2405ba90 f i c_func_breakablesurf.obj
 0001:0005aaa0       ?IsValidIndex@?$CUtlLinkedList@UPanel_t@@G@@QBE_NG@Z 2405baa0 f i c_func_breakablesurf.obj
 0001:0005aad0       ?InternalElement@?$CUtlLinkedList@UPanel_t@@G@@IBEABUListElem_t@1@G@Z 2405bad0 f i c_func_breakablesurf.obj
 0001:0005aae0       ?ResetDbgInfo@?$CUtlLinkedList@UPanel_t@@G@@IAEXXZ 2405bae0 f i c_func_breakablesurf.obj
 0001:0005aaf0       ?Element@?$CUtlLinkedList@UPanel_t@@G@@QAEAAUPanel_t@@G@Z 2405baf0 f i c_func_breakablesurf.obj
 0001:0005ab00       ?RemoveAll@?$CUtlLinkedList@UPanel_t@@G@@QAEXXZ 2405bb00 f i c_func_breakablesurf.obj
 0001:0005ab50       ?Grow@?$CUtlMemory@UListElem_t@?$CUtlLinkedList@UPanel_t@@G@@@@QAEXH@Z 2405bb50 f i c_func_breakablesurf.obj
 0001:0005abc0       ?Purge@?$CUtlMemory@UListElem_t@?$CUtlLinkedList@UPanel_t@@G@@@@QAEXXZ 2405bbc0 f i c_func_breakablesurf.obj
 0001:0005abf0       ?Previous@?$CUtlLinkedList@UPanel_t@@G@@QBEGG@Z 2405bbf0 f i c_func_breakablesurf.obj
 0001:0005ac10       ?Set@NetworkVar_m_RawPanelBitVec@C_BreakableSurface@@QAEXHAB_N@Z 2405bc10 f i c_func_breakablesurf.obj
 0001:0005ac30       ?OnPreDataChanged@C_BreakableSurface@@UAEXW4DataUpdateType_t@@@Z 2405bc30 f   c_func_breakablesurf.obj
 0001:0005acf0       ?DrawOneBlock@C_BreakableSurface@@AAEXPAVIBrushSurface@@PAVIMesh@@PAVCMeshBuilder@@ABVVector@@33@Z 2405bcf0 f   c_func_breakablesurf.obj
 0001:0005b140       ?DrawOneEdge@C_BreakableSurface@@AAEXPAVIBrushSurface@@PAVIMesh@@PAVCMeshBuilder@@ABVVector@@33W4WinSide_t@@@Z 2405c140 f   c_func_breakablesurf.obj
 0001:0005b6f0       ?DrawOneHighlight@C_BreakableSurface@@AAEXPAVIBrushSurface@@PAVIMesh@@PAVCMeshBuilder@@ABVVector@@33W4WinSide_t@@@Z 2405c6f0 f   c_func_breakablesurf.obj
 0001:0005bc70       ??0CBreakableSurfaceProxy@@QAE@XZ 2405cc70 f   c_func_breakablesurf.obj
 0001:0005bc80       ??_ECBreakableSurfaceProxy@@UAEPAXI@Z 2405cc80 f i c_func_breakablesurf.obj
 0001:0005bc80       ??_GCBreakableSurfaceProxy@@UAEPAXI@Z 2405cc80 f i c_func_breakablesurf.obj
 0001:0005bcc0       ?Next@?$CUtlLinkedList@UPanel_t@@G@@QBEGG@Z 2405ccc0 f i c_func_breakablesurf.obj
 0001:0005bce0       ?AllocInternal@?$CUtlLinkedList@UPanel_t@@G@@IAEG_N@Z 2405cce0 f i c_func_breakablesurf.obj
 0001:0005bd80       ??1?$CUtlMemory@UListElem_t@?$CUtlLinkedList@UPanel_t@@G@@@@QAE@XZ 2405cd80 f i c_func_breakablesurf.obj
 0001:0005bdb0       ?IsInList@?$CUtlLinkedList@UPanel_t@@G@@QBE_NG@Z 2405cdb0 f i c_func_breakablesurf.obj
 0001:0005bde0       ?DrawRenderList@C_BreakableSurface@@AAEXPAVIBrushSurface@@@Z 2405cde0 f   c_func_breakablesurf.obj
 0001:0005c100       ?DrawRenderListHighlights@C_BreakableSurface@@AAEXPAVIBrushSurface@@@Z 2405d100 f   c_func_breakablesurf.obj
 0001:0005c4c0       ?FindRenderPanel@C_BreakableSurface@@AAEHHHW4WinSide_t@@@Z 2405d4c0 f   c_func_breakablesurf.obj
 0001:0005c530       ?FindFirstRenderTexture@C_BreakableSurface@@AAEHW4WinEdge_t@@H@Z 2405d530 f   c_func_breakablesurf.obj
 0001:0005c590       ?DrawSolidBlocks@C_BreakableSurface@@QAEXPAVIBrushSurface@@@Z 2405d590 f   c_func_breakablesurf.obj
 0001:0005cb50       ??0?$CUtlLinkedList@UPanel_t@@G@@QAE@HH@Z 2405db50 f i c_func_breakablesurf.obj
 0001:0005cbb0       ??1?$CUtlLinkedList@UPanel_t@@G@@QAE@XZ 2405dbb0 f i c_func_breakablesurf.obj
 0001:0005cbe0       ?Unlink@?$CUtlLinkedList@UPanel_t@@G@@QAEXG@Z 2405dbe0 f i c_func_breakablesurf.obj
 0001:0005cc80       ??0C_BreakableSurface@@QAE@XZ 2405dc80 f   c_func_breakablesurf.obj
 0001:0005cdb0       ??1C_BreakableSurface@@UAE@XZ 2405ddb0 f   c_func_breakablesurf.obj
 0001:0005ce80       ?RenderBrushModelSurface@C_BreakableSurface@@UAE_NPAVIClientEntity@@PAVIBrushSurface@@@Z 2405de80 f   c_func_breakablesurf.obj
 0001:0005cec0       ?Free@?$CUtlLinkedList@UPanel_t@@G@@QAEXG@Z 2405dec0 f i c_func_breakablesurf.obj
 0001:0005cef0       ?LinkAfter@?$CUtlLinkedList@UPanel_t@@G@@QAEXGG@Z 2405def0 f i c_func_breakablesurf.obj
 0001:0005cf90       ?LinkBefore@?$CUtlLinkedList@UPanel_t@@G@@QAEXGG@Z 2405df90 f i c_func_breakablesurf.obj
 0001:0005d010       ??$DataMapInit@VC_BreakableSurface@@@@YAPAUdatamap_t@@PAVC_BreakableSurface@@@Z 2405e010 f   c_func_breakablesurf.obj
 0001:0005d0e0       ??_EC_BreakableSurface@@UAEPAXI@Z 2405e0e0 f i c_func_breakablesurf.obj
 0001:0005d0e0       ??_GC_BreakableSurface@@UAEPAXI@Z 2405e0e0 f i c_func_breakablesurf.obj
 0001:0005d100       ?InsertAfter@?$CUtlLinkedList@UPanel_t@@G@@QAEGG@Z 2405e100 f i c_func_breakablesurf.obj
 0001:0005d130       ?Remove@?$CUtlLinkedList@UPanel_t@@G@@QAEXG@Z 2405e130 f i c_func_breakablesurf.obj
 0001:0005d160       ?InsertBefore@?$CUtlLinkedList@UPanel_t@@G@@QAEGG@Z 2405e160 f i c_func_breakablesurf.obj
 0001:0005d190       ?AddToTail@?$CUtlLinkedList@UPanel_t@@G@@QAEGXZ 2405e190 f i c_func_breakablesurf.obj
 0001:0005d200       ?AddToRenderList@C_BreakableSurface@@AAEXHHW4WinSide_t@@W4WinEdge_t@@H@Z 2405e200 f   c_func_breakablesurf.obj
 0001:0005d350       ?UpdateEdgeType@C_BreakableSurface@@AAEXHHH@Z 2405e350 f   c_func_breakablesurf.obj
 0001:0005d700       ?OnRestore@C_BreakableSurface@@UAEXXZ 2405e700 f   c_func_breakablesurf.obj
 0001:0005d7b0       ?OnDataChanged@C_BreakableSurface@@UAEXW4DataUpdateType_t@@@Z 2405e7b0 f   c_func_breakablesurf.obj
 0001:0005dc90       ?GetConveyorSpeed@C_FuncConveyor@@QAEMXZ 2405ec90 f i c_func_conveyor.obj
 0001:0005dca0       ?GetClassName@C_FuncConveyor@@UAEPBDXZ 2405eca0 f   c_func_conveyor.obj
 0001:0005dcb0       ?YouForgotToImplementOrDeclareClientClass@C_FuncConveyor@@UAEHXZ 2405ecb0 f   c_func_conveyor.obj
 0001:0005dcc0       ?GetClientClass@C_FuncConveyor@@UAEPAVClientClass@@XZ 2405ecc0 f   c_func_conveyor.obj
 0001:0005dcd0       ??$ClientClassInit@Uignored@DT_FuncConveyor@@@@YAHPAUignored@DT_FuncConveyor@@@Z 2405ecd0 f   c_func_conveyor.obj
 0001:0005dd60       ??0C_FuncConveyor@@QAE@XZ  2405ed60 f   c_func_conveyor.obj
 0001:0005dda0       ??1CConveyorMaterialProxy@@UAE@XZ 2405eda0 f   c_func_conveyor.obj
 0001:0005ddb0       ?Init@CConveyorMaterialProxy@@UAE_NPAVIMaterial@@PAVKeyValues@@@Z 2405edb0 f   c_func_conveyor.obj
 0001:0005de00       ?BindArgToEntity@CConveyorMaterialProxy@@AAEPAVC_BaseEntity@@PAX@Z 2405ee00 f   c_func_conveyor.obj
 0001:0005de20       ??0VMatrix@@QAE@XZ         2405ee20 f i c_func_conveyor.obj
 0001:0005de90       ??_GC_FuncConveyor@@UAEPAXI@Z 2405ee90 f i c_func_conveyor.obj
 0001:0005de90       ??_EC_FuncConveyor@@UAEPAXI@Z 2405ee90 f i c_func_conveyor.obj
 0001:0005deb0       ??0CConveyorMaterialProxy@@QAE@XZ 2405eeb0 f   c_func_conveyor.obj
 0001:0005dec0       ?Release@CConveyorMaterialProxy@@UAEXXZ 2405eec0 f i c_func_conveyor.obj
 0001:0005ded0       ??_GCConveyorMaterialProxy@@UAEPAXI@Z 2405eed0 f i c_func_conveyor.obj
 0001:0005ded0       ??_ECConveyorMaterialProxy@@UAEPAXI@Z 2405eed0 f i c_func_conveyor.obj
 0001:0005def0       ?OnBind@CConveyorMaterialProxy@@UAEXPAX@Z 2405eef0 f   c_func_conveyor.obj
 0001:0005e100       ??0CDustEffect@@QAE@PBD@Z  2405f100 f i c_func_dust.obj
 0001:0005e120       ??1CDustEffect@@UAE@XZ     2405f120 f i c_func_dust.obj
 0001:0005e130       ?GetClassName@C_Func_Dust@@UAEPBDXZ 2405f130 f   c_func_dust.obj
 0001:0005e140       ?YouForgotToImplementOrDeclareClientClass@C_Func_Dust@@UAEHXZ 2405f140 f   c_func_dust.obj
 0001:0005e150       ?GetClientClass@C_Func_Dust@@UAEPAVClientClass@@XZ 2405f150 f   c_func_dust.obj
 0001:0005e160       ??$ClientClassInit@Uignored@DT_Func_Dust@@@@YAHPAUignored@DT_Func_Dust@@@Z 2405f160 f   c_func_dust.obj
 0001:0005e2e0       ??1C_Func_Dust@@UAE@XZ     2405f2e0 f   c_func_dust.obj
 0001:0005e320       ?ShouldDraw@C_Func_Dust@@UAE_NXZ 2405f320 f   c_func_dust.obj
 0001:0005e330       ?GetClassName@C_TEDust@@UAEPBDXZ 2405f330 f   c_func_dust.obj
 0001:0005e340       ?YouForgotToImplementOrDeclareClientClass@C_TEDust@@UAEHXZ 2405f340 f   c_func_dust.obj
 0001:0005e350       ?GetClientClass@C_TEDust@@UAEPAVClientClass@@XZ 2405f350 f   c_func_dust.obj
 0001:0005e370       ??$ClientClassInit@Uignored@DT_TEDust@@@@YAHPAUignored@DT_TEDust@@@Z 2405f370 f   c_func_dust.obj
 0001:0005e430       ??1C_TEParticleSystem@@UAE@XZ 2405f430 f i c_func_dust.obj
 0001:0005e440       ??1C_TEDust@@UAE@XZ        2405f440 f   c_func_dust.obj
 0001:0005e460       ?SetRefEHandle@C_BaseTempEntity@@UAEXABVCBaseHandle@@@Z 2405f460 f i c_func_dust.obj
 0001:0005e470       ?GetRefEHandle@C_BaseTempEntity@@UBEABVCBaseHandle@@XZ 2405f470 f i c_func_dust.obj
 0001:0005e480       ?GetIClientUnknown@C_BaseTempEntity@@UAEPAVIClientUnknown@@XZ 2405f480 f i c_func_dust.obj
 0001:0005e490       ?GetCollideable@C_BaseTempEntity@@UAEPAVICollideable@@XZ 2405f490 f i c_func_dust.obj
 0001:0005e4a0       ?GetClientNetworkable@C_BaseTempEntity@@UAEPAVIClientNetworkable@@XZ 2405f4a0 f i c_func_dust.obj
 0001:0005e4b0       ?GetClientRenderable@C_BaseTempEntity@@UAEPAVIClientRenderable@@XZ 2405f4b0 f i c_func_dust.obj
 0001:0005e4c0       ?GetIClientEntity@C_BaseTempEntity@@UAEPAVIClientEntity@@XZ 2405f4c0 f i c_func_dust.obj
 0001:0005e4d0       ?GetBaseEntity@C_BaseTempEntity@@UAEPAVC_BaseEntity@@XZ 2405f4d0 f i c_func_dust.obj
 0001:0005e4e0       ?GetClientThinkable@C_BaseTempEntity@@UAEPAVIClientThinkable@@XZ 2405f4e0 f i c_func_dust.obj
 0001:0005e4f0       ?ShouldDestroy@C_BaseTempEntity@@UAE_NXZ 2405f4f0 f i c_func_dust.obj
 0001:0005e500       ?ShouldReceiveProjectedTextures@C_BaseTempEntity@@UAE_NH@Z 2405f500 f i c_func_dust.obj
 0001:0005e510       ?ShouldDraw@C_TEDust@@UAE_NXZ 2405f510 f i c_func_dust.obj
 0001:0005e520       ?VectorMultiply@@YAXABVVector@@0AAV1@@Z 2405f520 f i c_func_dust.obj
 0001:0005e550       ?MulAdd@Vector@@QAEXABV1@0M@Z 2405f550 f i c_func_dust.obj
 0001:0005e580       ??DVector@@QBE?AV0@ABV0@@Z 2405f580 f i c_func_dust.obj
 0001:0005e5d0       ?GetTimeDelta@CParticleSimulateIterator@@QBEMXZ 2405f5d0 f i c_func_dust.obj
 0001:0005e5e0       ?RenderParticle_Color255Size@@YAXPAVParticleDraw@@ABVVector@@1MM@Z 2405f5e0 f i c_func_dust.obj
 0001:0005e780       ?WorldGetLightForPoint@@YA?AVVector@@ABV1@_N@Z 2405f780 f i c_func_dust.obj
 0001:0005e7a0       ?GetBinding@CParticleEffect@@QAEAAVCParticleEffectBinding@@XZ 2405f7a0 f i c_func_dust.obj
 0001:0005e7b0       ??_ECDustEffect@@UAEPAXI@Z 2405f7b0 f i c_func_dust.obj
 0001:0005e7b0       ??_GCDustEffect@@UAEPAXI@Z 2405f7b0 f i c_func_dust.obj
 0001:0005e7d0       ?SimulateParticles@CDustEffect@@UAEXPAVCParticleSimulateIterator@@@Z 2405f7d0 f   c_func_dust.obj
 0001:0005e960       ??0C_Func_Dust@@QAE@XZ     2405f960 f   c_func_dust.obj
 0001:0005e9d0       ??_GC_Func_Dust@@UAEPAXI@Z 2405f9d0 f i c_func_dust.obj
 0001:0005e9d0       ??_EC_Func_Dust@@UAEPAXI@Z 2405f9d0 f i c_func_dust.obj
 0001:0005ea20       ?Cache@ClientEffectRegister@PrecacheFuncDust@@UAEX_N@Z 2405fa20 f   c_func_dust.obj
 0001:0005ea70       ??0ClientEffectRegister@PrecacheFuncDust@@QAE@XZ 2405fa70 f i c_func_dust.obj
 0001:0005ea90       ?AttemptSpawnNewParticle@C_Func_Dust@@AAEXXZ 2405fa90 f   c_func_dust.obj
 0001:0005ed40       ??0C_TEDust@@QAE@XZ        2405fd40 f   c_func_dust.obj
 0001:0005ed60       ??_GC_TEDust@@UAEPAXI@Z    2405fd60 f i c_func_dust.obj
 0001:0005ed60       ??_EC_TEDust@@UAEPAXI@Z    2405fd60 f i c_func_dust.obj
 0001:0005ed90       ?WorldSpaceAABB@CCollisionProperty@@QBEXPAVVector@@0@Z 2405fd90 f i c_func_dust.obj
 0001:0005ee20       ?RenderParticles@CDustEffect@@UAEXPAVCParticleRenderIterator@@@Z 2405fe20 f   c_func_dust.obj
 0001:0005f020       ?OnDataChanged@C_Func_Dust@@UAEXW4DataUpdateType_t@@@Z 24060020 f   c_func_dust.obj
 0001:0005f0c0       ?ClientThink@C_Func_Dust@@UAEXXZ 240600c0 f   c_func_dust.obj
 0001:0005f1f0       ?FX_Dust@@YAXABVVector@@0MM@Z 240601f0 f   c_func_dust.obj
 0001:0005f710       ?PostDataUpdate@C_TEDust@@UAEXW4DataUpdateType_t@@@Z 24060710 f   c_func_dust.obj
 0001:0005f730       ?TE_Dust@@YAXAAVIRecipientFilter@@MABVVector@@1MM@Z 24060730 f   c_func_dust.obj
 0001:0005f750       ?GetClassName@C_Func_LOD@@UAEPBDXZ 24060750 f   c_func_lod.obj
 0001:0005f760       ?YouForgotToImplementOrDeclareClientClass@C_Func_LOD@@UAEHXZ 24060760 f   c_func_lod.obj
 0001:0005f770       ?GetClientClass@C_Func_LOD@@UAEPAVClientClass@@XZ 24060770 f   c_func_lod.obj
 0001:0005f780       ??$ClientClassInit@Uignored@DT_Func_LOD@@@@YAHPAUignored@DT_Func_LOD@@@Z 24060780 f   c_func_lod.obj
 0001:0005f810       ??0C_Func_LOD@@QAE@XZ      24060810 f   c_func_lod.obj
 0001:0005f8e0       ??_EC_Func_LOD@@UAEPAXI@Z  240608e0 f i c_func_lod.obj
 0001:0005f8e0       ??_GC_Func_LOD@@UAEPAXI@Z  240608e0 f i c_func_lod.obj
 0001:0005f900       ?GetClientSideFade@C_Func_LOD@@UAEEXZ 24060900 f   c_func_lod.obj
 0001:0005f930       ?LODTest@C_Func_LOD@@UAE_NXZ 24060930 f   c_func_lod.obj
 0001:0005fb30       ?GetClassName@C_FuncOccluder@@UAEPBDXZ 24060b30 f   c_func_occluder.obj
 0001:0005fb40       ?YouForgotToImplementOrDeclareClientClass@C_FuncOccluder@@UAEHXZ 24060b40 f   c_func_occluder.obj
 0001:0005fb50       ?GetClientClass@C_FuncOccluder@@UAEPAVClientClass@@XZ 24060b50 f   c_func_occluder.obj
 0001:0005fb60       ??0C_FuncOccluder@@QAE@XZ  24060b60 f i c_func_occluder.obj
 0001:0005fb90       ??$ClientClassInit@Uignored@DT_FuncOccluder@@@@YAHPAUignored@DT_FuncOccluder@@@Z 24060b90 f   c_func_occluder.obj
 0001:0005fc30       ?OnDataChanged@C_FuncOccluder@@UAEXW4DataUpdateType_t@@@Z 24060c30 f   c_func_occluder.obj
 0001:0005fc60       ?ShouldDraw@C_FuncOccluder@@UAE_NXZ 24060c60 f   c_func_occluder.obj
 0001:0005fc70       ?DrawModel@C_FuncOccluder@@UAEHH@Z 24060c70 f   c_func_occluder.obj
 0001:0005fce0       ??_GC_FuncOccluder@@UAEPAXI@Z 24060ce0 f i c_func_occluder.obj
 0001:0005fce0       ??_EC_FuncOccluder@@UAEPAXI@Z 24060ce0 f i c_func_occluder.obj
 0001:0005fd00       ??1IPrototypeAppEffect@@UAE@XZ 24060d00 f i c_func_smokevolume.obj
 0001:0005fd10       ?GetPropEditInfo@IPrototypeAppEffect@@UAE_NPAPAVRecvTable@@PAPAX@Z 24060d10 f i c_func_smokevolume.obj
 0001:0005fd20       ??_EIPrototypeAppEffect@@UAEPAXI@Z 24060d20 f i c_func_smokevolume.obj
 0001:0005fd20       ??_GIPrototypeAppEffect@@UAEPAXI@Z 24060d20 f i c_func_smokevolume.obj
 0001:0005fd40       ?IsEmissive@C_FuncSmokeVolume@@QAEHXZ 24060d40 f i c_func_smokevolume.obj
 0001:0005fd50       ?GetSmokeParticleIndex@C_FuncSmokeVolume@@AAEHHHH@Z 24060d50 f i c_func_smokevolume.obj
 0001:0005fd70       ?GetSmokeParticleInfo@C_FuncSmokeVolume@@AAEPAVSmokeParticleInfo@1@HHH@Z 24060d70 f i c_func_smokevolume.obj
 0001:0005fda0       ?GetParticleInfoXYZ@C_FuncSmokeVolume@@AAEXHAAH00@Z 24060da0 f i c_func_smokevolume.obj
 0001:0005fe00       ?IsValidXYZCoords@C_FuncSmokeVolume@@AAE_NHHH@Z 24060e00 f i c_func_smokevolume.obj
 0001:0005fe40       ?GetClassName@C_FuncSmokeVolume@@UAEPBDXZ 24060e40 f   c_func_smokevolume.obj
 0001:0005fe50       ?YouForgotToImplementOrDeclareClientClass@C_FuncSmokeVolume@@UAEHXZ 24060e50 f   c_func_smokevolume.obj
 0001:0005fe60       ?GetClientClass@C_FuncSmokeVolume@@UAEPAVClientClass@@XZ 24060e60 f   c_func_smokevolume.obj
 0001:0005fe70       ??$ClientClassInit@Uignored@DT_FuncSmokeVolume@@@@YAHPAUignored@DT_FuncSmokeVolume@@@Z 24060e70 f   c_func_smokevolume.obj
 0001:000600d0       ??0IPrototypeAppEffect@@QAE@XZ 240610d0 f i c_func_smokevolume.obj
 0001:000600e0       ?BitsToFloat@@YAMK@Z       240610e0 f i c_func_smokevolume.obj
 0001:000600f0       ?FloatMakePositive@@YAMM@Z 240610f0 f i c_func_smokevolume.obj
 0001:00060110       ?NotifyRemove@C_FuncSmokeVolume@@UAEXXZ 24061110 f   c_func_smokevolume.obj
 0001:00060130       ?VectorsAreEqual@@YA_NABVVector@@0M@Z 24061130 f i c_func_smokevolume.obj
 0001:000601c0       ?FRand@@YAMMM@Z            240611c0 f i c_func_smokevolume.obj
 0001:000601f0       ?RenderParticle_ColorSizeAngle@@YAXPAVParticleDraw@@ABVVector@@1MMM@Z 240611f0 f i c_func_smokevolume.obj
 0001:00060400       ?GetAlphaDistanceFade@@YAMABVVector@@MM@Z 24061400 f i c_func_smokevolume.obj
 0001:00060450       ?GetSmokeParticlePos@C_FuncSmokeVolume@@AAE?AVVector@@HHH@Z 24061450 f i c_func_smokevolume.obj
 0001:000604e0       ??1C_FuncSmokeVolume@@UAE@XZ 240614e0 f   c_func_smokevolume.obj
 0001:00060550       ??_EC_FuncSmokeVolume@@WEIA@AEPAXI@Z 24061550 f i c_func_smokevolume.obj
 0001:00060560       ??_EC_FuncSmokeVolume@@WFFI@AEPAXI@Z 24061560 f i c_func_smokevolume.obj
 0001:00060570       ?OnDataChanged@C_FuncSmokeVolume@@UAEXW4DataUpdateType_t@@@Z 24061570 f   c_func_smokevolume.obj
 0001:000607b0       ?SimulateParticles@C_FuncSmokeVolume@@UAEXPAVCParticleSimulateIterator@@@Z 240617b0 f   c_func_smokevolume.obj
 0001:00060830       ??0C_FuncSmokeVolume@@QAE@XZ 24061830 f   c_func_smokevolume.obj
 0001:000608e0       ??_GC_FuncSmokeVolume@@UAEPAXI@Z 240618e0 f i c_func_smokevolume.obj
 0001:000608e0       ??_EC_FuncSmokeVolume@@UAEPAXI@Z 240618e0 f i c_func_smokevolume.obj
 0001:00060900       ?Update@C_FuncSmokeVolume@@UAEXM@Z 24061900 f   c_func_smokevolume.obj
 0001:000610a0       ?RenderParticles@C_FuncSmokeVolume@@UAEXPAVCParticleRenderIterator@@@Z 240620a0 f   c_func_smokevolume.obj
 0001:00061450       ?FillVolume@C_FuncSmokeVolume@@AAEXXZ 24062450 f   c_func_smokevolume.obj
 0001:00061830       ?Start@C_FuncSmokeVolume@@UAEXPAVCParticleMgr@@PAVIPrototypeArgAccess@@@Z 24062830 f   c_func_smokevolume.obj
 0001:00061890       ?GetClassName@C_FuncTrackTrain@@UAEPBDXZ 24062890 f   c_func_tracktrain.obj
 0001:000618a0       ?YouForgotToImplementOrDeclareClientClass@C_FuncTrackTrain@@UAEHXZ 240628a0 f   c_func_tracktrain.obj
 0001:000618b0       ?GetClientClass@C_FuncTrackTrain@@UAEPAVClientClass@@XZ 240628b0 f   c_func_tracktrain.obj
 0001:000618c0       ??0C_FuncTrackTrain@@QAE@XZ 240628c0 f i c_func_tracktrain.obj
 0001:000618f0       ??$ClientClassInit@Uignored@DT_FuncTrackTrain@@@@YAHPAUignored@DT_FuncTrackTrain@@@Z 240628f0 f   c_func_tracktrain.obj
 0001:000619c0       ??_GC_FuncTrackTrain@@UAEPAXI@Z 240629c0 f i c_func_tracktrain.obj
 0001:000619c0       ??_EC_FuncTrackTrain@@UAEPAXI@Z 240629c0 f i c_func_tracktrain.obj
 0001:000619e0       ?GetSoundSpatialization@C_FuncTrackTrain@@UAE_NAAUSpatializationInfo_t@@@Z 240629e0 f   c_func_tracktrain.obj
 0001:00061b50       ?OBBSize@CCollisionProperty@@QBEABVVector@@XZ 24062b50 f i c_func_tracktrain.obj
 0001:00061be0       ?OnDataChanged@C_FuncTrackTrain@@UAEXW4DataUpdateType_t@@@Z 24062be0 f   c_func_tracktrain.obj
 0001:00061ca0       ??1C_Gib@@UAE@XZ           24062ca0 f   c_gib.obj
 0001:00061cd0       ??_GC_Gib@@UAEPAXI@Z       24062cd0 f i c_gib.obj
 0001:00061cd0       ??_EC_Gib@@UAEPAXI@Z       24062cd0 f i c_gib.obj
 0001:00061d10       ??0C_Gib@@QAE@XZ           24062d10 f i c_gib.obj
 0001:00061d40       ?StartTouch@C_Gib@@UAEXPAVC_BaseEntity@@@Z 24062d40 f   c_gib.obj
 0001:00061d90       ?HitSurface@C_Gib@@UAEXPAVC_BaseEntity@@@Z 24062d90 f   c_gib.obj
 0001:00061da0       ??0solid_t@@QAE@XZ         24062da0 f i c_gib.obj
 0001:00061db0       ?ClientThink@C_Gib@@UAEXXZ 24062db0 f   c_gib.obj
 0001:00061e00       ?InitializeGib@C_Gib@@QAE_NPBDVVector@@11M@Z 24062e00 f   c_gib.obj
 0001:00061f30       ?CreateClientsideGib@C_Gib@@SAPAV1@PBDVVector@@11M@Z 24062f30 f   c_gib.obj
 0001:00061fe0       ??0IHelper@CSimplePhysics@@QAE@XZ 24062fe0 f i c_hairball.obj
 0001:00061ff0       ?Count@?$CUtlVector@VVector@@V?$CUtlMemory@VVector@@@@@@QBEHXZ 24062ff0 f i c_hairball.obj
 0001:00062000       ??BVector@@QAEAAVVectorByValue@@XZ 24063000 f i c_hairball.obj
 0001:00062010       ?Base@?$CUtlMemory@VCNode@CSimplePhysics@@@@QAEPAVCNode@CSimplePhysics@@XZ 24063010 f i c_hairball.obj
 0001:00062020       ?Count@?$CUtlVector@VCNode@CSimplePhysics@@V?$CUtlMemory@VCNode@CSimplePhysics@@@@@@QBEHXZ 24063020 f i c_hairball.obj
 0001:00062030       ??0?$CUtlMemory@VCNode@CSimplePhysics@@@@QAE@HH@Z 24063030 f i c_hairball.obj
 0001:00062070       ??AVMatrix@@QBEPBMH@Z      24063070 f i c_hairball.obj
 0001:00062080       ?Vector3DMultiplyPosition@@YAXABVVMatrix@@VVectorByValue@@AAVVector@@@Z 24063080 f i c_hairball.obj
 0001:000620f0       ?IsExternallyAllocated@?$CUtlMemory@VCNode@CSimplePhysics@@@@QBE_NXZ 240630f0 f i c_hairball.obj
 0001:00062100       ??$Destruct@VCNode@CSimplePhysics@@@@YAXPAVCNode@CSimplePhysics@@@Z 24063100 f i c_hairball.obj
 0001:00062110       ??4CNode@CSimplePhysics@@QAEAAV01@ABV01@@Z 24063110 f i c_hairball.obj
 0001:00062150       ??$Construct@VVector@@@@YAXPAVVector@@@Z 24063150 f i c_hairball.obj
 0001:00062160       ??0CNode@CSimplePhysics@@QAE@XZ 24063160 f i c_hairball.obj
 0001:00062170       ?NumAllocated@?$CUtlMemory@VVector@@@@QBEHXZ 24063170 f i c_hairball.obj
 0001:00062180       ?Grow@?$CUtlMemory@VVector@@@@QAEXH@Z 24063180 f i c_hairball.obj
 0001:00062200       ?NumAllocated@?$CUtlMemory@VCNode@CSimplePhysics@@@@QBEHXZ 24063200 f i c_hairball.obj
 0001:00062210       ?Grow@?$CUtlMemory@VCNode@CSimplePhysics@@@@QAEXH@Z 24063210 f i c_hairball.obj
 0001:00062290       ?Init@CNode@CSimplePhysics@@QAEXABVVector@@@Z 24063290 f i c_hairball.obj
 0001:000622d0       ?GetNodeForces@CHairballDelegate@C_Hairball@@UAEXPAVCNode@CSimplePhysics@@HPAVVector@@@Z 240632d0 f   c_hairball.obj
 0001:000622f0       ??0CHairballDelegate@C_Hairball@@QAE@XZ 240632f0 f i c_hairball.obj
 0001:00062300       ?Init@C_Hairball@@QAEXXZ   24063300 f   c_hairball.obj
 0001:00062370       ?Base@?$CUtlVector@VCNode@CSimplePhysics@@V?$CUtlMemory@VCNode@CSimplePhysics@@@@@@QAEPAVCNode@CSimplePhysics@@XZ 24063370 f i c_hairball.obj
 0001:00062380       ??4VectorByValue@@QAEAAV0@ABV0@@Z 24063380 f i c_hairball.obj
 0001:000623a0       ??A?$CUtlVector@VCNode@CSimplePhysics@@V?$CUtlMemory@VCNode@CSimplePhysics@@@@@@QAEAAVCNode@CSimplePhysics@@H@Z 240633a0 f i c_hairball.obj
 0001:000623b0       ?ResetDbgInfo@?$CUtlVector@VCNode@CSimplePhysics@@V?$CUtlMemory@VCNode@CSimplePhysics@@@@@@IAEXXZ 240633b0 f i c_hairball.obj
 0001:000623c0       ?Purge@?$CUtlMemory@VCNode@CSimplePhysics@@@@QAEXXZ 240633c0 f i c_hairball.obj
 0001:000623f0       ?Element@?$CUtlVector@VCNode@CSimplePhysics@@V?$CUtlMemory@VCNode@CSimplePhysics@@@@@@QAEAAVCNode@CSimplePhysics@@H@Z 240633f0 f i c_hairball.obj
 0001:00062400       ?ShiftElementsRight@?$CUtlVector@VVector@@V?$CUtlMemory@VVector@@@@@@IAEXHH@Z 24063400 f i c_hairball.obj
 0001:00062440       ?GrowVector@?$CUtlVector@VCNode@CSimplePhysics@@V?$CUtlMemory@VCNode@CSimplePhysics@@@@@@IAEXH@Z 24063440 f i c_hairball.obj
 0001:00062470       ?ShiftElementsRight@?$CUtlVector@VCNode@CSimplePhysics@@V?$CUtlMemory@VCNode@CSimplePhysics@@@@@@IAEXHH@Z 24063470 f i c_hairball.obj
 0001:000624b0       ??$Construct@VCNode@CSimplePhysics@@@@YAXPAVCNode@CSimplePhysics@@@Z 240634b0 f i c_hairball.obj
 0001:000624c0       ??A?$CUtlVector@VVector@@V?$CUtlMemory@VVector@@@@@@QAEAAVVector@@H@Z 240634c0 f i c_hairball.obj
 0001:000624d0       ??0VectorByValue@@QAE@ABV0@@Z 240634d0 f i c_hairball.obj
 0001:000624f0       ??1?$CUtlMemory@VCNode@CSimplePhysics@@@@QAE@XZ 240634f0 f i c_hairball.obj
 0001:00062520       ?RemoveAll@?$CUtlVector@VCNode@CSimplePhysics@@V?$CUtlMemory@VCNode@CSimplePhysics@@@@@@QAEXXZ 24063520 f i c_hairball.obj
 0001:00062530       ?InsertMultipleBefore@?$CUtlVector@VCNode@CSimplePhysics@@V?$CUtlMemory@VCNode@CSimplePhysics@@@@@@QAEHHHPBVCNode@CSimplePhysics@@@Z 24063530 f i c_hairball.obj
 0001:00062760       ?GrowVector@?$CUtlVector@VVector@@V?$CUtlMemory@VVector@@@@@@IAEXH@Z 24063760 f i c_hairball.obj
 0001:00062790       ?ApplyConstraints@CHairballDelegate@C_Hairball@@UAEXPAVCNode@CSimplePhysics@@H@Z 24063790 f   c_hairball.obj
 0001:000629a0       ?ClientThink@C_Hairball@@UAEXXZ 240639a0 f   c_hairball.obj
 0001:00063030       ?DrawModel@C_Hairball@@UAEHH@Z 24064030 f   c_hairball.obj
 0001:00063190       ??0?$CUtlVector@VCNode@CSimplePhysics@@V?$CUtlMemory@VCNode@CSimplePhysics@@@@@@QAE@HH@Z 24064190 f i c_hairball.obj
 0001:000631d0       ?Purge@?$CUtlVector@VCNode@CSimplePhysics@@V?$CUtlMemory@VCNode@CSimplePhysics@@@@@@QAEXXZ 240641d0 f i c_hairball.obj
 0001:00063210       ?AddMultipleToTail@?$CUtlVector@VCNode@CSimplePhysics@@V?$CUtlMemory@VCNode@CSimplePhysics@@@@@@QAEHHPBVCNode@CSimplePhysics@@@Z 24064210 f i c_hairball.obj
 0001:00063230       ?InsertMultipleBefore@?$CUtlVector@VVector@@V?$CUtlMemory@VVector@@@@@@QAEHHHPBVVector@@@Z 24064230 f i c_hairball.obj
 0001:00063390       ??1?$CUtlVector@VCNode@CSimplePhysics@@V?$CUtlMemory@VCNode@CSimplePhysics@@@@@@QAE@XZ 24064390 f i c_hairball.obj
 0001:000633f0       ?SetCount@?$CUtlVector@VCNode@CSimplePhysics@@V?$CUtlMemory@VCNode@CSimplePhysics@@@@@@QAEXH@Z 240643f0 f i c_hairball.obj
 0001:00063410       ?AddMultipleToTail@?$CUtlVector@VVector@@V?$CUtlMemory@VVector@@@@@@QAEHHPBVVector@@@Z 24064410 f i c_hairball.obj
 0001:00063430       ?SetSize@?$CUtlVector@VCNode@CSimplePhysics@@V?$CUtlMemory@VCNode@CSimplePhysics@@@@@@QAEXH@Z 24064430 f i c_hairball.obj
 0001:00063450       ?SetCount@?$CUtlVector@VVector@@V?$CUtlMemory@VVector@@@@@@QAEXH@Z 24064450 f i c_hairball.obj
 0001:00063470       ?SetSize@?$CUtlVector@VVector@@V?$CUtlMemory@VVector@@@@@@QAEXH@Z 24064470 f i c_hairball.obj
 0001:00063490       ??0C_Hairball@@QAE@XZ      24064490 f   c_hairball.obj
 0001:00063680       ??_GC_Hairball@@UAEPAXI@Z  24064680 f i c_hairball.obj
 0001:00063680       ??_EC_Hairball@@UAEPAXI@Z  24064680 f i c_hairball.obj
 0001:000636a0       ??1C_Hairball@@UAE@XZ      240646a0 f i c_hairball.obj
 0001:000636d0       ?CreateHairballCallback@@YAXXZ 240646d0 f   c_hairball.obj
 0001:00063890       ?SetFadeDistances@C_LightGlowOverlay@@QAEXHHH@Z 24064890 f i c_lightglow.obj
 0001:000638c0       ?SetOneSided@C_LightGlowOverlay@@QAEX_N@Z 240648c0 f i c_lightglow.obj
 0001:000638d0       ?GetClassName@C_LightGlow@@UAEPBDXZ 240648d0 f   c_lightglow.obj
 0001:000638e0       ?YouForgotToImplementOrDeclareClientClass@C_LightGlow@@UAEHXZ 240648e0 f   c_lightglow.obj
 0001:000638f0       ?GetClientClass@C_LightGlow@@UAEPAVClientClass@@XZ 240648f0 f   c_lightglow.obj
 0001:00063900       ??$ClientClassInit@Uignored@DT_LightGlow@@@@YAHPAUignored@DT_LightGlow@@@Z 24064900 f   c_lightglow.obj
 0001:00063a80       ??1C_LightGlowOverlay@@UAE@XZ 24064a80 f i c_lightglow.obj
 0001:00063a90       ?NotifyShouldTransmit@C_LightGlow@@UAEXW4ShouldTransmitState_t@@@Z 24064a90 f   c_lightglow.obj
 0001:00063ad0       ?SetOrigin@C_LightGlowOverlay@@QAEXABVVector@@@Z 24064ad0 f i c_lightglow.obj
 0001:00063b00       ?SetDirection@C_LightGlowOverlay@@QAEXABVVector@@@Z 24064b00 f i c_lightglow.obj
 0001:00063b30       ??0C_LightGlowOverlay@@QAE@XZ 24064b30 f i c_lightglow.obj
 0001:00063b50       ??_EC_LightGlowOverlay@@UAEPAXI@Z 24064b50 f i c_lightglow.obj
 0001:00063b50       ??_GC_LightGlowOverlay@@UAEPAXI@Z 24064b50 f i c_lightglow.obj
 0001:00063b70       ?OnDataChanged@C_LightGlow@@UAEXW4DataUpdateType_t@@@Z 24064b70 f   c_lightglow.obj
 0001:00063d30       ?CalcSpriteColorAndSize@C_LightGlowOverlay@@UAEXMPAVCGlowSprite@@PAM1PAVVector@@@Z 24064d30 f i c_lightglow.obj
 0001:00063f30       ??0C_LightGlow@@QAE@XZ     24064f30 f   c_lightglow.obj
 0001:00063fa0       ??_EC_LightGlow@@UAEPAXI@Z 24064fa0 f i c_lightglow.obj
 0001:00063fa0       ??_GC_LightGlow@@UAEPAXI@Z 24064fa0 f i c_lightglow.obj
 0001:00064010       ?GetMaterial@C_MaterialModifyControl@@QAEPAVIMaterial@@XZ 24065010 f i C_MaterialModifyControl.obj
 0001:00064020       ?GetMaterialVariableName@C_MaterialModifyControl@@QAEPBDXZ 24065020 f i C_MaterialModifyControl.obj
 0001:00064030       ?GetMaterialVariableValue@C_MaterialModifyControl@@QAEPBDXZ 24065030 f i C_MaterialModifyControl.obj
 0001:00064040       ?GetClassName@C_MaterialModifyControl@@UAEPBDXZ 24065040 f   C_MaterialModifyControl.obj
 0001:00064050       ?YouForgotToImplementOrDeclareClientClass@C_MaterialModifyControl@@UAEHXZ 24065050 f   C_MaterialModifyControl.obj
 0001:00064060       ?GetClientClass@C_MaterialModifyControl@@UAEPAVClientClass@@XZ 24065060 f   C_MaterialModifyControl.obj
 0001:00064070       ??$ClientClassInit@Uignored@DT_MaterialModifyControl@@@@YAHPAUignored@DT_MaterialModifyControl@@@Z 24065070 f   C_MaterialModifyControl.obj
 0001:00064140       ??0C_MaterialModifyControl@@QAE@XZ 24065140 f   C_MaterialModifyControl.obj
 0001:00064180       ?OnDataChanged@C_MaterialModifyControl@@UAEXW4DataUpdateType_t@@@Z 24065180 f   C_MaterialModifyControl.obj
 0001:000641b0       ?ShouldDraw@C_MaterialModifyControl@@UAE_NXZ 240651b0 f   C_MaterialModifyControl.obj
 0001:000641c0       ??1CMaterialModifyProxy@@UAE@XZ 240651c0 f   C_MaterialModifyControl.obj
 0001:000641d0       ?Init@CMaterialModifyProxy@@UAE_NPAVIMaterial@@PAVKeyValues@@@Z 240651d0 f   C_MaterialModifyControl.obj
 0001:000641e0       ?Q_strcmp@@YAHPBD0@Z       240651e0 f i C_MaterialModifyControl.obj
 0001:00064280       ??_EC_MaterialModifyControl@@UAEPAXI@Z 24065280 f i C_MaterialModifyControl.obj
 0001:00064280       ??_GC_MaterialModifyControl@@UAEPAXI@Z 24065280 f i C_MaterialModifyControl.obj
 0001:000642a0       ??0CMaterialModifyProxy@@QAE@XZ 240652a0 f   C_MaterialModifyControl.obj
 0001:000642b0       ??_ECMaterialModifyProxy@@UAEPAXI@Z 240652b0 f i C_MaterialModifyControl.obj
 0001:000642b0       ??_GCMaterialModifyProxy@@UAEPAXI@Z 240652b0 f i C_MaterialModifyControl.obj
 0001:000642d0       ?OnBind@CMaterialModifyProxy@@UAEXPAVC_BaseEntity@@@Z 240652d0 f   C_MaterialModifyControl.obj
 0001:000643e0       ?GetClassName@C_PhysBox@@UAEPBDXZ 240653e0 f   c_physbox.obj
 0001:000643f0       ?YouForgotToImplementOrDeclareClientClass@C_PhysBox@@UAEHXZ 240653f0 f   c_physbox.obj
 0001:00064400       ?GetClientClass@C_PhysBox@@UAEPAVClientClass@@XZ 24065400 f   c_physbox.obj
 0001:00064410       ??$ClientClassInit@Uignored@DT_PhysBox@@@@YAHPAUignored@DT_PhysBox@@@Z 24065410 f   c_physbox.obj
 0001:000644a0       ??0C_PhysBox@@QAE@XZ       240654a0 f   c_physbox.obj
 0001:000644d0       ??1C_PhysBox@@UAE@XZ       240654d0 f   c_physbox.obj
 0001:00064550       ??_EC_PhysBox@@UAEPAXI@Z   24065550 f i c_physbox.obj
 0001:00064550       ??_GC_PhysBox@@UAEPAXI@Z   24065550 f i c_physbox.obj
 0001:00064590       ?ShadowCastType@C_PhysBox@@UAE?AW4ShadowType_t@@XZ 24065590 f   c_physbox.obj
 0001:000645a0       ?GetClassName@C_PhysicsProp@@UAEPBDXZ 240655a0 f   c_physicsprop.obj
 0001:000645b0       ?YouForgotToImplementOrDeclareClientClass@C_PhysicsProp@@UAEHXZ 240655b0 f   c_physicsprop.obj
 0001:000645c0       ?GetClientClass@C_PhysicsProp@@UAEPAVClientClass@@XZ 240655c0 f   c_physicsprop.obj
 0001:000645d0       ??$ClientClassInit@Uignored@DT_PhysicsProp@@@@YAHPAUignored@DT_PhysicsProp@@@Z 240655d0 f   c_physicsprop.obj
 0001:00064650       ??1C_BreakableProp@@UAE@XZ 24065650 f i c_physicsprop.obj
 0001:00064660       ??1C_PhysicsProp@@UAE@XZ   24065660 f   c_physicsprop.obj
 0001:00064680       ??0C_PhysicsProp@@QAE@XZ   24065680 f   c_physicsprop.obj
 0001:000646d0       ??_GC_PhysicsProp@@UAEPAXI@Z 240656d0 f i c_physicsprop.obj
 0001:000646d0       ??_EC_PhysicsProp@@UAEPAXI@Z 240656d0 f i c_physicsprop.obj
 0001:00064790       ?InternalDrawModel@C_PhysicsProp@@UAEHH@Z 24065790 f   c_physicsprop.obj
 0001:00064a00       ?GetClassName@C_PhysMagnet@@UAEPBDXZ 24065a00 f   c_physmagnet.obj
 0001:00064a10       ?YouForgotToImplementOrDeclareClientClass@C_PhysMagnet@@UAEHXZ 24065a10 f   c_physmagnet.obj
 0001:00064a20       ?GetClientClass@C_PhysMagnet@@UAEPAVClientClass@@XZ 24065a20 f   c_physmagnet.obj
 0001:00064a30       ??$ClientClassInit@Uignored@DT_PhysMagnet@@@@YAHPAUignored@DT_PhysMagnet@@@Z 24065a30 f   c_physmagnet.obj
 0001:00064aa0       ?PostDataUpdate@C_PhysMagnet@@UAEXW4DataUpdateType_t@@@Z 24065aa0 f   c_physmagnet.obj
 0001:00064ab0       ??$Construct@H@@YAXPAH@Z   24065ab0 f i c_physmagnet.obj
 0001:00064ac0       ?GetShadowCastDirection@C_PhysMagnet@@UBE_NPAVVector@@W4ShadowType_t@@@Z 24065ac0 f   c_physmagnet.obj
 0001:00064ae0       ?RecvProxy_MagnetAttachedObjectList@@YAXPBVCRecvProxyData@@PAX1@Z 24065ae0 f   c_physmagnet.obj
 0001:00064b00       ?InsertMultipleBefore@?$CUtlVector@HV?$CUtlMemory@H@@@@QAEHHHPBH@Z 24065b00 f i c_physmagnet.obj
 0001:00064ba0       ?AddMultipleToTail@?$CUtlVector@HV?$CUtlMemory@H@@@@QAEHHPBH@Z 24065ba0 f i c_physmagnet.obj
 0001:00064bc0       ?SetCount@?$CUtlVector@HV?$CUtlMemory@H@@@@QAEXH@Z 24065bc0 f i c_physmagnet.obj
 0001:00064be0       ?SetSize@?$CUtlVector@HV?$CUtlMemory@H@@@@QAEXH@Z 24065be0 f i c_physmagnet.obj
 0001:00064c00       ?RecvProxyArrayLength_MagnetAttachedArray@@YAXPAXHH@Z 24065c00 f   c_physmagnet.obj
 0001:00064c30       ??0C_PhysMagnet@@QAE@XZ    24065c30 f   c_physmagnet.obj
 0001:00064ca0       ??1C_PhysMagnet@@UAE@XZ    24065ca0 f   c_physmagnet.obj
 0001:00064d20       ??_GC_PhysMagnet@@UAEPAXI@Z 24065d20 f i c_physmagnet.obj
 0001:00064d20       ??_EC_PhysMagnet@@UAEPAXI@Z 24065d20 f i c_physmagnet.obj
 0001:00064d80       ??0CPixelVisSet@@QAE@XZ    24065d80 f i c_pixel_visibility.obj
 0001:00064da0       ?Init@CPixelVisSet@@QAEXABUpixelvis_queryparams_t@@@Z 24065da0 f   c_pixel_visibility.obj
 0001:00064df0       ?MarkActive@CPixelVisSet@@QAEXXZ 24065df0 f   c_pixel_visibility.obj
 0001:00064e00       ?IsActive@CPixelVisSet@@QAE_NXZ 24065e00 f   c_pixel_visibility.obj
 0001:00064e20       ?SetView@CPixelVisibilityQuery@@QAEXH@Z 24065e20 f i c_pixel_visibility.obj
 0001:00064e40       ??1CPixelVisibilityQuery@@QAE@XZ 24065e40 f   c_pixel_visibility.obj
 0001:00064e80       ?IsValid@CPixelVisibilityQuery@@QAE_NXZ 24065e80 f   c_pixel_visibility.obj
 0001:00064e90       ?IsForView@CPixelVisibilityQuery@@QAE_NH@Z 24065e90 f   c_pixel_visibility.obj
 0001:00064ea0       ?IsActive@CPixelVisibilityQuery@@QAE_NXZ 24065ea0 f   c_pixel_visibility.obj
 0001:00064ec0       ?SupportsOcclusion@CPixelVisibilitySystem@@QAE_NXZ 24065ec0 f i c_pixel_visibility.obj
 0001:00064ed0       ?ShowQueries@CPixelVisibilitySystem@@QAEX_N@Z 24065ed0 f   c_pixel_visibility.obj
 0001:00064ee0       ??0CTraceFilterGlow@@QAE@PBVIHandleEntity@@H@Z 24065ee0 f i c_pixel_visibility.obj
 0001:00064f00       ?ShouldHitEntity@CTraceFilterGlow@@UAE_NPAVIHandleEntity@@H@Z 24065f00 f i c_pixel_visibility.obj
 0001:00064f50       ?InvalidIndex@?$CUtlMultiList@VCPixelVisSet@@G@@SAGXZ 24065f50 f i c_pixel_visibility.obj
 0001:00064f60       ?InvalidIndex@?$CUtlMultiList@VCPixelVisibilityQuery@@G@@SAGXZ 24065f60 f i c_pixel_visibility.obj
 0001:00064f70       ?TotalCount@?$CUtlMultiList@VCPixelVisSet@@G@@QBEHXZ 24065f70 f i c_pixel_visibility.obj
 0001:00064f80       ?TotalCount@?$CUtlMultiList@VCPixelVisibilityQuery@@G@@QBEHXZ 24065f80 f i c_pixel_visibility.obj
 0001:00064f90       ?InvalidIndex@?$CUtlLinkedList@UList_t@?$CUtlMultiList@VCPixelVisSet@@G@@G@@SAGXZ 24065f90 f i c_pixel_visibility.obj
 0001:00064fa0       ?InvalidIndex@?$CUtlLinkedList@UList_t@?$CUtlMultiList@VCPixelVisibilityQuery@@G@@G@@SAGXZ 24065fa0 f i c_pixel_visibility.obj
 0001:00064fb0       ??0?$CUtlMemory@UListElem_t@?$CUtlMultiList@VCPixelVisSet@@G@@@@QAE@HH@Z 24065fb0 f i c_pixel_visibility.obj
 0001:00064ff0       ??A?$CUtlMemory@UListElem_t@?$CUtlMultiList@VCPixelVisSet@@G@@@@QBEABUListElem_t@?$CUtlMultiList@VCPixelVisSet@@G@@H@Z 24065ff0 f i c_pixel_visibility.obj
 0001:00065000       ??A?$CUtlMemory@UListElem_t@?$CUtlMultiList@VCPixelVisSet@@G@@@@QAEAAUListElem_t@?$CUtlMultiList@VCPixelVisSet@@G@@H@Z 24066000 f i c_pixel_visibility.obj
 0001:00065010       ?Base@?$CUtlMemory@UListElem_t@?$CUtlMultiList@VCPixelVisSet@@G@@@@QAEPAUListElem_t@?$CUtlMultiList@VCPixelVisSet@@G@@XZ 24066010 f i c_pixel_visibility.obj
 0001:00065020       ?NumAllocated@?$CUtlMemory@UListElem_t@?$CUtlMultiList@VCPixelVisSet@@G@@@@QBEHXZ 24066020 f i c_pixel_visibility.obj
 0001:00065030       ??$Construct@VCPixelVisSet@@@@YAXPAVCPixelVisSet@@@Z 24066030 f i c_pixel_visibility.obj
 0001:00065050       ??0?$CUtlMemory@UListElem_t@?$CUtlMultiList@VCPixelVisibilityQuery@@G@@@@QAE@HH@Z 24066050 f i c_pixel_visibility.obj
 0001:00065080       ??A?$CUtlMemory@UListElem_t@?$CUtlMultiList@VCPixelVisibilityQuery@@G@@@@QBEABUListElem_t@?$CUtlMultiList@VCPixelVisibilityQuery@@G@@H@Z 24066080 f i c_pixel_visibility.obj
 0001:00065090       ??A?$CUtlMemory@UListElem_t@?$CUtlMultiList@VCPixelVisibilityQuery@@G@@@@QAEAAUListElem_t@?$CUtlMultiList@VCPixelVisibilityQuery@@G@@H@Z 24066090 f i c_pixel_visibility.obj
 0001:000650a0       ?Base@?$CUtlMemory@UListElem_t@?$CUtlMultiList@VCPixelVisibilityQuery@@G@@@@QAEPAUListElem_t@?$CUtlMultiList@VCPixelVisibilityQuery@@G@@XZ 240660a0 f i c_pixel_visibility.obj
 0001:000650b0       ?NumAllocated@?$CUtlMemory@UListElem_t@?$CUtlMultiList@VCPixelVisibilityQuery@@G@@@@QBEHXZ 240660b0 f i c_pixel_visibility.obj
 0001:000650c0       ?IsExternallyAllocated@?$CUtlMemory@UListElem_t@?$CUtlMultiList@VCPixelVisSet@@G@@@@QBE_NXZ 240660c0 f i c_pixel_visibility.obj
 0001:000650d0       ??$Destruct@VCPixelVisSet@@@@YAXPAVCPixelVisSet@@@Z 240660d0 f i c_pixel_visibility.obj
 0001:000650e0       ?Head@?$CUtlLinkedList@UList_t@?$CUtlMultiList@VCPixelVisSet@@G@@G@@QBEGXZ 240660e0 f i c_pixel_visibility.obj
 0001:000650f0       ?ConstructList@?$CUtlLinkedList@UList_t@?$CUtlMultiList@VCPixelVisSet@@G@@G@@IAEXXZ 240660f0 f i c_pixel_visibility.obj
 0001:00065110       ??0?$CUtlMemory@UListElem_t@?$CUtlLinkedList@UList_t@?$CUtlMultiList@VCPixelVisSet@@G@@G@@@@QAE@HH@Z 24066110 f i c_pixel_visibility.obj
 0001:00065150       ??A?$CUtlMemory@UListElem_t@?$CUtlLinkedList@UList_t@?$CUtlMultiList@VCPixelVisSet@@G@@G@@@@QBEABUListElem_t@?$CUtlLinkedList@UList_t@?$CUtlMultiList@VCPixelVisSet@@G@@G@@H@Z 24066150 f i c_pixel_visibility.obj
 0001:00065160       ??A?$CUtlMemory@UListElem_t@?$CUtlLinkedList@UList_t@?$CUtlMultiList@VCPixelVisSet@@G@@G@@@@QAEAAUListElem_t@?$CUtlLinkedList@UList_t@?$CUtlMultiList@VCPixelVisSet@@G@@G@@H@Z 24066160 f i c_pixel_visibility.obj
 0001:00065170       ?Base@?$CUtlMemory@UListElem_t@?$CUtlLinkedList@UList_t@?$CUtlMultiList@VCPixelVisSet@@G@@G@@@@QAEPAUListElem_t@?$CUtlLinkedList@UList_t@?$CUtlMultiList@VCPixelVisSet@@G@@G@@XZ 24066170 f i c_pixel_visibility.obj
 0001:00065180       ?IsValidIndex@?$CUtlMultiList@VCPixelVisibilityQuery@@G@@QBE_NG@Z 24066180 f i c_pixel_visibility.obj
 0001:000651b0       ?IsExternallyAllocated@?$CUtlMemory@UListElem_t@?$CUtlMultiList@VCPixelVisibilityQuery@@G@@@@QBE_NXZ 240661b0 f i c_pixel_visibility.obj
 0001:000651c0       ?Head@?$CUtlLinkedList@UList_t@?$CUtlMultiList@VCPixelVisibilityQuery@@G@@G@@QBEGXZ 240661c0 f i c_pixel_visibility.obj
 0001:000651d0       ?ConstructList@?$CUtlLinkedList@UList_t@?$CUtlMultiList@VCPixelVisibilityQuery@@G@@G@@IAEXXZ 240661d0 f i c_pixel_visibility.obj
 0001:000651f0       ??0?$CUtlMemory@UListElem_t@?$CUtlLinkedList@UList_t@?$CUtlMultiList@VCPixelVisibilityQuery@@G@@G@@@@QAE@HH@Z 240661f0 f i c_pixel_visibility.obj
 0001:00065230       ??A?$CUtlMemory@UListElem_t@?$CUtlLinkedList@UList_t@?$CUtlMultiList@VCPixelVisibilityQuery@@G@@G@@@@QBEABUListElem_t@?$CUtlLinkedList@UList_t@?$CUtlMultiList@VCPixelVisibilityQuery@@G@@G@@H@Z 24066230 f i c_pixel_visibility.obj
 0001:00065240       ??A?$CUtlMemory@UListElem_t@?$CUtlLinkedList@UList_t@?$CUtlMultiList@VCPixelVisibilityQuery@@G@@G@@@@QAEAAUListElem_t@?$CUtlLinkedList@UList_t@?$CUtlMultiList@VCPixelVisibilityQuery@@G@@G@@H@Z 24066240 f i c_pixel_visibility.obj
 0001:00065250       ?Base@?$CUtlMemory@UListElem_t@?$CUtlLinkedList@UList_t@?$CUtlMultiList@VCPixelVisibilityQuery@@G@@G@@@@QAEPAUListElem_t@?$CUtlLinkedList@UList_t@?$CUtlMultiList@VCPixelVisibilityQuery@@G@@G@@XZ 24066250 f i c_pixel_visibility.obj
 0001:00065260       ??_GCPixelVisibilityQuery@@QAEPAXI@Z 24066260 f i c_pixel_visibility.obj
 0001:000652b0       ?InternalElement@?$CUtlLinkedList@UList_t@?$CUtlMultiList@VCPixelVisSet@@G@@G@@IAEAAUListElem_t@1@G@Z 240662b0 f i c_pixel_visibility.obj
 0001:000652c0       ?InternalElement@?$CUtlLinkedList@UList_t@?$CUtlMultiList@VCPixelVisSet@@G@@G@@IBEABUListElem_t@1@G@Z 240662c0 f i c_pixel_visibility.obj
 0001:000652d0       ?InternalElement@?$CUtlLinkedList@UList_t@?$CUtlMultiList@VCPixelVisibilityQuery@@G@@G@@IAEAAUListElem_t@1@G@Z 240662d0 f i c_pixel_visibility.obj
 0001:000652e0       ?InternalElement@?$CUtlLinkedList@UList_t@?$CUtlMultiList@VCPixelVisibilityQuery@@G@@G@@IBEABUListElem_t@1@G@Z 240662e0 f i c_pixel_visibility.obj
 0001:000652f0       ?Element@?$CUtlLinkedList@UList_t@?$CUtlMultiList@VCPixelVisSet@@G@@G@@QAEAAUList_t@?$CUtlMultiList@VCPixelVisSet@@G@@G@Z 240662f0 f i c_pixel_visibility.obj
 0001:00065300       ?IsValidIndex@?$CUtlLinkedList@UList_t@?$CUtlMultiList@VCPixelVisSet@@G@@G@@QBE_NG@Z 24066300 f i c_pixel_visibility.obj
 0001:00065330       ??$Construct@UList_t@?$CUtlMultiList@VCPixelVisSet@@G@@@@YAXPAUList_t@?$CUtlMultiList@VCPixelVisSet@@G@@@Z 24066330 f i c_pixel_visibility.obj
 0001:00065340       ??$Destruct@UList_t@?$CUtlMultiList@VCPixelVisSet@@G@@@@YAXPAUList_t@?$CUtlMultiList@VCPixelVisSet@@G@@@Z 24066340 f i c_pixel_visibility.obj
 0001:00065350       ?Element@?$CUtlLinkedList@UList_t@?$CUtlMultiList@VCPixelVisibilityQuery@@G@@G@@QAEAAUList_t@?$CUtlMultiList@VCPixelVisibilityQuery@@G@@G@Z 24066350 f i c_pixel_visibility.obj
 0001:00065360       ?IsValidIndex@?$CUtlLinkedList@UList_t@?$CUtlMultiList@VCPixelVisibilityQuery@@G@@G@@QBE_NG@Z 24066360 f i c_pixel_visibility.obj
 0001:00065390       ??$Construct@UList_t@?$CUtlMultiList@VCPixelVisibilityQuery@@G@@@@YAXPAUList_t@?$CUtlMultiList@VCPixelVisibilityQuery@@G@@@Z 24066390 f i c_pixel_visibility.obj
 0001:000653a0       ??$Destruct@UList_t@?$CUtlMultiList@VCPixelVisibilityQuery@@G@@@@YAXPAUList_t@?$CUtlMultiList@VCPixelVisibilityQuery@@G@@@Z 240663a0 f i c_pixel_visibility.obj
 0001:000653b0       ?NumAllocated@?$CUtlMemory@UListElem_t@?$CUtlLinkedList@UList_t@?$CUtlMultiList@VCPixelVisSet@@G@@G@@@@QBEHXZ 240663b0 f i c_pixel_visibility.obj
 0001:000653c0       ?IsExternallyAllocated@?$CUtlMemory@UListElem_t@?$CUtlLinkedList@UList_t@?$CUtlMultiList@VCPixelVisSet@@G@@G@@@@QBE_NXZ 240663c0 f i c_pixel_visibility.obj
 0001:000653d0       ?NumAllocated@?$CUtlMemory@UListElem_t@?$CUtlLinkedList@UList_t@?$CUtlMultiList@VCPixelVisibilityQuery@@G@@G@@@@QBEHXZ 240663d0 f i c_pixel_visibility.obj
 0001:000653e0       ?IsExternallyAllocated@?$CUtlMemory@UListElem_t@?$CUtlLinkedList@UList_t@?$CUtlMultiList@VCPixelVisibilityQuery@@G@@G@@@@QBE_NXZ 240663e0 f i c_pixel_visibility.obj
 0001:000653f0       ?Previous@?$CUtlLinkedList@UList_t@?$CUtlMultiList@VCPixelVisSet@@G@@G@@QBEGG@Z 240663f0 f i c_pixel_visibility.obj
 0001:00065410       ?Previous@?$CUtlLinkedList@UList_t@?$CUtlMultiList@VCPixelVisibilityQuery@@G@@G@@QBEGG@Z 24066410 f i c_pixel_visibility.obj
 0001:00065430       ??0CPixelVisibilityQuery@@QAE@XZ 24066430 f   c_pixel_visibility.obj
 0001:00065480       ?Cache@ClientEffectRegister@PrecacheOcclusionProxy@@UAEX_N@Z 24066480 f   c_pixel_visibility.obj
 0001:000654e0       ??0ClientEffectRegister@PrecacheOcclusionProxy@@QAE@XZ 240664e0 f i c_pixel_visibility.obj
 0001:00065500       ??A?$CUtlMultiList@VCPixelVisSet@@G@@QAEAAVCPixelVisSet@@G@Z 24066500 f i c_pixel_visibility.obj
 0001:00065510       ?IsValidIndex@?$CUtlMultiList@VCPixelVisSet@@G@@QBE_NG@Z 24066510 f i c_pixel_visibility.obj
 0001:00065540       ??A?$CUtlMultiList@VCPixelVisibilityQuery@@G@@QAEAAVCPixelVisibilityQuery@@G@Z 24066540 f i c_pixel_visibility.obj
 0001:00065550       ?InternalElement@?$CUtlMultiList@VCPixelVisSet@@G@@IAEAAUListElem_t@1@G@Z 24066550 f i c_pixel_visibility.obj
 0001:00065560       ?InternalElement@?$CUtlMultiList@VCPixelVisSet@@G@@IBEABUListElem_t@1@G@Z 24066560 f i c_pixel_visibility.obj
 0001:00065570       ?ResetDbgInfo@?$CUtlMultiList@VCPixelVisSet@@G@@IAEXXZ 24066570 f i c_pixel_visibility.obj
 0001:00065580       ?InternalElement@?$CUtlMultiList@VCPixelVisibilityQuery@@G@@IAEAAUListElem_t@1@G@Z 24066580 f i c_pixel_visibility.obj
 0001:00065590       ?InternalElement@?$CUtlMultiList@VCPixelVisibilityQuery@@G@@IBEABUListElem_t@1@G@Z 24066590 f i c_pixel_visibility.obj
 0001:000655a0       ?ResetDbgInfo@?$CUtlMultiList@VCPixelVisibilityQuery@@G@@IAEXXZ 240665a0 f i c_pixel_visibility.obj
 0001:000655b0       ?Element@?$CUtlMultiList@VCPixelVisSet@@G@@QAEAAVCPixelVisSet@@G@Z 240665b0 f i c_pixel_visibility.obj
 0001:000655c0       ?ConstructList@?$CUtlMultiList@VCPixelVisSet@@G@@IAEXXZ 240665c0 f i c_pixel_visibility.obj
 0001:000655e0       ?Grow@?$CUtlMemory@UListElem_t@?$CUtlMultiList@VCPixelVisSet@@G@@@@QAEXH@Z 240665e0 f i c_pixel_visibility.obj
 0001:00065660       ?Purge@?$CUtlMemory@UListElem_t@?$CUtlMultiList@VCPixelVisSet@@G@@@@QAEXXZ 24066660 f i c_pixel_visibility.obj
 0001:00065690       ??A?$CUtlLinkedList@UList_t@?$CUtlMultiList@VCPixelVisSet@@G@@G@@QBEABUList_t@?$CUtlMultiList@VCPixelVisSet@@G@@G@Z 24066690 f i c_pixel_visibility.obj
 0001:000656a0       ??A?$CUtlLinkedList@UList_t@?$CUtlMultiList@VCPixelVisSet@@G@@G@@QAEAAUList_t@?$CUtlMultiList@VCPixelVisSet@@G@@G@Z 240666a0 f i c_pixel_visibility.obj
 0001:000656b0       ?Element@?$CUtlMultiList@VCPixelVisibilityQuery@@G@@QAEAAVCPixelVisibilityQuery@@G@Z 240666b0 f i c_pixel_visibility.obj
 0001:000656c0       ?ConstructList@?$CUtlMultiList@VCPixelVisibilityQuery@@G@@IAEXXZ 240666c0 f i c_pixel_visibility.obj
 0001:000656e0       ?Grow@?$CUtlMemory@UListElem_t@?$CUtlMultiList@VCPixelVisibilityQuery@@G@@@@QAEXH@Z 240666e0 f i c_pixel_visibility.obj
 0001:00065750       ?Purge@?$CUtlMemory@UListElem_t@?$CUtlMultiList@VCPixelVisibilityQuery@@G@@@@QAEXXZ 24066750 f i c_pixel_visibility.obj
 0001:00065780       ??A?$CUtlLinkedList@UList_t@?$CUtlMultiList@VCPixelVisibilityQuery@@G@@G@@QBEABUList_t@?$CUtlMultiList@VCPixelVisibilityQuery@@G@@G@Z 24066780 f i c_pixel_visibility.obj
 0001:00065790       ??A?$CUtlLinkedList@UList_t@?$CUtlMultiList@VCPixelVisibilityQuery@@G@@G@@QAEAAUList_t@?$CUtlMultiList@VCPixelVisibilityQuery@@G@@G@Z 24066790 f i c_pixel_visibility.obj
 0001:000657a0       ??$Construct@VCPixelVisibilityQuery@@@@YAXPAVCPixelVisibilityQuery@@@Z 240667a0 f i c_pixel_visibility.obj
 0001:000657f0       ?ResetDbgInfo@?$CUtlLinkedList@UList_t@?$CUtlMultiList@VCPixelVisSet@@G@@G@@IAEXXZ 240667f0 f i c_pixel_visibility.obj
 0001:00065800       ?ResetDbgInfo@?$CUtlLinkedList@UList_t@?$CUtlMultiList@VCPixelVisibilityQuery@@G@@G@@IAEXXZ 24066800 f i c_pixel_visibility.obj
 0001:00065810       ?Previous@?$CUtlMultiList@VCPixelVisSet@@G@@QBEGG@Z 24066810 f i c_pixel_visibility.obj
 0001:00065830       ?RemoveAll@?$CUtlLinkedList@UList_t@?$CUtlMultiList@VCPixelVisSet@@G@@G@@QAEXXZ 24066830 f i c_pixel_visibility.obj
 0001:00065880       ?Next@?$CUtlLinkedList@UList_t@?$CUtlMultiList@VCPixelVisSet@@G@@G@@QBEGG@Z 24066880 f i c_pixel_visibility.obj
 0001:000658a0       ?Previous@?$CUtlMultiList@VCPixelVisibilityQuery@@G@@QBEGG@Z 240668a0 f i c_pixel_visibility.obj
 0001:000658c0       ??$Destruct@VCPixelVisibilityQuery@@@@YAXPAVCPixelVisibilityQuery@@@Z 240668c0 f i c_pixel_visibility.obj
 0001:00065900       ?RemoveAll@?$CUtlLinkedList@UList_t@?$CUtlMultiList@VCPixelVisibilityQuery@@G@@G@@QAEXXZ 24066900 f i c_pixel_visibility.obj
 0001:00065950       ?Next@?$CUtlLinkedList@UList_t@?$CUtlMultiList@VCPixelVisibilityQuery@@G@@G@@QBEGG@Z 24066950 f i c_pixel_visibility.obj
 0001:00065970       ?Purge@?$CUtlMemory@UListElem_t@?$CUtlLinkedList@UList_t@?$CUtlMultiList@VCPixelVisSet@@G@@G@@@@QAEXXZ 24066970 f i c_pixel_visibility.obj
 0001:000659a0       ?Purge@?$CUtlMemory@UListElem_t@?$CUtlLinkedList@UList_t@?$CUtlMultiList@VCPixelVisibilityQuery@@G@@G@@@@QAEXXZ 240669a0 f i c_pixel_visibility.obj
 0001:000659d0       ?Grow@?$CUtlMemory@UListElem_t@?$CUtlLinkedList@UList_t@?$CUtlMultiList@VCPixelVisSet@@G@@G@@@@QAEXH@Z 240669d0 f i c_pixel_visibility.obj
 0001:00065a40       ?Grow@?$CUtlMemory@UListElem_t@?$CUtlLinkedList@UList_t@?$CUtlMultiList@VCPixelVisibilityQuery@@G@@G@@@@QAEXH@Z 24066a40 f i c_pixel_visibility.obj
 0001:00065ab0       ?IsInList@?$CUtlLinkedList@UList_t@?$CUtlMultiList@VCPixelVisSet@@G@@G@@QBE_NG@Z 24066ab0 f i c_pixel_visibility.obj
 0001:00065ae0       ?IsInList@?$CUtlLinkedList@UList_t@?$CUtlMultiList@VCPixelVisibilityQuery@@G@@G@@QBE_NG@Z 24066ae0 f i c_pixel_visibility.obj
 0001:00065b10       ?PixelVisibility_DrawProxy@@YAXGVVector@@MPAVIMaterial@@_N@Z 24066b10 f   c_pixel_visibility.obj
 0001:00066530       ?GetFractionVisible@CPixelVisibilityQuery@@QAEMM@Z 24067530 f   c_pixel_visibility.obj
 0001:00066720       ?IssueQuery@CPixelVisibilityQuery@@QAEXMPAVIMaterial@@_N@Z 24067720 f   c_pixel_visibility.obj
 0001:00066770       ?IssueCountingQuery@CPixelVisibilityQuery@@QAEXMPAVIMaterial@@_N@Z 24067770 f   c_pixel_visibility.obj
 0001:000667d0       ?GlowSightDistance@@YAMABVVector@@_N@Z 240677d0 f   c_pixel_visibility.obj
 0001:00066960       ?PixelVisibility_IsAvailable@@YA_NXZ 24067960 f   c_pixel_visibility.obj
 0001:00066980       ?Alloc@?$CUtlMultiList@VCPixelVisSet@@G@@QAEGXZ 24067980 f i c_pixel_visibility.obj
 0001:00066a00       ?Count@?$CUtlMultiList@VCPixelVisSet@@G@@QBEHG@Z 24067a00 f i c_pixel_visibility.obj
 0001:00066a20       ?Head@?$CUtlMultiList@VCPixelVisSet@@G@@QBEGG@Z 24067a20 f i c_pixel_visibility.obj
 0001:00066a40       ?Next@?$CUtlMultiList@VCPixelVisSet@@G@@QBEGG@Z 24067a40 f i c_pixel_visibility.obj
 0001:00066a60       ?Alloc@?$CUtlMultiList@VCPixelVisibilityQuery@@G@@QAEGXZ 24067a60 f i c_pixel_visibility.obj
 0001:00066b10       ?Count@?$CUtlMultiList@VCPixelVisibilityQuery@@G@@QBEHG@Z 24067b10 f i c_pixel_visibility.obj
 0001:00066b30       ?Head@?$CUtlMultiList@VCPixelVisibilityQuery@@G@@QBEGG@Z 24067b30 f i c_pixel_visibility.obj
 0001:00066b50       ?Next@?$CUtlMultiList@VCPixelVisibilityQuery@@G@@QBEGG@Z 24067b50 f i c_pixel_visibility.obj
 0001:00066b70       ?RemoveAll@?$CUtlMultiList@VCPixelVisSet@@G@@QAEXXZ 24067b70 f i c_pixel_visibility.obj
 0001:00066c00       ?IsInList@?$CUtlMultiList@VCPixelVisSet@@G@@QBE_NG@Z 24067c00 f i c_pixel_visibility.obj
 0001:00066c30       ??1?$CUtlMemory@UListElem_t@?$CUtlMultiList@VCPixelVisSet@@G@@@@QAE@XZ 24067c30 f i c_pixel_visibility.obj
 0001:00066c60       ?RemoveAll@?$CUtlMultiList@VCPixelVisibilityQuery@@G@@QAEXXZ 24067c60 f i c_pixel_visibility.obj
 0001:00066d40       ?IsInList@?$CUtlMultiList@VCPixelVisibilityQuery@@G@@QBE_NG@Z 24067d40 f i c_pixel_visibility.obj
 0001:00066d70       ??1?$CUtlMemory@UListElem_t@?$CUtlMultiList@VCPixelVisibilityQuery@@G@@@@QAE@XZ 24067d70 f i c_pixel_visibility.obj
 0001:00066da0       ??1?$CUtlMemory@UListElem_t@?$CUtlLinkedList@UList_t@?$CUtlMultiList@VCPixelVisSet@@G@@G@@@@QAE@XZ 24067da0 f i c_pixel_visibility.obj
 0001:00066dd0       ??1?$CUtlMemory@UListElem_t@?$CUtlLinkedList@UList_t@?$CUtlMultiList@VCPixelVisibilityQuery@@G@@G@@@@QAE@XZ 24067dd0 f i c_pixel_visibility.obj
 0001:00066e00       ?AllocInternal@?$CUtlLinkedList@UList_t@?$CUtlMultiList@VCPixelVisSet@@G@@G@@IAEG_N@Z 24067e00 f i c_pixel_visibility.obj
 0001:00066ea0       ?AllocInternal@?$CUtlLinkedList@UList_t@?$CUtlMultiList@VCPixelVisibilityQuery@@G@@G@@IAEG_N@Z 24067ea0 f i c_pixel_visibility.obj
 0001:00066f40       ?Unlink@?$CUtlLinkedList@UList_t@?$CUtlMultiList@VCPixelVisSet@@G@@G@@QAEXG@Z 24067f40 f i c_pixel_visibility.obj
 0001:00066fe0       ?Unlink@?$CUtlLinkedList@UList_t@?$CUtlMultiList@VCPixelVisibilityQuery@@G@@G@@QAEXG@Z 24067fe0 f i c_pixel_visibility.obj
 0001:00067080       ?DebugInfo@CPixelVisibilitySystem@@QAEXXZ 24068080 f i c_pixel_visibility.obj
 0001:000670c0       ?FindQueryForView@CPixelVisibilitySystem@@QAEGPAVCPixelVisSet@@H@Z 240680c0 f   c_pixel_visibility.obj
 0001:00067160       ?Purge@?$CUtlMultiList@VCPixelVisSet@@G@@QAEXXZ 24068160 f i c_pixel_visibility.obj
 0001:000671b0       ?Unlink@?$CUtlMultiList@VCPixelVisSet@@G@@QAEXGG@Z 240681b0 f i c_pixel_visibility.obj
 0001:00067270       ?Purge@?$CUtlMultiList@VCPixelVisibilityQuery@@G@@QAEXXZ 24068270 f i c_pixel_visibility.obj
 0001:000672c0       ?Unlink@?$CUtlMultiList@VCPixelVisibilityQuery@@G@@QAEXGG@Z 240682c0 f i c_pixel_visibility.obj
 0001:00067380       ?LinkAfter@?$CUtlMultiList@VCPixelVisSet@@G@@QAEXGGG@Z 24068380 f i c_pixel_visibility.obj
 0001:00067430       ??0?$CUtlLinkedList@UList_t@?$CUtlMultiList@VCPixelVisSet@@G@@G@@QAE@HH@Z 24068430 f i c_pixel_visibility.obj
 0001:00067490       ??1?$CUtlLinkedList@UList_t@?$CUtlMultiList@VCPixelVisSet@@G@@G@@QAE@XZ 24068490 f i c_pixel_visibility.obj
 0001:000674c0       ?LinkAfter@?$CUtlMultiList@VCPixelVisibilityQuery@@G@@QAEXGGG@Z 240684c0 f i c_pixel_visibility.obj
 0001:00067570       ??0?$CUtlLinkedList@UList_t@?$CUtlMultiList@VCPixelVisibilityQuery@@G@@G@@QAE@HH@Z 24068570 f i c_pixel_visibility.obj
 0001:000675d0       ??1?$CUtlLinkedList@UList_t@?$CUtlMultiList@VCPixelVisibilityQuery@@G@@G@@QAE@XZ 240685d0 f i c_pixel_visibility.obj
 0001:00067600       ?LinkBefore@?$CUtlLinkedList@UList_t@?$CUtlMultiList@VCPixelVisSet@@G@@G@@QAEXGG@Z 24068600 f i c_pixel_visibility.obj
 0001:00067680       ?LinkBefore@?$CUtlLinkedList@UList_t@?$CUtlMultiList@VCPixelVisibilityQuery@@G@@G@@QAEXGG@Z 24068680 f i c_pixel_visibility.obj
 0001:00067700       ?EndView@CPixelVisibilitySystem@@QAEXXZ 24068700 f   c_pixel_visibility.obj
 0001:00067930       ?AllocQuery@CPixelVisibilitySystem@@QAEGXZ 24068930 f   c_pixel_visibility.obj
 0001:00067960       ?PixelVisibility_EndCurrentView@@YAXXZ 24068960 f   c_pixel_visibility.obj
 0001:00067970       ??0?$CUtlMultiList@VCPixelVisSet@@G@@QAE@HH@Z 24068970 f i c_pixel_visibility.obj
 0001:000679e0       ??1?$CUtlMultiList@VCPixelVisSet@@G@@QAE@XZ 240689e0 f i c_pixel_visibility.obj
 0001:00067a50       ?LinkToHead@?$CUtlMultiList@VCPixelVisSet@@G@@QAEXGG@Z 24068a50 f i c_pixel_visibility.obj
 0001:00067a70       ??0?$CUtlMultiList@VCPixelVisibilityQuery@@G@@QAE@HH@Z 24068a70 f i c_pixel_visibility.obj
 0001:00067ae0       ??1?$CUtlMultiList@VCPixelVisibilityQuery@@G@@QAE@XZ 24068ae0 f i c_pixel_visibility.obj
 0001:00067b50       ?LinkToHead@?$CUtlMultiList@VCPixelVisibilityQuery@@G@@QAEXGG@Z 24068b50 f i c_pixel_visibility.obj
 0001:00067b70       ?InsertBefore@?$CUtlLinkedList@UList_t@?$CUtlMultiList@VCPixelVisSet@@G@@G@@QAEGG@Z 24068b70 f i c_pixel_visibility.obj
 0001:00067ba0       ?InsertBefore@?$CUtlLinkedList@UList_t@?$CUtlMultiList@VCPixelVisibilityQuery@@G@@G@@QAEGG@Z 24068ba0 f i c_pixel_visibility.obj
 0001:00067bd0       ??1CPixelVisibilitySystem@@UAE@XZ 24068bd0 f i c_pixel_visibility.obj
 0001:00067bf0       ??0CPixelVisibilitySystem@@QAE@XZ 24068bf0 f   c_pixel_visibility.obj
 0001:00067ca0       ?Init@CBaseGameSystem@@UAE_NXZ 24068ca0 f i c_pixel_visibility.obj
 0001:00067cb0       ?Shutdown@CBaseGameSystem@@UAEXXZ 24068cb0 f i c_pixel_visibility.obj
 0001:00067cc0       ??_GCPixelVisibilitySystem@@UAEPAXI@Z 24068cc0 f i c_pixel_visibility.obj
 0001:00067cc0       ??_ECPixelVisibilitySystem@@UAEPAXI@Z 24068cc0 f i c_pixel_visibility.obj
 0001:00067cf0       ?FindOrCreateQueryForView@CPixelVisibilitySystem@@QAEGPAVCPixelVisSet@@H@Z 24068cf0 f   c_pixel_visibility.obj
 0001:00067d80       ?DeleteUnusedQueries@CPixelVisibilitySystem@@QAEXPAVCPixelVisSet@@_N@Z 24068d80 f   c_pixel_visibility.obj
 0001:00067e80       ?FreeSet@CPixelVisibilitySystem@@QAEXG@Z 24068e80 f   c_pixel_visibility.obj
 0001:00067ed0       ?AddToTail@?$CUtlLinkedList@UList_t@?$CUtlMultiList@VCPixelVisSet@@G@@G@@QAEGXZ 24068ed0 f i c_pixel_visibility.obj
 0001:00067f40       ?AddToTail@?$CUtlLinkedList@UList_t@?$CUtlMultiList@VCPixelVisibilityQuery@@G@@G@@QAEGXZ 24068f40 f i c_pixel_visibility.obj
 0001:00067fb0       ?DeleteUnusedSets@CPixelVisibilitySystem@@QAEX_N@Z 24068fb0 f   c_pixel_visibility.obj
 0001:000680e0       ?CreateList@?$CUtlMultiList@VCPixelVisSet@@G@@QAEGXZ 240690e0 f i c_pixel_visibility.obj
 0001:00068120       ?CreateList@?$CUtlMultiList@VCPixelVisibilityQuery@@G@@QAEGXZ 24069120 f i c_pixel_visibility.obj
 0001:00068160       ?LevelInitPreEntity@CPixelVisibilitySystem@@UAEXXZ 24069160 f   c_pixel_visibility.obj
 0001:00068290       ?LevelShutdownPostEntity@CPixelVisibilitySystem@@UAEXXZ 24069290 f   c_pixel_visibility.obj
 0001:00068350       ?EndScene@CPixelVisibilitySystem@@QAEXXZ 24069350 f   c_pixel_visibility.obj
 0001:00068360       ?AllocSet@CPixelVisibilitySystem@@QAEGXZ 24069360 f   c_pixel_visibility.obj
 0001:00068400       ?FindOrCreatePixelVisSet@CPixelVisibilitySystem@@QAEPAVCPixelVisSet@@ABUpixelvis_queryparams_t@@PAH@Z 24069400 f   c_pixel_visibility.obj
 0001:000684c0       ?PixelVisibility_EndScene@@YAXXZ 240694c0 f   c_pixel_visibility.obj
 0001:000684d0       ?GetFractionVisible@CPixelVisibilitySystem@@QAEMABUpixelvis_queryparams_t@@PAH@Z 240694d0 f   c_pixel_visibility.obj
 0001:00068590       ?PixelVisibility_FractionVisible@@YAMABUpixelvis_queryparams_t@@PAH@Z 24069590 f   c_pixel_visibility.obj
 0001:000685e0       ?RecvProxy_PlasmaScale@@YAXPBVCRecvProxyData@@PAX1@Z 240695e0 f   c_plasma.obj
 0001:00068620       ?RecvProxy_PlasmaScaleTime@@YAXPBVCRecvProxyData@@PAX1@Z 24069620 f   c_plasma.obj
 0001:000686a0       ?GetClassName@C_Plasma@@UAEPBDXZ 240696a0 f   c_plasma.obj
 0001:000686b0       ?YouForgotToImplementOrDeclareClientClass@C_Plasma@@UAEHXZ 240696b0 f   c_plasma.obj
 0001:000686c0       ?GetClientClass@C_Plasma@@UAEPAVClientClass@@XZ 240696c0 f   c_plasma.obj
 0001:000686d0       ??$ClientClassInit@Uignored@DT_Plasma@@@@YAHPAUignored@DT_Plasma@@@Z 240696d0 f   c_plasma.obj
 0001:00068800       ?ShouldDraw@C_Plasma@@UAE_NXZ 24069800 f   c_plasma.obj
 0001:00068810       ?UpdateScale@C_Plasma@@IAEXXZ 24069810 f   c_plasma.obj
 0001:000688a0       ?GetEnt@CClientEntityList@@QAEPAVC_BaseEntity@@H@Z 240698a0 f i c_plasma.obj
 0001:000688b0       ??0C_PlasmaSprite@@QAE@XZ  240698b0 f i c_plasma.obj
 0001:000688f0       ??1C_PlasmaSprite@@UAE@XZ  240698f0 f i c_plasma.obj
 0001:00068900       ??_EC_PlasmaSprite@@UAEPAXI@Z 24069900 f i c_plasma.obj
 0001:00068900       ??_GC_PlasmaSprite@@UAEPAXI@Z 24069900 f i c_plasma.obj
 0001:00068920       ??1C_Plasma@@UAE@XZ        24069920 f   c_plasma.obj
 0001:00068980       ?GetFlickerScale@C_Plasma@@IAEMXZ 24069980 f   c_plasma.obj
 0001:000689d0       ?UpdateFlames@C_Plasma@@IAEXXZ 240699d0 f   c_plasma.obj
 0001:00068b50       ??0C_Plasma@@QAE@XZ        24069b50 f   c_plasma.obj
 0001:00068c70       ??_GC_Plasma@@UAEPAXI@Z    24069c70 f i c_plasma.obj
 0001:00068c70       ??_EC_Plasma@@UAEPAXI@Z    24069c70 f i c_plasma.obj
 0001:00068cd0       ?AddFlames@C_Plasma@@IAEXXZ 24069cd0 f   c_plasma.obj
 0001:00068db0       ?Start@C_Plasma@@IAEXXZ    24069db0 f   c_plasma.obj
 0001:00069080       ?UpdateAnimation@C_Plasma@@IAEXXZ 2406a080 f   c_plasma.obj
 0001:00069150       ?Update@C_Plasma@@IAEXXZ   2406a150 f   c_plasma.obj
 0001:00069250       ?AddEntity@C_Plasma@@UAEXXZ 2406a250 f   c_plasma.obj
 0001:00069350       ?OnDataChanged@C_Plasma@@UAEXW4DataUpdateType_t@@@Z 2406a350 f   c_plasma.obj
 0001:00069370       ??1IGameResources@@UAE@XZ  2406a370 f i c_playerresource.obj
 0001:00069380       ??_EIGameResources@@UAEPAXI@Z 2406a380 f i c_playerresource.obj
 0001:00069380       ??_GIGameResources@@UAEPAXI@Z 2406a380 f i c_playerresource.obj
 0001:000693a0       ?GetClassName@C_PlayerResource@@UAEPBDXZ 2406a3a0 f   c_playerresource.obj
 0001:000693b0       ?YouForgotToImplementOrDeclareClientClass@C_PlayerResource@@UAEHXZ 2406a3b0 f   c_playerresource.obj
 0001:000693c0       ?GetClientClass@C_PlayerResource@@UAEPAVClientClass@@XZ 2406a3c0 f   c_playerresource.obj
 0001:000693d0       ??$ClientClassInit@Uignored@DT_PlayerResource@@@@YAHPAUignored@DT_PlayerResource@@@Z 2406a3d0 f   c_playerresource.obj
 0001:00069620       ?GameResources@@YAPAVIGameResources@@XZ 2406a620 f   c_playerresource.obj
 0001:00069640       ??0IGameResources@@QAE@XZ  2406a640 f i c_playerresource.obj
 0001:00069650       ??1C_PlayerResource@@UAE@XZ 2406a650 f   c_playerresource.obj
 0001:00069690       ?GetPlayerName@C_PlayerResource@@UAEPBDH@Z 2406a690 f   c_playerresource.obj
 0001:00069710       ?IsAlive@C_PlayerResource@@UAE_NH@Z 2406a710 f   c_playerresource.obj
 0001:00069720       ?GetTeam@C_PlayerResource@@UAEHH@Z 2406a720 f   c_playerresource.obj
 0001:00069740       ?GetTeamName@C_PlayerResource@@UAEPBDH@Z 2406a740 f   c_playerresource.obj
 0001:00069770       ?GetTeamScore@C_PlayerResource@@UAEHH@Z 2406a770 f   c_playerresource.obj
 0001:000697a0       ?GetFrags@C_PlayerResource@@UAEHH@Z 2406a7a0 f   c_playerresource.obj
 0001:000697b0       ?IsHLTV@C_PlayerResource@@UAE_NH@Z 2406a7b0 f   c_playerresource.obj
 0001:00069800       ?IsFakePlayer@C_PlayerResource@@UAE_NH@Z 2406a800 f   c_playerresource.obj
 0001:00069850       ?GetPing@C_PlayerResource@@UAEHH@Z 2406a850 f   c_playerresource.obj
 0001:00069880       ?GetPlayerScore@C_PlayerResource@@UAEHH@Z 2406a880 f   c_playerresource.obj
 0001:000698b0       ?GetDeaths@C_PlayerResource@@UAEHH@Z 2406a8b0 f   c_playerresource.obj
 0001:000698e0       ?GetHealth@C_PlayerResource@@UAEHH@Z 2406a8e0 f   c_playerresource.obj
 0001:00069910       ?IsConnected@C_PlayerResource@@UAE_NH@Z 2406a910 f   c_playerresource.obj
 0001:00069930       ??_EC_PlayerResource@@WEIA@AEPAXI@Z 2406a930 f i c_playerresource.obj
 0001:00069940       ??_EC_PlayerResource@@UAEPAXI@Z 2406a940 f i c_playerresource.obj
 0001:00069940       ??_GC_PlayerResource@@UAEPAXI@Z 2406a940 f i c_playerresource.obj
 0001:000699a0       ?IsLocalPlayer@C_PlayerResource@@UAE_NH@Z 2406a9a0 f   c_playerresource.obj
 0001:000699d0       ??0Color@@QAE@XZ           2406a9d0 f i c_playerresource.obj
 0001:000699e0       ??0C_PlayerResource@@QAE@XZ 2406a9e0 f   c_playerresource.obj
 0001:00069b10       ?GetTeamColor@C_PlayerResource@@UAEABVColor@@H@Z 2406ab10 f   c_playerresource.obj
 0001:00069ba0       ?GetClassName@C_PointCamera@@UAEPBDXZ 2406aba0 f   c_point_camera.obj
 0001:00069bb0       ?YouForgotToImplementOrDeclareClientClass@C_PointCamera@@UAEHXZ 2406abb0 f   c_point_camera.obj
 0001:00069bc0       ?GetClientClass@C_PointCamera@@UAEPAVClientClass@@XZ 2406abc0 f   c_point_camera.obj
 0001:00069bd0       ??$ClientClassInit@Uignored@DT_PointCamera@@@@YAHPAUignored@DT_PointCamera@@@Z 2406abd0 f   c_point_camera.obj
 0001:00069d20       ??0?$C_EntityClassList@VC_PointCamera@@@@QAE@XZ 2406ad20 f i c_point_camera.obj
 0001:00069d40       ??1?$C_EntityClassList@VC_PointCamera@@@@QAE@XZ 2406ad40 f i c_point_camera.obj
 0001:00069d50       ?GetPointCameraList@@YAPAVC_PointCamera@@XZ 2406ad50 f   c_point_camera.obj
 0001:00069d60       ?ShouldDraw@C_PointCamera@@UAE_NXZ 2406ad60 f   c_point_camera.obj
 0001:00069d70       ?GetFOV@C_PointCamera@@QAEMXZ 2406ad70 f   c_point_camera.obj
 0001:00069d80       ?GetResolution@C_PointCamera@@QAEMXZ 2406ad80 f   c_point_camera.obj
 0001:00069d90       ?IsFogEnabled@C_PointCamera@@QAE_NXZ 2406ad90 f   c_point_camera.obj
 0001:00069da0       ?GetFogColor@C_PointCamera@@QAEXAAE00@Z 2406ada0 f   c_point_camera.obj
 0001:00069dd0       ?GetFogStart@C_PointCamera@@QAEMXZ 2406add0 f   c_point_camera.obj
 0001:00069de0       ?GetFogEnd@C_PointCamera@@QAEMXZ 2406ade0 f   c_point_camera.obj
 0001:00069df0       ?IsActive@C_PointCamera@@QAE_NXZ 2406adf0 f   c_point_camera.obj
 0001:00069e00       ?LevelShutdown@?$C_EntityClassList@VC_PointCamera@@@@UAEXXZ 2406ae00 f i c_point_camera.obj
 0001:00069e10       ?Insert@?$C_EntityClassList@VC_PointCamera@@@@QAEXPAVC_PointCamera@@@Z 2406ae10 f i c_point_camera.obj
 0001:00069e30       ?Remove@?$C_EntityClassList@VC_PointCamera@@@@QAEXPAVC_PointCamera@@@Z 2406ae30 f i c_point_camera.obj
 0001:00069e60       ??0C_PointCamera@@QAE@XZ   2406ae60 f   c_point_camera.obj
 0001:00069eb0       ??1C_PointCamera@@UAE@XZ   2406aeb0 f   c_point_camera.obj
 0001:00069f50       ??_EC_PointCamera@@UAEPAXI@Z 2406af50 f i c_point_camera.obj
 0001:00069f50       ??_GC_PointCamera@@UAEPAXI@Z 2406af50 f i c_point_camera.obj
 0001:00069f70       ?GetClassName@C_DynamicProp@@UAEPBDXZ 2406af70 f   c_props.obj
 0001:00069f80       ?YouForgotToImplementOrDeclareClientClass@C_DynamicProp@@UAEHXZ 2406af80 f   c_props.obj
 0001:00069f90       ?GetClientClass@C_DynamicProp@@UAEPAVClientClass@@XZ 2406af90 f   c_props.obj
 0001:00069fa0       ??$ClientClassInit@Uignored@DT_DynamicProp@@@@YAHPAUignored@DT_DynamicProp@@@Z 2406afa0 f   c_props.obj
 0001:0006a020       ??1C_DynamicProp@@UAE@XZ   2406b020 f   c_props.obj
 0001:0006a040       ?GetClassName@CPhysBoxMultiplayer@@UAEPBDXZ 2406b040 f   c_props.obj
 0001:0006a050       ?YouForgotToImplementOrDeclareClientClass@CPhysBoxMultiplayer@@UAEHXZ 2406b050 f   c_props.obj
 0001:0006a060       ?GetClientClass@CPhysBoxMultiplayer@@UAEPAVClientClass@@XZ 2406b060 f   c_props.obj
 0001:0006a070       ??0IMultiplayerPhysics@@QAE@XZ 2406b070 f i c_props.obj
 0001:0006a080       ??$ClientClassInit@Uignored@DT_PhysBoxMultiplayer@@@@YAHPAUignored@DT_PhysBoxMultiplayer@@@Z 2406b080 f   c_props.obj
 0001:0006a100       ?GetClassName@CPhysicsPropMultiplayer@@EAEPBDXZ 2406b100 f   c_props.obj
 0001:0006a110       ?YouForgotToImplementOrDeclareClientClass@CPhysicsPropMultiplayer@@EAEHXZ 2406b110 f   c_props.obj
 0001:0006a120       ?GetClientClass@CPhysicsPropMultiplayer@@EAEPAVClientClass@@XZ 2406b120 f   c_props.obj
 0001:0006a130       ??0CPhysicsPropMultiplayer@@QAE@XZ 2406b130 f i c_props.obj
 0001:0006a170       ??$ClientClassInit@Uignored@DT_PhysicsPropMultiplayer@@@@YAHPAUignored@DT_PhysicsPropMultiplayer@@@Z 2406b170 f   c_props.obj
 0001:0006a1f0       ??0C_DynamicProp@@QAE@XZ   2406b1f0 f   c_props.obj
 0001:0006a230       ??_GC_DynamicProp@@UAEPAXI@Z 2406b230 f i c_props.obj
 0001:0006a230       ??_EC_DynamicProp@@UAEPAXI@Z 2406b230 f i c_props.obj
 0001:0006a270       ?GetRenderBounds@C_DynamicProp@@UAEXAAVVector@@0@Z 2406b270 f   c_props.obj
 0001:0006a380       ??0CPhysBoxMultiplayer@@QAE@XZ 2406b380 f i c_props.obj
 0001:0006a3c0       ?GetMultiplayerPhysicsMode@CPhysBoxMultiplayer@@UAEHXZ 2406b3c0 f i c_props.obj
 0001:0006a3d0       ??_GCPhysBoxMultiplayer@@UAEPAXI@Z 2406b3d0 f i c_props.obj
 0001:0006a3d0       ??_ECPhysBoxMultiplayer@@UAEPAXI@Z 2406b3d0 f i c_props.obj
 0001:0006a3f0       ?GetMultiplayerPhysicsMode@CPhysicsPropMultiplayer@@EAEHXZ 2406b3f0 f i c_props.obj
 0001:0006a470       ??_ECPhysicsPropMultiplayer@@UAEPAXI@Z 2406b470 f i c_props.obj
 0001:0006a470       ??_GCPhysicsPropMultiplayer@@UAEPAXI@Z 2406b470 f i c_props.obj
 0001:0006a560       ?GetClassName@C_RagdollManager@@UAEPBDXZ 2406b560 f   c_ragdoll_manager.obj
 0001:0006a570       ?YouForgotToImplementOrDeclareClientClass@C_RagdollManager@@UAEHXZ 2406b570 f   c_ragdoll_manager.obj
 0001:0006a580       ?GetClientClass@C_RagdollManager@@UAEPAVClientClass@@XZ 2406b580 f   c_ragdoll_manager.obj
 0001:0006a590       ??$ClientClassInit@Uignored@DT_RagdollManager@@@@YAHPAUignored@DT_RagdollManager@@@Z 2406b590 f   c_ragdoll_manager.obj
 0001:0006a5f0       ??0C_RagdollManager@@QAE@XZ 2406b5f0 f   c_ragdoll_manager.obj
 0001:0006a630       ?SetMaxRagdollCount@CRagdollLRURetirement@@QAEXH@Z 2406b630 f i c_ragdoll_manager.obj
 0001:0006a6a0       ??_GC_RagdollManager@@UAEPAXI@Z 2406b6a0 f i c_ragdoll_manager.obj
 0001:0006a6a0       ??_EC_RagdollManager@@UAEPAXI@Z 2406b6a0 f i c_ragdoll_manager.obj
 0001:0006a6c0       ?OnDataChanged@C_RagdollManager@@UAEXW4DataUpdateType_t@@@Z 2406b6c0 f   c_ragdoll_manager.obj
 0001:0006a6e0       ?NumNodes@CBaseRopePhysics@@QAEHXZ 2406b6e0 f i c_rope.obj
 0001:0006a6f0       ?GetNode@CBaseRopePhysics@@QAEPAVCNode@CSimplePhysics@@H@Z 2406b6f0 f i c_rope.obj
 0001:0006a700       ?GetFirstNode@CBaseRopePhysics@@QAEPAVCNode@CSimplePhysics@@XZ 2406b700 f i c_rope.obj
 0001:0006a710       ?GetLastNode@CBaseRopePhysics@@QAEPAVCNode@CSimplePhysics@@XZ 2406b710 f i c_rope.obj
 0001:0006a720       ?GetSolidMaterial@C_RopeKeyframe@@QAEPAVIMaterial@@XZ 2406b720 f i c_rope.obj
 0001:0006a730       ?GetBackMaterial@C_RopeKeyframe@@QAEPAVIMaterial@@XZ 2406b730 f i c_rope.obj
 0001:0006a740       ??0CCycleCount@@QAE@XZ     2406b740 f i c_rope.obj
 0001:0006a750       ?Init@CCycleCount@@QAEXXZ  2406b750 f i c_rope.obj
 0001:0006a760       ?Sample@CCycleCount@@QAEXXZ 2406b760 f i c_rope.obj
 0001:0006a770       ??YCCycleCount@@QAEAAV0@ABV0@@Z 2406b770 f i c_rope.obj
 0001:0006a790       ?Start@CFastTimer@@QAEXXZ  2406b790 f i c_rope.obj
 0001:0006a7a0       ?End@CFastTimer@@QAEXXZ    2406b7a0 f i c_rope.obj
 0001:0006a7e0       ?GetDuration@CFastTimer@@QBEABVCCycleCount@@XZ 2406b7e0 f i c_rope.obj
 0001:0006a7f0       ?GetClassName@C_RopeKeyframe@@UAEPBDXZ 2406b7f0 f   c_rope.obj
 0001:0006a800       ?YouForgotToImplementOrDeclareClientClass@C_RopeKeyframe@@UAEHXZ 2406b800 f   c_rope.obj
 0001:0006a810       ?GetClientClass@C_RopeKeyframe@@UAEPAVClientClass@@XZ 2406b810 f   c_rope.obj
 0001:0006a820       ??0CSubdivInit@@QAE@XZ     2406b820 f i c_rope.obj
 0001:0006a880       ?RopeManager@@YAPAVIRopeManager@@XZ 2406b880 f   c_rope.obj
 0001:0006a890       ??0IRopeManager@@QAE@XZ    2406b890 f i c_rope.obj
 0001:0006a8a0       ?Rope_ResetCounters@@YAXXZ 2406b8a0 f   c_rope.obj
 0001:0006a8d0       ??0ITraceFilter@@QAE@XZ    2406b8d0 f i c_rope.obj
 0001:0006a8e0       ?SetRopeFlags@C_RopeKeyframe@@QAEXH@Z 2406b8e0 f   c_rope.obj
 0001:0006a900       ?GetRopeFlags@C_RopeKeyframe@@QBEHXZ 2406b900 f   c_rope.obj
 0001:0006a910       ?HookPhysics@C_RopeKeyframe@@QAEPAVIHelper@CSimplePhysics@@PAV23@@Z 2406b910 f   c_rope.obj
 0001:0006a930       ?SetColorMod@C_RopeKeyframe@@QAEXABVVector@@@Z 2406b930 f   c_rope.obj
 0001:0006a960       ?RecomputeSprings@C_RopeKeyframe@@QAEXXZ 2406b960 f   c_rope.obj
 0001:0006a9a0       ??_0Vector@@QAEAAV0@M@Z    2406b9a0 f i c_rope.obj
 0001:0006a9d0       ?WorldSpaceCenter@C_RopeKeyframe@@UBEABVVector@@XZ 2406b9d0 f   c_rope.obj
 0001:0006a9e0       ?CalculateEndPointAttachment@C_RopeKeyframe@@AAE_NPAVC_BaseEntity@@HAAVVector@@AAVQAngle@@@Z 2406b9e0 f   c_rope.obj
 0001:0006ab00       ?ReceiveMessage@C_RopeKeyframe@@EAEXHAAVbf_read@@@Z 2406bb00 f   c_rope.obj
 0001:0006ab60       ?InvalidIndex@?$CUtlLinkedList@PAVC_RopeKeyframe@@H@@SAHXZ 2406bb60 f i c_rope.obj
 0001:0006ab70       ??0?$CHandle@VC_BaseEntity@@@@QAE@ABVCBaseHandle@@@Z 2406bb70 f i c_rope.obj
 0001:0006ab80       ??0?$CBitVec@$09@@QAE@XZ   2406bb80 f i c_rope.obj
 0001:0006ab90       ?Head@?$CUtlLinkedList@PAVC_RopeKeyframe@@H@@QBEHXZ 2406bb90 f i c_rope.obj
 0001:0006aba0       ?Count@?$CUtlVector@URopeRenderData_t@CRopeManager@@V?$CUtlMemory@URopeRenderData_t@CRopeManager@@@@@@QBEHXZ 2406bba0 f i c_rope.obj
 0001:0006abb0       ?Count@?$CUtlVector@URopeSegData_t@@V?$CUtlMemory@URopeSegData_t@@@@@@QBEHXZ 2406bbb0 f i c_rope.obj
 0001:0006abc0       ?ConstructList@?$CUtlLinkedList@PAVC_RopeKeyframe@@H@@IAEXXZ 2406bbc0 f i c_rope.obj
 0001:0006abe0       ??0?$CUtlMemory@UListElem_t@?$CUtlLinkedList@PAVC_RopeKeyframe@@H@@@@QAE@HH@Z 2406bbe0 f i c_rope.obj
 0001:0006ac20       ??A?$CUtlMemory@UListElem_t@?$CUtlLinkedList@PAVC_RopeKeyframe@@H@@@@QBEABUListElem_t@?$CUtlLinkedList@PAVC_RopeKeyframe@@H@@H@Z 2406bc20 f i c_rope.obj
 0001:0006ac30       ??A?$CUtlMemory@UListElem_t@?$CUtlLinkedList@PAVC_RopeKeyframe@@H@@@@QAEAAUListElem_t@?$CUtlLinkedList@PAVC_RopeKeyframe@@H@@H@Z 2406bc30 f i c_rope.obj
 0001:0006ac40       ?Base@?$CUtlMemory@UListElem_t@?$CUtlLinkedList@PAVC_RopeKeyframe@@H@@@@QAEPAUListElem_t@?$CUtlLinkedList@PAVC_RopeKeyframe@@H@@XZ 2406bc40 f i c_rope.obj
 0001:0006ac50       ??0?$CUtlMemory@URopeRenderData_t@CRopeManager@@@@QAE@HH@Z 2406bc50 f i c_rope.obj
 0001:0006ac90       ?Base@?$CUtlMemory@URopeRenderData_t@CRopeManager@@@@QAEPAURopeRenderData_t@CRopeManager@@XZ 2406bc90 f i c_rope.obj
 0001:0006aca0       ??0?$CUtlMemory@URopeSegData_t@@@@QAE@HH@Z 2406bca0 f i c_rope.obj
